 cgamex86

 Timestamp is 4283bd11 (Thu May 12 16:31:13 2005)

 Preferred load address is 30000000

 Start         Length     Name                   Class
 0001:00000000 000b0efeH .text                   CODE
 0002:00000000 000000e0H .idata$5                DATA
 0002:000000e0 000017b0H .rdata                  DATA
 0002:00001890 00000008H .rdata$sxdata           DATA
 0002:00001898 00000004H .rtc$IAA                DATA
 0002:0000189c 00000004H .rtc$IZZ                DATA
 0002:000018a0 00000004H .rtc$TAA                DATA
 0002:000018a4 00000004H .rtc$TZZ                DATA
 0002:000018a8 00000014H .idata$2                DATA
 0002:000018bc 00000014H .idata$3                DATA
 0002:000018d0 000000e0H .idata$4                DATA
 0002:000019b0 000003e4H .idata$6                DATA
 0002:00001da0 00000059H .edata                  DATA
 0003:00000000 00000004H .CRT$XCA                DATA
 0003:00000004 00000004H .CRT$XCAA               DATA
 0003:00000008 00000004H .CRT$XCZ                DATA
 0003:0000000c 00000004H .CRT$XIA                DATA
 0003:00000010 00000010H .CRT$XIC                DATA
 0003:00000020 00000004H .CRT$XIZ                DATA
 0003:00000024 00000004H .CRT$XPA                DATA
 0003:00000028 00000004H .CRT$XPX                DATA
 0003:0000002c 00000004H .CRT$XPZ                DATA
 0003:00000030 00000004H .CRT$XTA                DATA
 0003:00000034 00000004H .CRT$XTZ                DATA
 0003:00000040 00026810H .data                   DATA
 0003:00026860 0094fe80H .bss                    DATA
 0004:00000000 00000058H .rsrc$01                DATA
 0004:00000060 00000338H .rsrc$02                DATA

  Address         Publics by Value              Rva+Base     Lib:Object

 0000:00000000       __except_list              00000000     <absolute>
 0000:00000002       ___safe_se_handler_count   00000002     <absolute>
 0001:00000000       _AnimalProcessOri          30001000 f   AnimalNPC.obj
 0001:00000180       _G_SetAnimalVehicleFunctions 30001180 f   AnimalNPC.obj
 0001:00000530       _G_CreateAnimalNPC         30001530 f   AnimalNPC.obj
 0001:00000590       _PM_irand_timesync         30001590 f   bg_c_saber.obj
 0001:00000600       _BG_ForcePowerDrain        30001600 f   bg_c_saber.obj
 0001:00000780       _BG_EnoughForcePowerForMove 30001780 f   bg_c_saber.obj
 0001:000007b0       _PM_AttackMoveForQuad      300017b0 f   bg_c_saber.obj
 0001:00000830       _PM_SaberAnimTransitionAnim 30001830 f   bg_c_saber.obj
 0001:00000a50       _PM_CheckStabDown          30001a50 f   bg_c_saber.obj
 0001:00000c80       _PM_SaberMoveQuadrantForMovement 30001c80 f   bg_c_saber.obj
 0001:00000d20       _PM_SaberInBounce          30001d20 f   bg_c_saber.obj
 0001:00000d50       _PM_SaberAttackChainAngle  30001d50 f   bg_c_saber.obj
 0001:00000d90       _PM_SaberKataDone          30001d90 f   bg_c_saber.obj
 0001:00000fe0       _PM_SetAnimFrame           30001fe0 f   bg_c_saber.obj
 0001:00001000       _PM_SaberLockWinAnim       30002000 f   bg_c_saber.obj
 0001:000011d0       _PM_SaberLockLoseAnim      300021d0 f   bg_c_saber.obj
 0001:000013c0       _PM_SaberLockResultAnim    300023c0 f   bg_c_saber.obj
 0001:00001510       _PM_SaberLockBreak         30002510 f   bg_c_saber.obj
 0001:00001970       _BG_CheckIncrementLockAnim 30002970 f   bg_c_saber.obj
 0001:00001a50       _PM_SaberLocked            30002a50 f   bg_c_saber.obj
 0001:00001fd0       _PM_SaberInBrokenParry     30002fd0 f   bg_c_saber.obj
 0001:00002010       _PM_BrokenParryForParry    30003010 f   bg_c_saber.obj
 0001:00002130       _PM_CanBackstab            30003130 f   bg_c_saber.obj
 0001:00002290       _PM_SaberFlipOverAttackMove 30003290 f   bg_c_saber.obj
 0001:00002440       _PM_SaberBackflipAttackMove 30003440 f   bg_c_saber.obj
 0001:00002530       _PM_SaberDualJumpAttackMove 30003530 f   bg_c_saber.obj
 0001:00002550       _PM_SomeoneInFront         30003550 f   bg_c_saber.obj
 0001:000026c0       _PM_SaberLungeAttackMove   300036c0 f   bg_c_saber.obj
 0001:00002880       _PM_SaberJumpAttackMove2   30003880 f   bg_c_saber.obj
 0001:00002970       _PM_SaberJumpAttackMove    30003970 f   bg_c_saber.obj
 0001:00002b20       _PM_GroundDistance         30003b20 f   bg_c_saber.obj
 0001:00002c30       _PM_WalkableGroundDistance 30003c30 f   bg_c_saber.obj
 0001:00002d20       _PM_CheckPullAttack        30003d20 f   bg_c_saber.obj
 0001:00002d30       _PM_InSecondaryStyle       30003d30 f   bg_c_saber.obj
 0001:00002d80       _PM_SaberAttackForMovement 30003d80 f   bg_c_saber.obj
 0001:00003cc0       _PM_KickMoveForConditions  30004cc0 f   bg_c_saber.obj
 0001:00003df0       _PM_SaberMoveOkayForKata   30004df0 f   bg_c_saber.obj
 0001:00003e30       _PM_CanDoKata              30004e30 f   bg_c_saber.obj
 0001:00003ff0       _PM_CheckAltKickAttack     30004ff0 f   bg_c_saber.obj
 0001:000040c0       _PM_SaberPowerCheck        300050c0 f   bg_c_saber.obj
 0001:00004130       _PM_CanDoRollStab          30005130 f   bg_c_saber.obj
 0001:000041e0       _PM_WeaponLightsaber       300051e0 f   bg_c_saber.obj
 0001:00005bd0       _PM_SetSaberMove           30006bd0 f   bg_c_saber.obj
 0001:00006540       _BG_MySaber                30007540 f   bg_c_saber.obj
 0001:000065f0       _BG_AttachToRancor         300075f0 f   bg_g2_utils.obj
 0001:000067d0       _BG_GetRootSurfNameWithVariant 300077d0 f   bg_g2_utils.obj
 0001:000069e0       _BG_FileExists             300079e0 f   bg_misc.obj
 0001:00006a30       _BG_ParseField             30007a30 f   bg_misc.obj
 0001:00006ba0       _BG_LegalizedForcePowers   30007ba0 f   bg_misc.obj
 0001:00007340       _vectoyaw                  30008340 f   bg_misc.obj
 0001:00007410       _BG_HasYsalamiri           30008410 f   bg_misc.obj
 0001:00007450       _BG_CanUseFPNow            30008450 f   bg_misc.obj
 0001:000075a0       _BG_FindItemForPowerup     300085a0 f   bg_misc.obj
 0001:00007610       _BG_FindItemForHoldable    30008610 f   bg_misc.obj
 0001:00007680       _BG_FindItemForWeapon      30008680 f   bg_misc.obj
 0001:000076e0       _BG_FindItemForAmmo        300086e0 f   bg_misc.obj
 0001:00007740       _BG_FindItem               30008740 f   bg_misc.obj
 0001:00007790       _BG_PlayerTouchesItem      30008790 f   bg_misc.obj
 0001:00007840       _BG_ProperForceIndex       30008840 f   bg_misc.obj
 0001:00007880       _BG_CycleForce             30008880 f   bg_misc.obj
 0001:000079e0       _BG_GetItemIndexByTag      300089e0 f   bg_misc.obj
 0001:00007a30       _BG_IsItemSelectable       30008a30 f   bg_misc.obj
 0001:00007a50       _BG_CycleInven             30008a50 f   bg_misc.obj
 0001:00007b50       _BG_CanItemBeGrabbed       30008b50 f   bg_misc.obj
 0001:00007f40       _BG_EvaluateTrajectory     30008f40 f   bg_misc.obj
 0001:00008270       _BG_EvaluateTrajectoryDelta 30009270 f   bg_misc.obj
 0001:000084f0       _BG_AddPredictableEventToPlayerstate 300094f0 f   bg_misc.obj
 0001:00008540       _BG_TouchJumpPad           30009540 f   bg_misc.obj
 0001:00008610       _BG_EmplacedView           30009610 f   bg_misc.obj
 0001:000086f0       _BG_IsValidCharacterModel  300096f0 f   bg_misc.obj
 0001:00008780       _BG_ValidateSkinForTeam    30009780 f   bg_misc.obj
 0001:00008ab0       _BG_PlayerStateToEntityState 30009ab0 f   bg_misc.obj
 0001:000090f0       _BG_PlayerStateToEntityStateExtraPolate 3000a0f0 f   bg_misc.obj
 0001:000096c0       _BG_ModelCache             3000a6c0 f   bg_misc.obj
 0001:000096f0       _BG_Alloc                  3000a6f0 f   bg_misc.obj
 0001:00009760       _BG_AllocUnaligned         3000a760 f   bg_misc.obj
 0001:000097c0       _BG_TempAlloc              3000a7c0 f   bg_misc.obj
 0001:00009820       _BG_TempFree               3000a820 f   bg_misc.obj
 0001:00009870       _BG_StringAlloc            3000a870 f   bg_misc.obj
 0001:000098b0       _BG_OutOfMemory            3000a8b0 f   bg_misc.obj
 0001:000098d0       _BG_SaberStanceAnim        3000a8d0 f   bg_panimate.obj
 0001:00009960       _BG_CrouchAnim             3000a960 f   bg_panimate.obj
 0001:00009aa0       _BG_InSpecialJump          3000aaa0 f   bg_panimate.obj
 0001:00009bf0       _BG_InSaberStandAnim       3000abf0 f   bg_panimate.obj
 0001:00009c30       _BG_InReboundJump          3000ac30 f   bg_panimate.obj
 0001:00009c60       _BG_InReboundHold          3000ac60 f   bg_panimate.obj
 0001:00009c90       _BG_InReboundRelease       3000ac90 f   bg_panimate.obj
 0001:00009cc0       _BG_InBackFlip             3000acc0 f   bg_panimate.obj
 0001:00009cf0       _BG_DirectFlippingAnim     3000acf0 f   bg_panimate.obj
 0001:00009d20       _BG_SaberInAttackPure      3000ad20 f   bg_panimate.obj
 0001:00009d40       _BG_SaberInAttack          3000ad40 f   bg_panimate.obj
 0001:00009d80       _BG_SaberInKata            3000ad80 f   bg_panimate.obj
 0001:00009db0       _BG_InKataAnim             3000adb0 f   bg_panimate.obj
 0001:00009de0       _BG_SaberInSpecial         3000ade0 f   bg_panimate.obj
 0001:00009e30       _BG_KickMove               3000ae30 f   bg_panimate.obj
 0001:00009e60       _BG_SaberInIdle            3000ae60 f   bg_panimate.obj
 0001:00009e90       _BG_InExtraDefenseSaberMove 3000ae90 f   bg_panimate.obj
 0001:00009f00       _BG_FlippingAnim           3000af00 f   bg_panimate.obj
 0001:0000a000       _BG_SpinningSaberAnim      3000b000 f   bg_panimate.obj
 0001:0000a360       _BG_SaberInSpecialAttack   3000b360 f   bg_panimate.obj
 0001:0000a4e0       _BG_KickingAnim            3000b4e0 f   bg_panimate.obj
 0001:0000a560       _BG_InGrappleMove          3000b560 f   bg_panimate.obj
 0001:0000a5c0       _BG_BrokenParryForAttack   3000b5c0 f   bg_panimate.obj
 0001:0000a650       _BG_BrokenParryForParry    3000b650 f   bg_panimate.obj
 0001:0000a780       _BG_KnockawayForParry      3000b780 f   bg_panimate.obj
 0001:0000a7e0       _BG_InRoll                 3000b7e0 f   bg_panimate.obj
 0001:0000a880       _BG_InSpecialDeathAnim     3000b880 f   bg_panimate.obj
 0001:0000a8b0       _BG_InDeathAnim            3000b8b0 f   bg_panimate.obj
 0001:0000a900       _BG_InKnockDownOnly        3000b900 f   bg_panimate.obj
 0001:0000a930       _BG_InSaberLockOld         3000b930 f   bg_panimate.obj
 0001:0000a980       _BG_InSaberLock            3000b980 f   bg_panimate.obj
 0001:0000aa30       _PM_InCartwheel            3000ba30 f   bg_panimate.obj
 0001:0000aa70       _BG_InKnockDownOnGround    3000ba70 f   bg_panimate.obj
 0001:0000ab70       _BG_StabDownAnim           3000bb70 f   bg_panimate.obj
 0001:0000aba0       _PM_SaberBounceForAttack   3000bba0 f   bg_panimate.obj
 0001:0000ac20       _PM_SaberDeflectionForQuad 3000bc20 f   bg_panimate.obj
 0001:0000aca0       _PM_SaberInDeflect         3000bca0 f   bg_panimate.obj
 0001:0000acc0       _PM_SaberInParry           3000bcc0 f   bg_panimate.obj
 0001:0000ace0       _PM_SaberInKnockaway       3000bce0 f   bg_panimate.obj
 0001:0000ad00       _PM_SaberInReflect         3000bd00 f   bg_panimate.obj
 0001:0000ad20       _PM_SaberInStart           3000bd20 f   bg_panimate.obj
 0001:0000ad40       _PM_SaberInReturn          3000bd40 f   bg_panimate.obj
 0001:0000ad60       _BG_SaberInReturn          3000bd60 f   bg_panimate.obj
 0001:0000ad80       _PM_InSaberAnim            3000bd80 f   bg_panimate.obj
 0001:0000ada0       _PM_InRealKnockDown        3000bda0 f   bg_panimate.obj
 0001:0000add0       _PM_InKnockDown            3000bdd0 f   bg_panimate.obj
 0001:0000ae50       _PM_PainAnim               3000be50 f   bg_panimate.obj
 0001:0000ae80       _PM_JumpingAnim            3000be80 f   bg_panimate.obj
 0001:0000aeb0       _PM_LandingAnim            3000beb0 f   bg_panimate.obj
 0001:0000af10       _PM_SpinningAnim           3000bf10 f   bg_panimate.obj
 0001:0000af30       _PM_InOnGroundAnim         3000bf30 f   bg_panimate.obj
 0001:0000af90       _PM_InRollComplete         3000bf90 f   bg_panimate.obj
 0001:0000afd0       _PM_CanRollFromSoulCal     3000bfd0 f   bg_panimate.obj
 0001:0000b010       _BG_SuperBreakLoseAnim     3000c010 f   bg_panimate.obj
 0001:0000b0b0       _BG_SuperBreakWinAnim      3000c0b0 f   bg_panimate.obj
 0001:0000b150       _BG_SaberLockBreakAnim     3000c150 f   bg_panimate.obj
 0001:0000b240       _BG_FullBodyTauntAnim      3000c240 f   bg_panimate.obj
 0001:0000b2a0       _BG_AnimLength             3000c2a0 f   bg_panimate.obj
 0001:0000b310       _PM_AnimLength             3000c310 f   bg_panimate.obj
 0001:0000b3b0       _PM_DebugLegsAnim          3000c3b0 f   bg_panimate.obj
 0001:0000b430       _PM_SaberInTransition      3000c430 f   bg_panimate.obj
 0001:0000b450       _BG_SaberInTransitionAny   3000c450 f   bg_panimate.obj
 0001:0000b4a0       _BG_FlipPart               3000c4a0 f   bg_panimate.obj
 0001:0000b500       _BG_InitAnimsets           3000c500 f   bg_panimate.obj
 0001:0000b530       _BG_ClearAnimsets          3000c530 f   bg_panimate.obj
 0001:0000b540       _BG_AnimsetAlloc           3000c540 f   bg_panimate.obj
 0001:0000b570       _BG_AnimsetFree            3000c570 f   bg_panimate.obj
 0001:0000b580       _CheckAnimFrameForEventType 3000c580 f   bg_panimate.obj
 0001:0000b5e0       _ParseAnimationEvtBlock    3000c5e0 f   bg_panimate.obj
 0001:0000bf10       _BG_ParseAnimationEvtFile  3000cf10 f   bg_panimate.obj
 0001:0000c3d0       _BG_ParseAnimationFile     3000d3d0 f   bg_panimate.obj
 0001:0000c830       _BG_StartLegsAnim          3000d830 f   bg_panimate.obj
 0001:0000c890       _PM_ContinueLegsAnim       3000d890 f   bg_panimate.obj
 0001:0000c8d0       _PM_ForceLegsAnim          3000d8d0 f   bg_panimate.obj
 0001:0000c980       _BG_StartTorsoAnim         3000d980 f   bg_panimate.obj
 0001:0000c9c0       _PM_StartTorsoAnim         3000d9c0 f   bg_panimate.obj
 0001:0000c9e0       _BG_SetLegsAnimTimer       3000d9e0 f   bg_panimate.obj
 0001:0000ca10       _PM_SetLegsAnimTimer       3000da10 f   bg_panimate.obj
 0001:0000ca30       _BG_SetTorsoAnimTimer      3000da30 f   bg_panimate.obj
 0001:0000ca60       _PM_SetTorsoAnimTimer      3000da60 f   bg_panimate.obj
 0001:0000ca80       _BG_SaberStartTransAnim    3000da80 f   bg_panimate.obj
 0001:0000cc10       _BG_SetAnimFinal           3000dc10 f   bg_panimate.obj
 0001:0000cfc0       _PM_SetAnimFinal           3000dfc0 f   bg_panimate.obj
 0001:0000d000       _BG_HasAnimation           3000e000 f   bg_panimate.obj
 0001:0000d060       _BG_PickAnim               3000e060 f   bg_panimate.obj
 0001:0000d0c0       _BG_SetAnim                3000e0c0 f   bg_panimate.obj
 0001:0000d1c0       _PM_SetAnim                3000e1c0 f   bg_panimate.obj
 0001:0000d200       _PM_BGEntForNum            3000e200 f   bg_pmove.obj
 0001:0000d260       _BG_SabersOff              3000e260 f   bg_pmove.obj
 0001:0000d2b0       _BG_KnockDownable          3000e2b0 f   bg_pmove.obj
 0001:0000d2e0       _PM_GetSaberStance         3000e2e0 f   bg_pmove.obj
 0001:0000d440       _PM_DoSlowFall             3000e440 f   bg_pmove.obj
 0001:0000d480       _PM_pitch_roll_for_slope   3000e480 f   bg_pmove.obj
 0001:0000d820       _PM_SetSpecialMoveValues   3000e820 f   bg_pmove.obj
 0001:0000d8e0       _BG_ExternThisSoICanRecompileInDebug 3000e8e0 f   bg_pmove.obj
 0001:0000d8f0       _BG_VehicleTurnRateForSpeed 3000e8f0 f   bg_pmove.obj
 0001:0000da00       _PM_HoverTrace             3000ea00 f   bg_pmove.obj
 0001:0000e4b0       _PM_AddEvent               3000f4b0 f   bg_pmove.obj
 0001:0000e4d0       _PM_AddEventWithParm       3000f4d0 f   bg_pmove.obj
 0001:0000e4f0       _PM_AddTouchEnt            3000f4f0 f   bg_pmove.obj
 0001:0000e570       _PM_ClipVelocity           3000f570 f   bg_pmove.obj
 0001:0000e690       _PM_ForceJumpingUp         3000f690 f   bg_pmove.obj
 0001:0000e7e0       _PM_SetPMViewAngle         3000f7e0 f   bg_pmove.obj
 0001:0000e870       _PM_AdjustAngleForWallRun  3000f870 f   bg_pmove.obj
 0001:0000ecf0       _PM_AdjustAnglesForWallRunUpFlipAlt 3000fcf0 f   bg_pmove.obj
 0001:0000ed20       _PM_AdjustAngleForWallRunUp 3000fd20 f   bg_pmove.obj
 0001:0000f1e0       _PM_AdjustAngleForWallJump 300101e0 f   bg_pmove.obj
 0001:0000f7a0       _PM_SetForceJumpZStart     300107a0 f   bg_pmove.obj
 0001:0000f800       _PM_GrabWallForJump        30010800 f   bg_pmove.obj
 0001:0000fb90       _PM_CheckDualForwardJumpDuck 30010b90 f   bg_pmove.obj
 0001:0000fc50       _PM_CheckFixMins           30010c50 f   bg_pmove.obj
 0001:0000ff30       _PM_Use                    30010f30 f   bg_pmove.obj
 0001:0000ffc0       _PM_WalkingAnim            30010fc0 f   bg_pmove.obj
 0001:00010030       _PM_RunningAnim            30011030 f   bg_pmove.obj
 0001:00010090       _PM_SwimmingAnim           30011090 f   bg_pmove.obj
 0001:000100c0       _PM_RollingAnim            300110c0 f   bg_pmove.obj
 0001:000100f0       _PM_AnglesForSlope         300110f0 f   bg_pmove.obj
 0001:000101f0       _PM_FootSlopeTrace         300111f0 f   bg_pmove.obj
 0001:00010520       _BG_InSlopeAnim            30011520 f   bg_pmove.obj
 0001:00010550       _PM_AdjustStandAnimForSlope 30011550 f   bg_pmove.obj
 0001:00010cf0       _PM_LegsSlopeBackTransition 30011cf0 f   bg_pmove.obj
 0001:00010de0       _BG_ClearRocketLock        30011de0 f   bg_pmove.obj
 0001:00010e20       _PM_BeginWeaponChange      30011e20 f   bg_pmove.obj
 0001:00010f10       _PM_FinishWeaponChange     30011f10 f   bg_pmove.obj
 0001:00010fc0       _BG_VehTraceFromCamPos     30011fc0 f   bg_pmove.obj
 0001:00011240       _PM_RocketLock             30012240 f   bg_pmove.obj
 0001:00011740       _PM_ItemUsable             30012740 f   bg_pmove.obj
 0001:00011a30       _PM_CanSetWeaponAnims      30012a30 f   bg_pmove.obj
 0001:00011a50       _PM_VehicleWeaponAnimate   30012a50 f   bg_pmove.obj
 0001:00011f60       _BG_UnrestrainedPitchRoll  30012f60 f   bg_pmove.obj
 0001:00011fb0       _PM_UpdateViewAngles       30012fb0 f   bg_pmove.obj
 0001:000120d0       _PM_AdjustAttackStates     300130d0 f   bg_pmove.obj
 0001:000125d0       _BG_CmdForRoll             300135d0 f   bg_pmove.obj
 0001:000128a0       _BG_AdjustClientSpeed      300138a0 f   bg_pmove.obj
 0001:00012de0       _BG_InRollAnim             30013de0 f   bg_pmove.obj
 0001:00012e20       _BG_InKnockDown            30013e20 f   bg_pmove.obj
 0001:00012e90       _BG_InRollES               30013e90 f   bg_pmove.obj
 0001:00012ec0       _BG_IK_MoveArm             30013ec0 f   bg_pmove.obj
 0001:00013480       _BG_UpdateLookAngles       30014480 f   bg_pmove.obj
 0001:000136b0       _BG_InRoll2                300146b0 f   bg_pmove.obj
 0001:00013750       _BG_G2PlayerAngles         30014750 f   bg_pmove.obj
 0001:00014d40       _BG_G2ATSTAngles           30015d40 f   bg_pmove.obj
 0001:00014d70       _PM_VehicleViewAngles      30015d70 f   bg_pmove.obj
 0001:00015000       _PM_WeaponOkOnVehicle      30016000 f   bg_pmove.obj
 0001:00015030       _PM_GetOkWeaponForVehicle  30016030 f   bg_pmove.obj
 0001:00015090       _PM_VehForcedTurning       30016090 f   bg_pmove.obj
 0001:00015250       _PM_VehFaceHyperspacePoint 30016250 f   bg_pmove.obj
 0001:000155a0       _BG_VehicleAdjustBBoxForOrientation 300165a0 f   bg_pmove.obj
 0001:00015ce0       _PM_MoveForKata            30016ce0 f   bg_pmove.obj
 0001:00015f20       _PmoveSingle               30016f20 f   bg_pmove.obj
 0001:00022300       _Pmove                     30023300 f   bg_pmove.obj
 0001:00022410       _PM_IsRocketTrooper        30023410 f i bg_pmove.obj
 0001:00022420       _BG_SoundIndex             30023420 f   bg_saberLoad.obj
 0001:00022440       _BG_ParseLiteral           30023440 f   bg_saberLoad.obj
 0001:000224b0       _TranslateSaberColor       300234b0 f   bg_saberLoad.obj
 0001:00022590       _TranslateSaberStyle       30023590 f   bg_saberLoad.obj
 0001:00022670       _WP_SaberBladeUseSecondBladeStyle 30023670 f   bg_saberLoad.obj
 0001:000226a0       _WP_SaberBladeDoTransitionDamage 300236a0 f   bg_saberLoad.obj
 0001:00022700       _WP_UseFirstValidSaberStyle 30023700 f   bg_saberLoad.obj
 0001:00022910       _WP_SaberStyleValidForSaber 30023910 f   bg_saberLoad.obj
 0001:00022b00       _WP_SaberCanTurnOffSomeBlades 30023b00 f   bg_saberLoad.obj
 0001:00022b70       _WP_SaberSetDefaults       30023b70 f   bg_saberLoad.obj
 0001:00023070       _WP_SaberParseParms        30024070 f   bg_saberLoad.obj
 0001:00025f60       _WP_SaberParseParm         30026f60 f   bg_saberLoad.obj
 0001:000260c0       _WP_SaberValidForPlayerInMP 300270c0 f   bg_saberLoad.obj
 0001:00026110       _WP_RemoveSaber            30027110 f   bg_saberLoad.obj
 0001:00026190       _WP_SetSaber               30027190 f   bg_saberLoad.obj
 0001:00026280       _WP_SaberSetColor          30027280 f   bg_saberLoad.obj
 0001:000262c0       _WP_SaberLoadParms         300272c0 f   bg_saberLoad.obj
 0001:000264d0       _BG_BLADE_ActivateTrail    300274d0 f   bg_saberLoad.obj
 0001:000264f0       _BG_BLADE_DeactivateTrail  300274f0 f   bg_saberLoad.obj
 0001:00026510       _BG_SI_Activate            30027510 f   bg_saberLoad.obj
 0001:00026560       _BG_SI_Deactivate          30027560 f   bg_saberLoad.obj
 0001:000265b0       _BG_SI_BladeActivate       300275b0 f   bg_saberLoad.obj
 0001:000265f0       _BG_SI_Active              300275f0 f   bg_saberLoad.obj
 0001:00026640       _BG_SI_SetLength           30027640 f   bg_saberLoad.obj
 0001:00026680       _BG_SI_SetDesiredLength    30027680 f   bg_saberLoad.obj
 0001:00026700       _BG_SI_SetLengthGradual    30027700 f   bg_saberLoad.obj
 0001:00026a40       _BG_SI_Length              30027a40 f   bg_saberLoad.obj
 0001:00026ab0       _BG_SI_LengthMax           30027ab0 f   bg_saberLoad.obj
 0001:00026b20       _BG_SI_ActivateTrail       30027b20 f   bg_saberLoad.obj
 0001:00026b70       _BG_SI_DeactivateTrail     30027b70 f   bg_saberLoad.obj
 0001:00026bc0       _BG_SiegeStripTabs         30027bc0 f   bg_saga.obj
 0001:00026c30       _BG_SiegeGetValueGroup     30027c30 f   bg_saga.obj
 0001:000272a0       _BG_SiegeGetPairedValue    300282a0 f   bg_saga.obj
 0001:000277b0       _BG_SiegeTranslateForcePowers 300287b0 f   bg_saga.obj
 0001:00027ae0       _BG_SiegeTranslateGenericTable 30028ae0 f   bg_saga.obj
 0001:00027cd0       _BG_SiegeParseClassFile    30028cd0 f   bg_saga.obj
 0001:000286b0       _BG_SiegeCountBaseClass    300296b0 f   bg_saga.obj
 0001:00028730       _BG_GetUIPortraitFile      30029730 f   bg_saga.obj
 0001:000287c0       _BG_GetUIPortrait          300297c0 f   bg_saga.obj
 0001:00028860       _BG_GetClassOnBaseClass    30029860 f   bg_saga.obj
 0001:000288f0       _BG_SiegeLoadClasses       300298f0 f   bg_saga.obj
 0001:000289e0       _BG_SiegeFindClassByName   300299e0 f   bg_saga.obj
 0001:00028a40       _BG_SiegeParseTeamFile     30029a40 f   bg_saga.obj
 0001:00028cf0       _BG_SiegeLoadTeams         30029cf0 f   bg_saga.obj
 0001:00028db0       _BG_SiegeFindThemeForTeam  30029db0 f   bg_saga.obj
 0001:00028de0       _BG_PrecacheSabersForSiegeTeam 30029de0 f   bg_saga.obj
 0001:00028f30       _BG_SiegeCheckClassLegality 30029f30 f   bg_saga.obj
 0001:00028fe0       _BG_SiegeFindTeamForTheme  30029fe0 f   bg_saga.obj
 0001:00029050       _BG_SiegeSetTeamTheme      3002a050 f   bg_saga.obj
 0001:00029090       _BG_SiegeFindClassIndexByName 3002a090 f   bg_saga.obj
 0001:000290e0       _PM_VehicleImpact          3002a0e0 f   bg_slidemove.obj
 0001:00029900       _PM_GroundSlideOkay        3002a900 f   bg_slidemove.obj
 0001:000299e0       _PM_SlideMove              3002a9e0 f   bg_slidemove.obj
 0001:0002a3c0       _PM_StepSlideMove          3002b3c0 f   bg_slidemove.obj
 0001:0002ab70       _BG_ClearVehicleParseParms 3002bb70 f   bg_vehicleLoad.obj
 0001:0002ab90       _VEH_LoadVehWeapon         3002bb90 f   bg_vehicleLoad.obj
 0001:0002b2b0       _VEH_VehWeaponIndexForName 3002c2b0 f   bg_vehicleLoad.obj
 0001:0002b380       _BG_SetSharedVehicleFunctions 3002c380 f   bg_vehicleLoad.obj
 0001:0002b3f0       _BG_VehicleSetDefaults     3002c3f0 f   bg_vehicleLoad.obj
 0001:0002b410       _BG_VehicleClampData       3002c410 f   bg_vehicleLoad.obj
 0001:0002b4c0       _VEH_LoadVehicle           3002c4c0 f   bg_vehicleLoad.obj
 0001:0002c420       _VEH_VehicleIndexForName   3002d420 f   bg_vehicleLoad.obj
 0001:0002c4f0       _BG_VehWeaponLoadParms     3002d4f0 f   bg_vehicleLoad.obj
 0001:0002c710       _BG_VehicleLoadParms       3002d710 f   bg_vehicleLoad.obj
 0001:0002c970       _BG_VehicleGetIndex        3002d970 f   bg_vehicleLoad.obj
 0001:0002c990       _BG_GetVehicleModelName    3002d990 f   bg_vehicleLoad.obj
 0001:0002c9f0       _BG_GetVehicleSkinName     3002d9f0 f   bg_vehicleLoad.obj
 0001:0002ca80       _AttachRidersGeneric       3002da80 f   bg_vehicleLoad.obj
 0001:0002cca0       _CG_TargetCommand_f        3002dca0 f   cg_consolecmds.obj
 0001:0002d260       _CG_ConsoleCommand         3002e260 f   cg_consolecmds.obj
 0001:0002d2c0       _CG_InitConsoleCommands    3002e2c0 f   cg_consolecmds.obj
 0001:0002d550       _UI_ParseAnimationFile     3002e550 f   cg_draw.obj
 0001:0002d570       _MenuFontToHandle          3002e570 f   cg_draw.obj
 0001:0002d5d0       _CG_Text_Width             3002e5d0 f   cg_draw.obj
 0001:0002d600       _CG_Text_Height            3002e600 f   cg_draw.obj
 0001:0002d630       _CG_Text_Paint             3002e630 f   cg_draw.obj
 0001:0002d710       _CG_Draw3DModel            3002e710 f   cg_draw.obj
 0001:0002d860       _CG_DrawHead               3002e860 f   cg_draw.obj
 0001:0002d8d0       _CG_DrawFlagModel          3002e8d0 f   cg_draw.obj
 0001:0002da60       _DrawAmmo                  3002ea60 f   cg_draw.obj
 0001:0002da80       _CG_DrawHealth             3002ea80 f   cg_draw.obj
 0001:0002dc10       _CG_DrawArmor              3002ec10 f   cg_draw.obj
 0001:0002de80       _CG_DrawForcePower         3002ee80 f   cg_draw.obj
 0001:0002e0d0       _CG_DrawHUD                3002f0d0 f   cg_draw.obj
 0001:0002eb50       _ForcePower_Valid          3002fb50 f   cg_draw.obj
 0001:0002eba0       _CG_DrawForceSelect        3002fba0 f   cg_draw.obj
 0001:0002efa0       _CG_DrawInvenSelect        3002ffa0 f   cg_draw.obj
 0001:0002f520       _CG_CheckTargetVehicle     30030520 f   cg_draw.obj
 0001:0002f6f0       _CG_DrawVehicleShields     300306f0 f   cg_draw.obj
 0001:0002f860       _CG_DrawVehicleAmmo        30030860 f   cg_draw.obj
 0001:0002fa20       _CG_DrawVehicleAmmoUpper   30030a20 f   cg_draw.obj
 0001:0002fbe0       _CG_DrawVehicleAmmoLower   30030be0 f   cg_draw.obj
 0001:0002fda0       _CG_DrawVehicleTurboRecharge 30030da0 f   cg_draw.obj
 0001:0002fea0       _CG_DrawVehicleWeaponsLinked 30030ea0 f   cg_draw.obj
 0001:0002ffb0       _CG_DrawVehicleSpeed       30030fb0 f   cg_draw.obj
 0001:000301a0       _CG_DrawVehicleArmor       300311a0 f   cg_draw.obj
 0001:00030310       _CG_DrawVehicleDamage      30031310 f   cg_draw.obj
 0001:000304c0       _CG_DrawVehicleDamageHUD   300314c0 f   cg_draw.obj
 0001:00030790       _CG_DrawVehicleHud         30031790 f   cg_draw.obj
 0001:00030a20       _CG_DrawTeamBackground     30031a20 f   cg_draw.obj
 0001:00030aa0       _CG_DrawHealthBarRough     30031aa0 f   cg_draw.obj
 0001:00030bc0       _CG_DrawDuelistHealth      30031bc0 f   cg_draw.obj
 0001:00030c90       _CG_DrawRadar              30031c90 f   cg_draw.obj
 0001:00032160       _CG_AddLagometerFrameInfo  30033160 f   cg_draw.obj
 0001:000321a0       _CG_AddLagometerSnapshotInfo 300331a0 f   cg_draw.obj
 0001:00032210       _CG_DrawSiegeMessage       30033210 f   cg_draw.obj
 0001:00032250       _CG_DrawSiegeMessageNonMenu 30033250 f   cg_draw.obj
 0001:000322a0       _CG_CenterPrint            300332a0 f   cg_draw.obj
 0001:00032320       _CG_DrawSiegeInfo          30033320 f   cg_draw.obj
 0001:000326d0       _CG_DrawHealthBar          300336d0 f   cg_draw.obj
 0001:00032880       _CG_DrawHaqrBar            30033880 f   cg_draw.obj
 0001:00032a00       _CG_DrawGenericTimerBar    30033a00 f   cg_draw.obj
 0001:00032b70       _CG_LerpCrosshairPos       30033b70 f   cg_draw.obj
 0001:00032cd0       _CG_WorldCoordToScreenCoordFloat 30033cd0 f   cg_draw.obj
 0001:00032de0       _CG_WorldCoordToScreenCoord 30033de0 f   cg_draw.obj
 0001:00032e20       _CG_SaberClashFlare        30033e20 f   cg_draw.obj
 0001:00032fd0       _CG_DottedLine             30033fd0 f   cg_draw.obj
 0001:000330b0       _CG_BracketEntity          300340b0 f   cg_draw.obj
 0001:00033770       _CG_InFighter              30034770 f   cg_draw.obj
 0001:000337e0       _CG_InATST                 300347e0 f   cg_draw.obj
 0001:00033850       _CG_DrawBracketedEntities  30034850 f   cg_draw.obj
 0001:000338b0       _CG_CalcVehicleMuzzlePoint 300348b0 f   cg_draw.obj
 0001:00033c70       _CG_CalcEWebMuzzlePoint    30034c70 f   cg_draw.obj
 0001:00033ef0       _CG_SanitizeString         30034ef0 f   cg_draw.obj
 0001:00033fb0       _CG_DrawTimedMenus         30034fb0 f   cg_draw.obj
 0001:00034010       _CG_DrawFlagStatus         30035010 f   cg_draw.obj
 0001:00034190       _CG_DrawJetpackFuel        30035190 f   cg_draw.obj
 0001:000342f0       _CG_DrawEWebHealth         300352f0 f   cg_draw.obj
 0001:00034490       _CG_DrawCloakFuel          30035490 f   cg_draw.obj
 0001:00034600       _CG_ChatBox_StrInsert      30035600 f   cg_draw.obj
 0001:000346a0       _CG_ChatBox_AddString      300356a0 f   cg_draw.obj
 0001:00034880       _CG_ChatBox_ArrayInsert    30035880 f   cg_draw.obj
 0001:000348e0       _CG_DrawActive             300358e0 f   cg_draw.obj
 0001:0003b770       _CG_DrawRect               3003c770 f   cg_drawtools.obj
 0001:0003b7d0       _CG_GetColorForHealth      3003c7d0 f   cg_drawtools.obj
 0001:0003b8d0       _CG_DrawSides              3003c8d0 f   cg_drawtools.obj
 0001:0003b940       _CG_DrawTopBottom          3003c940 f   cg_drawtools.obj
 0001:0003b9b0       _CG_FillRect2              3003c9b0 f   cg_drawtools.obj
 0001:0003ba00       _CG_FillRect               3003ca00 f   cg_drawtools.obj
 0001:0003ba50       _CG_DrawPic                3003ca50 f   cg_drawtools.obj
 0001:0003ba80       _CG_DrawRotatePic          3003ca80 f   cg_drawtools.obj
 0001:0003bac0       _CG_DrawRotatePic2         3003cac0 f   cg_drawtools.obj
 0001:0003bb00       _CG_DrawChar               3003cb00 f   cg_drawtools.obj
 0001:0003bbb0       _CG_DrawStringExt          3003cbb0 f   cg_drawtools.obj
 0001:0003bde0       _CG_DrawBigString          3003cde0 f   cg_drawtools.obj
 0001:0003be30       _CG_DrawBigStringColor     3003ce30 f   cg_drawtools.obj
 0001:0003be60       _CG_DrawSmallString        3003ce60 f   cg_drawtools.obj
 0001:0003beb0       _CG_DrawSmallStringColor   3003ceb0 f   cg_drawtools.obj
 0001:0003bee0       _CG_DrawStrlen             3003cee0 f   cg_drawtools.obj
 0001:0003bf70       _CG_TileClear              3003cf70 f   cg_drawtools.obj
 0001:0003c100       _CG_FadeColor              3003d100 f   cg_drawtools.obj
 0001:0003c190       _CG_ColorForGivenHealth    3003d190 f   cg_drawtools.obj
 0001:0003c220       _CG_ColorForHealth         3003d220 f   cg_drawtools.obj
 0001:0003c2c0       _CG_DrawNumField           3003d2c0 f   cg_drawtools.obj
 0001:0003c670       _UI_DrawProportionalString 3003d670 f   cg_drawtools.obj
 0001:0003c750       _UI_DrawScaledProportionalString 3003d750 f   cg_drawtools.obj
 0001:0003c810       _CG_BubbleTrail            3003d810 f   cg_effects.obj
 0001:0003cac0       _CG_SmokePuff              3003dac0 f   cg_effects.obj
 0001:0003ccc0       _CGDEBUG_SaberColor        3003dcc0 f   cg_effects.obj
 0001:0003cd30       _CG_TestLine               3003dd30 f   cg_effects.obj
 0001:0003ceb0       _CG_ThrowChunk             3003deb0 f   cg_effects.obj
 0001:0003d050       _CG_InitGlass              3003e050 f   cg_effects.obj
 0001:0003d100       _Vector2Set                3003e100 f   cg_effects.obj
 0001:0003d120       _CG_DoGlass                3003e120 f   cg_effects.obj
 0001:0003e280       _CG_GlassShatter           3003f280 f   cg_effects.obj
 0001:0003e2f0       _CG_GlassShatter_Old       3003f2f0 f   cg_effects.obj
 0001:0003e640       _CG_CreateDebris           3003f640 f   cg_effects.obj
 0001:0003eb10       _CG_ExplosionEffects       3003fb10 f   cg_effects.obj
 0001:0003eb90       _CG_MiscModelExplosion     3003fb90 f   cg_effects.obj
 0001:0003ee20       _CG_Chunks                 3003fe20 f   cg_effects.obj
 0001:0003f5c0       _CG_ScorePlum              300405c0 f   cg_effects.obj
 0001:0003f750       _CG_MakeExplosion          30040750 f   cg_effects.obj
 0001:0003fa60       _CG_SurfaceExplosion       30040a60 f   cg_effects.obj
 0001:0003ffc0       _CG_Bleed                  30040fc0 f   cg_effects.obj
 0001:000400a0       _CG_LaunchGib              300410a0 f   cg_effects.obj
 0001:000401e0       _CG_PositionEntityOnTag    300411e0 f   cg_ents.obj
 0001:000402f0       _CG_PositionRotatedEntityOnTag 300412f0 f   cg_ents.obj
 0001:00040410       _CG_SetEntitySoundPosition 30041410 f   cg_ents.obj
 0001:000404a0       _CG_S_AddLoopingSound      300414a0 f   cg_ents.obj
 0001:00040600       _CG_S_AddRealLoopingSound  30041600 f   cg_ents.obj
 0001:00040620       _CG_S_StopLoopingSound     30041620 f   cg_ents.obj
 0001:00040700       _CG_S_UpdateLoopingSounds  30041700 f   cg_ents.obj
 0001:00040800       _FX_AddOrientedLine        30041800 f   cg_ents.obj
 0001:000409b0       _FX_DrawPortableShield     300419b0 f   cg_ents.obj
 0001:00040bf0       _CG_Special                30041bf0 f   cg_ents.obj
 0001:00040c30       _CG_SetGhoul2Info          30041c30 f   cg_ents.obj
 0001:00040cd0       _CG_CreateBBRefEnts        30041cd0 f   cg_ents.obj
 0001:00040ce0       _G2_BoltToGhoul2Model      30041ce0 f   cg_ents.obj
 0001:00040e00       _ScaleModelAxis            30041e00 f   cg_ents.obj
 0001:00040f70       _CG_Disintegration         30041f70 f   cg_ents.obj
 0001:000413b0       _CG_AddRadarEnt            300423b0 f   cg_ents.obj
 0001:000413f0       _CG_AddBracketedEnt        300423f0 f   cg_ents.obj
 0001:00041430       _CG_GreyItem               30042430 f   cg_ents.obj
 0001:00041480       _CG_CreateDistortionTrailPart 30042480 f   cg_ents.obj
 0001:000416b0       _CG_PlayDoorLoopSound      300426b0 f   cg_ents.obj
 0001:000417b0       _CG_PlayDoorSound          300427b0 f   cg_ents.obj
 0001:00041830       _CG_Beam                   30042830 f   cg_ents.obj
 0001:00041900       _CG_AdjustPositionForMover 30042900 f   cg_ents.obj
 0001:00041a40       _CG_CalcEntityLerpPositions 30042a40 f   cg_ents.obj
 0001:00041d70       _CG_ManualEntityRender     30042d70 f   cg_ents.obj
 0001:00047270       _CG_AddPacketEntities      30048270 f   cg_ents.obj
 0001:00047650       _CG_ROFF_NotetrackCallback 30048650 f   cg_ents.obj
 0001:00047d80       _CG_Cube                   30048d80 f   cg_ents.obj
 0001:00048000       _CG_PlaceString            30049000 f   cg_event.obj
 0001:00048210       _CG_ToggleBinoculars       30049210 f   cg_event.obj
 0001:000482e0       _CG_LocalTimingBar         300492e0 f   cg_event.obj
 0001:00048330       _CG_PainEvent              30049330 f   cg_event.obj
 0001:000483d0       _CG_ReattachLimb           300493d0 f   cg_event.obj
 0001:00048460       _CG_TeamName               30049460 f   cg_event.obj
 0001:000484a0       _CG_PrintCTFMessage        300494a0 f   cg_event.obj
 0001:00048750       _CG_GetCTFMessageEvent     30049750 f   cg_event.obj
 0001:000487d0       _DoFall                    300497d0 f   cg_event.obj
 0001:000489b0       _CG_InClientBitflags       300499b0 f   cg_event.obj
 0001:00048a40       _CG_TryPlayCustomSound     30049a40 f   cg_event.obj
 0001:00048a80       _CG_G2MarkEvent            30049a80 f   cg_event.obj
 0001:00048d90       _CG_CalcVehMuzzle          30049d90 f   cg_event.obj
 0001:00049020       _CG_VehMuzzleFireFX        3004a020 f   cg_event.obj
 0001:000491b0       _CG_GetStringForVoiceSound 3004a1b0 f   cg_event.obj
 0001:00049220       _CG_EntityEvent            3004a220 f   cg_event.obj
 0001:0004f210       _CG_CheckEvents            30050210 f   cg_event.obj
 0001:0004f2f0       _CG_LoadingString          300502f0 f   cg_info.obj
 0001:0004f310       _CG_LoadingItem            30050310 f   cg_info.obj
 0001:0004f390       _CG_LoadingClient          30050390 f   cg_info.obj
 0001:0004f3f0       _CG_DrawInformation        300503f0 f   cg_info.obj
 0001:000501e0       _CG_LoadBar                300511e0 f   cg_info.obj
 0001:00050350       _CG_ClearLightStyles       30051350 f   cg_light.obj
 0001:000503a0       _CG_RunLightStyles         300513a0 f   cg_light.obj
 0001:000504b0       _CG_SetLightstyle          300514b0 f   cg_light.obj
 0001:00050580       _CG_InitLocalEntities      30051580 f   cg_localents.obj
 0001:00050600       _CG_FreeLocalEntity        30051600 f   cg_localents.obj
 0001:00050650       _CG_AllocLocalEntity       30051650 f   cg_localents.obj
 0001:000506d0       _CG_BloodTrail             300516d0 f   cg_localents.obj
 0001:00050790       _CG_FragmentBounceMark     30051790 f   cg_localents.obj
 0001:000507e0       _CG_FragmentBounceSound    300517e0 f   cg_localents.obj
 0001:000508a0       _CG_ReflectVelocity        300518a0 f   cg_localents.obj
 0001:00050a20       _CG_AddFragment            30051a20 f   cg_localents.obj
 0001:00050cf0       _CG_AddFadeRGB             30051cf0 f   cg_localents.obj
 0001:00050d90       _CG_AddRefEntity           30051d90 f   cg_localents.obj
 0001:00050dd0       _CG_AddScorePlum           30051dd0 f   cg_localents.obj
 0001:00051240       _CG_AddOLine               30052240 f   cg_localents.obj
 0001:00051390       _CG_AddLine                30052390 f   cg_localents.obj
 0001:000513c0       _CG_AddLocalEntities       300523c0 f   cg_localents.obj
 0001:00051de0       _CG_NoUseableForce         30052de0 f   cg_main.obj
 0001:00051e40       _vmMain                    30052e40 f   cg_main.obj
 0001:00052a80       _CG_MiscEnt                30053a80 f   cg_main.obj
 0001:00052cc0       _CG_DrawMiscEnts           30053cc0 f   cg_main.obj
 0001:00052df0       _CG_RegisterCvars          30053df0 f   cg_main.obj
 0001:00053140       _CG_UpdateCvars            30054140 f   cg_main.obj
 0001:00053270       _CG_CrosshairPlayer        30054270 f   cg_main.obj
 0001:000532a0       _CG_LastAttacker           300542a0 f   cg_main.obj
 0001:000532c0       _CG_Printf                 300542c0 f   cg_main.obj
 0001:00053310       _CG_Error                  30054310 f   cg_main.obj
 0001:00053360       _Com_Error                 30054360 f   cg_main.obj
 0001:000533b0       _Com_Printf                300543b0 f   cg_main.obj
 0001:00053400       _CG_Argv                   30054400 f   cg_main.obj
 0001:00053420       _BG_GetTime                30054420 f   cg_main.obj
 0001:00053430       _CG_ParseWeatherEffect     30054430 f   cg_main.obj
 0001:00053460       _CG_ParseSiegeState        30054460 f   cg_main.obj
 0001:000535a0       _CG_GetStringEdString      300545a0 f   cg_main.obj
 0001:00053600       _CG_SiegeCountCvars        30054600 f   cg_main.obj
 0001:000538e0       _CG_BuildSpectatorString   300548e0 f   cg_main.obj
 0001:00053990       _CG_ConfigString           30054990 f   cg_main.obj
 0001:000539d0       _CG_StartMusic             300549d0 f   cg_main.obj
 0001:00053a40       _CG_GetMenuBuffer          30054a40 f   cg_main.obj
 0001:00053af0       _CG_Asset_Parse            30054af0 f   cg_main.obj
 0001:00054060       _CG_ParseMenu              30055060 f   cg_main.obj
 0001:00054150       _CG_Load_Menu              30055150 f   cg_main.obj
 0001:000541e0       _CG_SetScoreSelection      300551e0 f   cg_main.obj
 0001:000542f0       _CG_Text_PaintWithCursor   300552f0 f   cg_main.obj
 0001:00054320       _CG_LoadMenus              30055320 f   cg_main.obj
 0001:00054480       _CG_LoadHudMenu            30055480 f   cg_main.obj
 0001:00054d80       _CG_AssetCache             30055d80 f   cg_main.obj
 0001:00054ec0       _CG_Init_CG                30055ec0 f   cg_main.obj
 0001:00054ee0       _CG_Init_CGents            30055ee0 f   cg_main.obj
 0001:00054f00       _CG_InitItems              30055f00 f   cg_main.obj
 0001:00054f20       _CG_TransitionPermanent    30055f20 f   cg_main.obj
 0001:00055030       _CG_StrPool_Alloc          30056030 f   cg_main.obj
 0001:00055090       _CG_StrPool_Reset          30056090 f   cg_main.obj
 0001:000550a0       _CG_NewString              300560a0 f   cg_main.obj
 0001:00055160       _CG_CreateSkyPortalFromSpawnEnt 30056160 f   cg_main.obj
 0001:00055180       _CG_CreateSkyOriFromSpawnEnt 30056180 f   cg_main.obj
 0001:000551c0       _CG_CreateBrushEntData     300561c0 f   cg_main.obj
 0001:000551f0       _CG_CreateWeatherZoneFromSpawnEnt 300561f0 f   cg_main.obj
 0001:00055220       _CG_CreateModelFromSpawnEnt 30056220 f   cg_main.obj
 0001:000554a0       _CG_AddSpawnVarToken       300564a0 f   cg_main.obj
 0001:00055520       _CG_ParseSpawnVars         30056520 f   cg_main.obj
 0001:00055660       _CG_SpawnCGameEntFromVars  30056660 f   cg_main.obj
 0001:000557c0       _CG_SpawnCGameOnlyEnts     300567c0 f   cg_main.obj
 0001:00055800       _CG_Init                   30056800 f   cg_main.obj
 0001:00058450       _CG_GetLocationString      30059450 f   cg_main.obj
 0001:00058490       _CG_DestroyAllGhoul2       30059490 f   cg_main.obj
 0001:00058570       _CG_Shutdown               30059570 f   cg_main.obj
 0001:000585b0       _CG_NextForcePower_f       300595b0 f   cg_main.obj
 0001:00058690       _CG_PrevForcePower_f       30059690 f   cg_main.obj
 0001:00058770       _CG_NextInventory_f        30059770 f   cg_main.obj
 0001:00058810       _CG_PrevInventory_f        30059810 f   cg_main.obj
 0001:000588b0       _CG_InitMarkPolys          300598b0 f   cg_marks.obj
 0001:00058930       _CG_FreeMarkPoly           30059930 f   cg_marks.obj
 0001:00058980       _CG_AllocMark              30059980 f   cg_marks.obj
 0001:00058a20       _CG_ImpactMark             30059a20 f   cg_marks.obj
 0001:00058f20       _CG_AddMarks               30059f20 f   cg_marks.obj
 0001:000591c0       _CG_ClearParticles         3005a1c0 f   cg_marks.obj
 0001:00059270       _CG_AddParticleToScene     3005a270 f   cg_marks.obj
 0001:0005b850       _CG_AddParticles           3005c850 f   cg_marks.obj
 0001:0005bc30       _CG_ParticleSnowFlurry     3005cc30 f   cg_marks.obj
 0001:0005bee0       _CG_ParticleSnow           3005cee0 f   cg_marks.obj
 0001:0005c130       _CG_ParticleBubble         3005d130 f   cg_marks.obj
 0001:0005c3d0       _CG_ParticleSmoke          3005d3d0 f   cg_marks.obj
 0001:0005c590       _CG_ParticleBulletDebris   3005d590 f   cg_marks.obj
 0001:0005c6f0       _CG_ParticleExplosion      3005d6f0 f   cg_marks.obj
 0001:0005c8d0       _CG_AddParticleShrapnel    3005d8d0 f   cg_marks.obj
 0001:0005c8e0       _CG_NewParticleArea        3005d8e0 f   cg_marks.obj
 0001:0005ca80       _CG_SnowLink               3005da80 f   cg_marks.obj
 0001:0005caf0       _CG_ParticleImpactSmokePuff 3005daf0 f   cg_marks.obj
 0001:0005ccb0       _CG_Particle_Bleed         3005dcb0 f   cg_marks.obj
 0001:0005ce50       _CG_Particle_OilParticle   3005de50 f   cg_marks.obj
 0001:0005d010       _CG_Particle_OilSlick      3005e010 f   cg_marks.obj
 0001:0005d250       _CG_OilSlickRemove         3005e250 f   cg_marks.obj
 0001:0005d2e0       _ValidBloodPool            3005e2e0 f   cg_marks.obj
 0001:0005d4d0       _CG_BloodPool              3005e4d0 f   cg_marks.obj
 0001:0005d6a0       _CG_ParticleBloodCloud     3005e6a0 f   cg_marks.obj
 0001:0005d900       _CG_ParticleSparks         3005e900 f   cg_marks.obj
 0001:0005db80       _CG_ParticleDust           3005eb80 f   cg_marks.obj
 0001:0005df50       _CG_ParticleMisc           3005ef50 f   cg_marks.obj
 0001:0005e070       _CG_GetSelectedPlayer      3005f070 f   cg_newDraw.obj
 0001:0005e0a0       _CG_StatusHandle           3005f0a0 f   cg_newDraw.obj
 0001:0005e150       _CG_GetValue               3005f150 f   cg_newDraw.obj
 0001:0005e2e0       _CG_OtherTeamHasFlag       3005f2e0 f   cg_newDraw.obj
 0001:0005e340       _CG_YourTeamHasFlag        3005f340 f   cg_newDraw.obj
 0001:0005e3a0       _CG_OwnerDrawVisible       3005f3a0 f   cg_newDraw.obj
 0001:0005e590       _CG_GetKillerText          3005f590 f   cg_newDraw.obj
 0001:0005e5d0       _CG_GetGameStatusText      3005f5d0 f   cg_newDraw.obj
 0001:0005e720       _CG_GameTypeString         3005f720 f   cg_newDraw.obj
 0001:0005e7a0       _CG_DrawNewTeamInfo        3005f7a0 f   cg_newDraw.obj
 0001:0005ed80       _CG_DrawTeamSpectators     3005fd80 f   cg_newDraw.obj
 0001:0005f000       _CG_DrawMedal              30060000 f   cg_newDraw.obj
 0001:0005f240       _CG_OwnerDraw              30060240 f   cg_newDraw.obj
 0001:0005f250       _CG_MouseEvent             30060250 f   cg_newDraw.obj
 0001:0005f380       _CG_HideTeamMenu           30060380 f   cg_newDraw.obj
 0001:0005f3a0       _CG_ShowTeamMenu           300603a0 f   cg_newDraw.obj
 0001:0005f3c0       _CG_EventHandling          300603c0 f   cg_newDraw.obj
 0001:0005f3e0       _CG_KeyEvent               300603e0 f   cg_newDraw.obj
 0001:0005f490       _CG_ClientNumFromName      30060490 f   cg_newDraw.obj
 0001:0005f500       _CG_ShowResponseHead       30060500 f   cg_newDraw.obj
 0001:0005f530       _CG_RunMenuScript          30060530 f   cg_newDraw.obj
 0001:0005f540       _CG_DeferMenuScript        30060540 f   cg_newDraw.obj
 0001:0005f550       _CG_GetTeamColor           30060550 f   cg_newDraw.obj
 0001:0005f5f0       _CG_CustomSound            300605f0 f   cg_players.obj
 0001:0005f980       _CG_ParseSurfsFile         30060980 f   cg_players.obj
 0001:0005fc30       _CG_G2SkelForModel         30060c30 f   cg_players.obj
 0001:0005fca0       _CG_G2EvIndexForModel      30060ca0 f   cg_players.obj
 0001:0005fd20       _CG_LoadCISounds           30060d20 f   cg_players.obj
 0001:000604a0       _CG_LoadClientInfo         300614a0 f   cg_players.obj
 0001:00061150       _CG_NewClientInfo          30062150 f   cg_players.obj
 0001:00062ba0       _CG_ActualLoadDeferredPlayers 30063ba0 f   cg_players.obj
 0001:00062c00       _CG_LoadDeferredPlayers    30063c00 f   cg_players.obj
 0001:00062c10       _CG_PlayerAnimEventDo      30063c10 f   cg_players.obj
 0001:00063850       _CG_PlayerAnimEvents       30064850 f   cg_players.obj
 0001:00063dd0       _CG_TriggerAnimSounds      30064dd0 f   cg_players.obj
 0001:00063f80       _CG_InRoll                 30064f80 f   cg_players.obj
 0001:00064030       _CG_InRollAnim             30065030 f   cg_players.obj
 0001:00064070       _CG_G2SetBoneAngles        30065070 f   cg_players.obj
 0001:000640b0       _CG_Rag_Trace              300650b0 f   cg_players.obj
 0001:00064110       _CG_RagDoll                30065110 f   cg_players.obj
 0001:000655a0       _CG_G2ServerBoneAngles     300665a0 f   cg_players.obj
 0001:00065750       _CG_G2PlayerHeadAnims      30066750 f   cg_players.obj
 0001:00065d70       _CG_AddRefEntityWithPowerups 30066d70 f   cg_players.obj
 0001:00065dd0       _CG_PlayerShieldHit        30066dd0 f   cg_players.obj
 0001:00065ea0       _CG_DrawPlayerShield       30066ea0 f   cg_players.obj
 0001:00066070       _CG_PlayerHitFX            30067070 f   cg_players.obj
 0001:000660d0       _CG_LightVerts             300670d0 f   cg_players.obj
 0001:00066240       _CG_DoSaber                30067240 f   cg_players.obj
 0001:000667b0       _CG_GetTagWorldPosition    300677b0 f   cg_players.obj
 0001:000668c0       _CG_CreateSaberMarks       300678c0 f   cg_players.obj
 0001:00067260       _CG_G2TraceCollide         30068260 f   cg_players.obj
 0001:000674a0       _CG_G2SaberEffects         300684a0 f   cg_players.obj
 0001:000675f0       _CG_AddGhoul2Mark          300685f0 f   cg_players.obj
 0001:000677a0       _CG_SaberCompWork          300687a0 f   cg_players.obj
 0001:00067db0       _CG_AddSaberBlade          30068db0 f   cg_players.obj
 0001:00069750       _CG_IsMindTricked          3006a750 f   cg_players.obj
 0001:000697e0       _CG_DrawPlayerSphere       3006a7e0 f   cg_players.obj
 0001:00069c40       _CG_AddLightningBeam       3006ac40 f   cg_players.obj
 0001:0006a020       _CG_AddRandomLightning     3006b020 f   cg_players.obj
 0001:0006a1c0       _CG_ThereIsAMaster         3006b1c0 f   cg_players.obj
 0001:0006a210       _CG_HandleAppendedSkin     3006b210 f   cg_players.obj
 0001:0006a340       _CG_CacheG2AnimInfo        3006b340 f   cg_players.obj
 0001:0006a500       _CG_G2AnimEntModelLoad     3006b500 f   cg_players.obj
 0001:0006aeb0       _CG_VehicleShouldDrawShields 3006beb0 f   cg_players.obj
 0001:0006af00       _CG_VehicleAttachDroidUnit 3006bf00 f   cg_players.obj
 0001:0006b050       _CG_G2Animated             3006c050 f   cg_players.obj
 0001:0006b620       _CG_CreateNPCClient        3006c620 f   cg_players.obj
 0001:0006b640       _CG_DestroyNPCClient       3006c640 f   cg_players.obj
 0001:0006b660       _CG_InitJetpackGhoul2      3006c660 f   cg_players.obj
 0001:0006b6d0       _CG_CleanJetpackGhoul2     3006c6d0 f   cg_players.obj
 0001:0006b700       _CG_RadiusForCent          3006c700 f   cg_players.obj
 0001:0006b790       _CG_CheckThirdPersonAlpha  3006c790 f   cg_players.obj
 0001:0006bac0       _CG_Player                 3006cac0 f   cg_players.obj
 0001:00075880       _CG_ResetPlayerEntity      30076880 f   cg_players.obj
 0001:00075ef0       _CG_CheckAmmo              30076ef0 f   cg_playerstate.obj
 0001:00075f00       _CG_DamageFeedback         30076f00 f   cg_playerstate.obj
 0001:00076210       _CG_Respawn                30077210 f   cg_playerstate.obj
 0001:00076240       _CG_CheckPlayerstateEvents 30077240 f   cg_playerstate.obj
 0001:000763d0       _CG_CheckChangedPredictableEvents 300773d0 f   cg_playerstate.obj
 0001:000764e0       _CG_CheckLocalSounds       300774e0 f   cg_playerstate.obj
 0001:00076800       _CG_TransitionPlayerState  30077800 f   cg_playerstate.obj
 0001:00076930       _CG_BuildSolidList         30077930 f   cg_predict.obj
 0001:00076c30       _CG_Trace                  30077c30 f   cg_predict.obj
 0001:00077330       _CG_G2Trace                30078330 f   cg_predict.obj
 0001:000773c0       _CG_PointContents          300783c0 f   cg_predict.obj
 0001:00077480       _CG_PmoveClientPointerUpdate 30078480 f   cg_predict.obj
 0001:00077510       _CG_UsingEWeb              30078510 f   cg_predict.obj
 0001:00077550       _CG_PredictPlayerState     30078550 f   cg_predict.obj
 0001:00079210       _CG_PrecacheSiegeObjectiveAssetsForTeam 3007a210 f   cg_saga.obj
 0001:00079420       _CG_PrecachePlayersForSiegeTeam 3007a420 f   cg_saga.obj
 0001:00079560       _CG_InitSiegeMode          3007a560 f   cg_saga.obj
 0001:00079dc0       _CG_ParseSiegeObjectiveStatus 3007adc0 f   cg_saga.obj
 0001:0007a1b0       _CG_SiegeRoundOver         3007b1b0 f   cg_saga.obj
 0001:0007a390       _CG_SiegeGetObjectiveDescription 3007b390 f   cg_saga.obj
 0001:0007a440       _CG_SiegeGetObjectiveFinal 3007b440 f   cg_saga.obj
 0001:0007a500       _CG_SiegeBriefingDisplay   3007b500 f   cg_saga.obj
 0001:0007ab70       _CG_SiegeObjectiveCompleted 3007bb70 f   cg_saga.obj
 0001:0007ada0       _CG_ParseSiegeExtendedDataEntry 3007bda0 f   cg_saga.obj
 0001:0007b040       _CG_ParseSiegeExtendedData 3007c040 f   cg_saga.obj
 0001:0007b090       _CG_SetSiegeTimerCvar      3007c090 f   cg_saga.obj
 0001:0007b110       _CG_GetClassCount          3007c110 f   cg_scoreboard.obj
 0001:0007b1b0       _CG_GetTeamNonScoreCount   3007c1b0 f   cg_scoreboard.obj
 0001:0007b230       _CG_GetTeamCount           3007c230 f   cg_scoreboard.obj
 0001:0007b2b0       _CG_DrawOldScoreboard      3007c2b0 f   cg_scoreboard.obj
 0001:0007c710       _CG_ParseServerinfo        3007d710 f   cg_servercmds.obj
 0001:0007cbf0       _CG_SetConfigValues        3007dbf0 f   cg_servercmds.obj
 0001:0007cdb0       _CG_ShaderStateChanged     3007ddb0 f   cg_servercmds.obj
 0001:0007cf50       _SetCustomSoundForType     3007df50 f   cg_servercmds.obj
 0001:0007d000       _CG_PrecacheNPCSounds      3007e000 f   cg_servercmds.obj
 0001:0007d210       _CG_HandleNPCSounds        3007e210 f   cg_servercmds.obj
 0001:0007d750       _SetDuelistHealthsFromConfigString 3007e750 f   cg_servercmds.obj
 0001:0007d8b0       _CG_KillCEntityG2          3007e8b0 f   cg_servercmds.obj
 0001:0007db00       _CG_KillCEntityInstances   3007eb00 f   cg_servercmds.obj
 0001:0007dc90       _CG_CheckSVStringEdRef     3007ec90 f   cg_servercmds.obj
 0001:0007ded0       _CG_ExecuteNewServerCommands 3007eed0 f   cg_servercmds.obj
 0001:0007fb10       _CG_SetInitialSnapshot     30080b10 f   cg_snapshot.obj
 0001:0007fdd0       _CG_ProcessSnapshots       30080dd0 f   cg_snapshot.obj
 0001:00080380       _strap_G2API_GetBoltMatrix 30081380 f   cg_strap.obj
 0001:000803c0       _strap_G2API_GetBoltMatrix_NoReconstruct 300813c0 f   cg_strap.obj
 0001:00080400       _strap_G2API_GetBoltMatrix_NoRecNoRot 30081400 f   cg_strap.obj
 0001:00080440       _strap_G2API_SetBoneAngles 30081440 f   cg_strap.obj
 0001:00080480       _strap_G2API_SetBoneAnim   30081480 f   cg_strap.obj
 0001:000804c0       _strap_G2API_GetBoneAnim   300814c0 f   cg_strap.obj
 0001:00080500       _strap_G2API_SetRagDoll    30081500 f   cg_strap.obj
 0001:00080520       _strap_G2API_AnimateG2Models 30081520 f   cg_strap.obj
 0001:00080540       _strap_G2API_SetBoneIKState 30081540 f   cg_strap.obj
 0001:00080570       _strap_G2API_IKMove        30081570 f   cg_strap.obj
 0001:00080590       _strap_TrueMalloc          30081590 f   cg_strap.obj
 0001:000805b0       _strap_TrueFree            300815b0 f   cg_strap.obj
 0001:000805d0       _dllEntry                  300815d0 f   cg_syscalls.obj
 0001:000805e0       _PASSFLOAT                 300815e0 f   cg_syscalls.obj
 0001:00080600       _trap_Print                30081600 f   cg_syscalls.obj
 0001:00080620       _trap_Error                30081620 f   cg_syscalls.obj
 0001:00080640       _trap_Milliseconds         30081640 f   cg_syscalls.obj
 0001:00080650       _trap_PrecisionTimer_Start 30081650 f   cg_syscalls.obj
 0001:00080670       _trap_PrecisionTimer_End   30081670 f   cg_syscalls.obj
 0001:00080690       _trap_Cvar_Register        30081690 f   cg_syscalls.obj
 0001:000806b0       _trap_Cvar_Update          300816b0 f   cg_syscalls.obj
 0001:000806d0       _trap_Cvar_Set             300816d0 f   cg_syscalls.obj
 0001:000806f0       _trap_Cvar_VariableStringBuffer 300816f0 f   cg_syscalls.obj
 0001:00080710       _trap_Cvar_GetHiddenVarValue 30081710 f   cg_syscalls.obj
 0001:00080730       _trap_Argc                 30081730 f   cg_syscalls.obj
 0001:00080740       _trap_Argv                 30081740 f   cg_syscalls.obj
 0001:00080760       _trap_Args                 30081760 f   cg_syscalls.obj
 0001:00080780       _trap_FS_FOpenFile         30081780 f   cg_syscalls.obj
 0001:000807a0       _trap_FS_Read              300817a0 f   cg_syscalls.obj
 0001:000807c0       _trap_FS_Write             300817c0 f   cg_syscalls.obj
 0001:000807e0       _trap_FS_FCloseFile        300817e0 f   cg_syscalls.obj
 0001:00080800       _trap_FS_GetFileList       30081800 f   cg_syscalls.obj
 0001:00080820       _trap_SendConsoleCommand   30081820 f   cg_syscalls.obj
 0001:00080840       _trap_AddCommand           30081840 f   cg_syscalls.obj
 0001:00080860       _trap_RemoveCommand        30081860 f   cg_syscalls.obj
 0001:00080880       _trap_SendClientCommand    30081880 f   cg_syscalls.obj
 0001:000808a0       _trap_UpdateScreen         300818a0 f   cg_syscalls.obj
 0001:000808b0       _trap_CM_LoadMap           300818b0 f   cg_syscalls.obj
 0001:000808d0       _trap_CM_NumInlineModels   300818d0 f   cg_syscalls.obj
 0001:000808e0       _trap_CM_InlineModel       300818e0 f   cg_syscalls.obj
 0001:00080900       _trap_CM_TempBoxModel      30081900 f   cg_syscalls.obj
 0001:00080920       _trap_CM_TempCapsuleModel  30081920 f   cg_syscalls.obj
 0001:00080940       _trap_CM_PointContents     30081940 f   cg_syscalls.obj
 0001:00080960       _trap_CM_TransformedPointContents 30081960 f   cg_syscalls.obj
 0001:00080980       _trap_CM_BoxTrace          30081980 f   cg_syscalls.obj
 0001:000809b0       _trap_CM_CapsuleTrace      300819b0 f   cg_syscalls.obj
 0001:000809e0       _trap_CM_TransformedBoxTrace 300819e0 f   cg_syscalls.obj
 0001:00080a20       _trap_CM_TransformedCapsuleTrace 30081a20 f   cg_syscalls.obj
 0001:00080a60       _trap_CM_MarkFragments     30081a60 f   cg_syscalls.obj
 0001:00080a90       _trap_S_GetVoiceVolume     30081a90 f   cg_syscalls.obj
 0001:00080ab0       _trap_S_MuteSound          30081ab0 f   cg_syscalls.obj
 0001:00080ad0       _trap_S_StartSound         30081ad0 f   cg_syscalls.obj
 0001:00080af0       _trap_S_StartLocalSound    30081af0 f   cg_syscalls.obj
 0001:00080b10       _trap_S_ClearLoopingSounds 30081b10 f   cg_syscalls.obj
 0001:00080b20       _trap_S_AddLoopingSound    30081b20 f   cg_syscalls.obj
 0001:00080b40       _trap_S_UpdateEntityPosition 30081b40 f   cg_syscalls.obj
 0001:00080b60       _trap_S_AddRealLoopingSound 30081b60 f   cg_syscalls.obj
 0001:00080b80       _trap_S_StopLoopingSound   30081b80 f   cg_syscalls.obj
 0001:00080ba0       _trap_S_Respatialize       30081ba0 f   cg_syscalls.obj
 0001:00080bc0       _trap_S_ShutUp             30081bc0 f   cg_syscalls.obj
 0001:00080be0       _trap_S_RegisterSound      30081be0 f   cg_syscalls.obj
 0001:00080c00       _trap_S_StartBackgroundTrack 30081c00 f   cg_syscalls.obj
 0001:00080c20       _trap_S_UpdateAmbientSet   30081c20 f   cg_syscalls.obj
 0001:00080c40       _trap_AS_ParseSets         30081c40 f   cg_syscalls.obj
 0001:00080c50       _trap_AS_AddPrecacheEntry  30081c50 f   cg_syscalls.obj
 0001:00080c70       _trap_S_AddLocalSet        30081c70 f   cg_syscalls.obj
 0001:00080ca0       _trap_AS_GetBModelSound    30081ca0 f   cg_syscalls.obj
 0001:00080cc0       _trap_R_LoadWorldMap       30081cc0 f   cg_syscalls.obj
 0001:00080ce0       _trap_R_RegisterModel      30081ce0 f   cg_syscalls.obj
 0001:00080d00       _trap_R_RegisterSkin       30081d00 f   cg_syscalls.obj
 0001:00080d20       _trap_R_RegisterShader     30081d20 f   cg_syscalls.obj
 0001:00080d40       _trap_R_RegisterShaderNoMip 30081d40 f   cg_syscalls.obj
 0001:00080d60       _trap_R_RegisterFont       30081d60 f   cg_syscalls.obj
 0001:00080d80       _trap_R_Font_StrLenPixels  30081d80 f   cg_syscalls.obj
 0001:00080db0       _trap_R_Font_StrLenChars   30081db0 f   cg_syscalls.obj
 0001:00080dd0       _trap_R_Font_HeightPixels  30081dd0 f   cg_syscalls.obj
 0001:00080e00       _trap_R_Font_DrawString    30081e00 f   cg_syscalls.obj
 0001:00080e40       _trap_Language_IsAsian     30081e40 f   cg_syscalls.obj
 0001:00080e50       _trap_Language_UsesSpaces  30081e50 f   cg_syscalls.obj
 0001:00080e60       _trap_AnyLanguage_ReadCharFromString 30081e60 f   cg_syscalls.obj
 0001:00080e80       _trap_R_ClearScene         30081e80 f   cg_syscalls.obj
 0001:00080ea0       _trap_R_ClearDecals        30081ea0 f   cg_syscalls.obj
 0001:00080ec0       _trap_R_AddRefEntityToScene 30081ec0 f   cg_syscalls.obj
 0001:00080ee0       _trap_R_AddPolyToScene     30081ee0 f   cg_syscalls.obj
 0001:00080f00       _trap_R_AddPolysToScene    30081f00 f   cg_syscalls.obj
 0001:00080f30       _trap_R_AddDecalToScene    30081f30 f   cg_syscalls.obj
 0001:00080fb0       _trap_R_LightForPoint      30081fb0 f   cg_syscalls.obj
 0001:00080fe0       _trap_R_AddLightToScene    30081fe0 f   cg_syscalls.obj
 0001:00081030       _trap_R_AddAdditiveLightToScene 30082030 f   cg_syscalls.obj
 0001:00081080       _trap_R_RenderScene        30082080 f   cg_syscalls.obj
 0001:000810a0       _trap_R_SetColor           300820a0 f   cg_syscalls.obj
 0001:000810c0       _trap_R_DrawStretchPic     300820c0 f   cg_syscalls.obj
 0001:00081140       _trap_R_ModelBounds        30082140 f   cg_syscalls.obj
 0001:00081160       _trap_R_LerpTag            30082160 f   cg_syscalls.obj
 0001:000811a0       _trap_R_DrawRotatePic      300821a0 f   cg_syscalls.obj
 0001:00081230       _trap_R_DrawRotatePic2     30082230 f   cg_syscalls.obj
 0001:000812c0       _trap_R_SetRangeFog        300822c0 f   cg_syscalls.obj
 0001:000812e0       _trap_R_SetRefractProp     300822e0 f   cg_syscalls.obj
 0001:00081320       _trap_R_RemapShader        30082320 f   cg_syscalls.obj
 0001:00081340       _trap_R_GetLightStyle      30082340 f   cg_syscalls.obj
 0001:00081360       _trap_R_SetLightStyle      30082360 f   cg_syscalls.obj
 0001:00081380       _trap_R_GetBModelVerts     30082380 f   cg_syscalls.obj
 0001:000813a0       _trap_R_GetDistanceCull    300823a0 f   cg_syscalls.obj
 0001:000813c0       _trap_R_GetRealRes         300823c0 f   cg_syscalls.obj
 0001:000813e0       _trap_R_AutomapElevAdj     300823e0 f   cg_syscalls.obj
 0001:00081400       _trap_R_InitWireframeAutomap 30082400 f   cg_syscalls.obj
 0001:00081420       _trap_FX_AddLine           30082420 f   cg_syscalls.obj
 0001:000814b0       _trap_GetGlconfig          300824b0 f   cg_syscalls.obj
 0001:000814d0       _trap_GetGameState         300824d0 f   cg_syscalls.obj
 0001:000814f0       _trap_GetCurrentSnapshotNumber 300824f0 f   cg_syscalls.obj
 0001:00081510       _trap_GetSnapshot          30082510 f   cg_syscalls.obj
 0001:00081530       _trap_GetDefaultState      30082530 f   cg_syscalls.obj
 0001:00081550       _trap_GetServerCommand     30082550 f   cg_syscalls.obj
 0001:00081570       _trap_GetCurrentCmdNumber  30082570 f   cg_syscalls.obj
 0001:00081590       _trap_GetUserCmd           30082590 f   cg_syscalls.obj
 0001:000815b0       _trap_SetUserCmdValue      300825b0 f   cg_syscalls.obj
 0001:00081610       _trap_SetClientForceAngle  30082610 f   cg_syscalls.obj
 0001:00081630       _trap_SetClientTurnExtent  30082630 f   cg_syscalls.obj
 0001:00081670       _trap_OpenUIMenu           30082670 f   cg_syscalls.obj
 0001:00081690       _testPrintInt              30082690 f   cg_syscalls.obj
 0001:000816b0       _testPrintFloat            300826b0 f   cg_syscalls.obj
 0001:000816e0       _trap_MemoryRemaining      300826e0 f   cg_syscalls.obj
 0001:00081700       _trap_Key_IsDown           30082700 f   cg_syscalls.obj
 0001:00081720       _trap_Key_GetCatcher       30082720 f   cg_syscalls.obj
 0001:00081740       _trap_Key_SetCatcher       30082740 f   cg_syscalls.obj
 0001:00081760       _trap_Key_GetKey           30082760 f   cg_syscalls.obj
 0001:00081780       _trap_PC_AddGlobalDefine   30082780 f   cg_syscalls.obj
 0001:000817a0       _trap_PC_LoadSource        300827a0 f   cg_syscalls.obj
 0001:000817c0       _trap_PC_FreeSource        300827c0 f   cg_syscalls.obj
 0001:000817e0       _trap_PC_ReadToken         300827e0 f   cg_syscalls.obj
 0001:00081800       _trap_PC_SourceFileAndLine 30082800 f   cg_syscalls.obj
 0001:00081820       _trap_PC_LoadGlobalDefines 30082820 f   cg_syscalls.obj
 0001:00081840       _trap_PC_RemoveAllGlobalDefines 30082840 f   cg_syscalls.obj
 0001:00081860       _trap_S_StopBackgroundTrack 30082860 f   cg_syscalls.obj
 0001:00081880       _trap_RealTime             30082880 f   cg_syscalls.obj
 0001:000818a0       _trap_SnapVector           300828a0 f   cg_syscalls.obj
 0001:000818c0       _trap_CIN_PlayCinematic    300828c0 f   cg_syscalls.obj
 0001:000818f0       _trap_CIN_StopCinematic    300828f0 f   cg_syscalls.obj
 0001:00081910       _trap_CIN_RunCinematic     30082910 f   cg_syscalls.obj
 0001:00081930       _trap_CIN_DrawCinematic    30082930 f   cg_syscalls.obj
 0001:00081950       _trap_CIN_SetExtents       30082950 f   cg_syscalls.obj
 0001:00081980       _trap_GetEntityToken       30082980 f   cg_syscalls.obj
 0001:000819a0       _trap_R_inPVS              300829a0 f   cg_syscalls.obj
 0001:000819c0       _trap_FX_RegisterEffect    300829c0 f   cg_syscalls.obj
 0001:000819e0       _trap_FX_PlayEffect        300829e0 f   cg_syscalls.obj
 0001:00081a10       _trap_FX_PlayEntityEffect  30082a10 f   cg_syscalls.obj
 0001:00081a40       _trap_FX_PlayEffectID      30082a40 f   cg_syscalls.obj
 0001:00081a70       _trap_FX_PlayPortalEffectID 30082a70 f   cg_syscalls.obj
 0001:00081a90       _trap_FX_PlayEntityEffectID 30082a90 f   cg_syscalls.obj
 0001:00081ac0       _trap_FX_PlayBoltedEffectID 30082ac0 f   cg_syscalls.obj
 0001:00081b00       _trap_FX_AddScheduledEffects 30082b00 f   cg_syscalls.obj
 0001:00081b20       _trap_FX_Draw2DEffects     30082b20 f   cg_syscalls.obj
 0001:00081b50       _trap_FX_InitSystem        30082b50 f   cg_syscalls.obj
 0001:00081b70       _trap_FX_SetRefDef         30082b70 f   cg_syscalls.obj
 0001:00081b90       _trap_FX_FreeSystem        30082b90 f   cg_syscalls.obj
 0001:00081bb0       _trap_FX_Reset             30082bb0 f   cg_syscalls.obj
 0001:00081bd0       _trap_FX_AdjustTime        30082bd0 f   cg_syscalls.obj
 0001:00081bf0       _trap_FX_AddPoly           30082bf0 f   cg_syscalls.obj
 0001:00081c10       _trap_FX_AddBezier         30082c10 f   cg_syscalls.obj
 0001:00081c30       _trap_FX_AddPrimitive      30082c30 f   cg_syscalls.obj
 0001:00081c50       _trap_FX_AddSprite         30082c50 f   cg_syscalls.obj
 0001:00081c70       _trap_FX_AddElectricity    30082c70 f   cg_syscalls.obj
 0001:00081c90       _trap_SP_GetStringTextString 30082c90 f   cg_syscalls.obj
 0001:00081cb0       _trap_ROFF_Clean           30082cb0 f   cg_syscalls.obj
 0001:00081cd0       _trap_ROFF_UpdateEntities  30082cd0 f   cg_syscalls.obj
 0001:00081cf0       _trap_ROFF_Cache           30082cf0 f   cg_syscalls.obj
 0001:00081d10       _trap_ROFF_Play            30082d10 f   cg_syscalls.obj
 0001:00081d30       _trap_ROFF_Purge_Ent       30082d30 f   cg_syscalls.obj
 0001:00081d50       _trap_TrueMalloc           30082d50 f   cg_syscalls.obj
 0001:00081d70       _trap_TrueFree             30082d70 f   cg_syscalls.obj
 0001:00081d90       _trap_G2_ListModelSurfaces 30082d90 f   cg_syscalls.obj
 0001:00081db0       _trap_G2_ListModelBones    30082db0 f   cg_syscalls.obj
 0001:00081dd0       _trap_G2_SetGhoul2ModelIndexes 30082dd0 f   cg_syscalls.obj
 0001:00081df0       _trap_G2_HaveWeGhoul2Models 30082df0 f   cg_syscalls.obj
 0001:00081e10       _trap_G2API_GetBoltMatrix  30082e10 f   cg_syscalls.obj
 0001:00081e50       _trap_G2API_GetBoltMatrix_NoReconstruct 30082e50 f   cg_syscalls.obj
 0001:00081e90       _trap_G2API_GetBoltMatrix_NoRecNoRot 30082e90 f   cg_syscalls.obj
 0001:00081ed0       _trap_G2API_InitGhoul2Model 30082ed0 f   cg_syscalls.obj
 0001:00081f00       _trap_G2API_SetSkin        30082f00 f   cg_syscalls.obj
 0001:00081f30       _trap_G2API_CollisionDetect 30082f30 f   cg_syscalls.obj
 0001:00081f80       _trap_G2API_CollisionDetectCache 30082f80 f   cg_syscalls.obj
 0001:00081fd0       _trap_G2API_CleanGhoul2Models 30082fd0 f   cg_syscalls.obj
 0001:00081ff0       _trap_G2API_SetBoneAngles  30082ff0 f   cg_syscalls.obj
 0001:00082030       _trap_G2API_SetBoneAnim    30083030 f   cg_syscalls.obj
 0001:00082080       _trap_G2API_GetBoneAnim    30083080 f   cg_syscalls.obj
 0001:000820c0       _trap_G2API_GetBoneFrame   300830c0 f   cg_syscalls.obj
 0001:000820f0       _trap_G2API_GetGLAName     300830f0 f   cg_syscalls.obj
 0001:00082110       _trap_G2API_CopyGhoul2Instance 30083110 f   cg_syscalls.obj
 0001:00082130       _trap_G2API_CopySpecificGhoul2Model 30083130 f   cg_syscalls.obj
 0001:00082160       _trap_G2API_DuplicateGhoul2Instance 30083160 f   cg_syscalls.obj
 0001:00082180       _trap_G2API_HasGhoul2ModelOnIndex 30083180 f   cg_syscalls.obj
 0001:000821a0       _trap_G2API_RemoveGhoul2Model 300831a0 f   cg_syscalls.obj
 0001:000821c0       _trap_G2API_SkinlessModel  300831c0 f   cg_syscalls.obj
 0001:000821e0       _trap_G2API_GetNumGoreMarks 300831e0 f   cg_syscalls.obj
 0001:00082200       _trap_G2API_AddSkinGore    30083200 f   cg_syscalls.obj
 0001:00082220       _trap_G2API_ClearSkinGore  30083220 f   cg_syscalls.obj
 0001:00082240       _trap_G2API_Ghoul2Size     30083240 f   cg_syscalls.obj
 0001:00082260       _trap_G2API_AddBolt        30083260 f   cg_syscalls.obj
 0001:00082280       _trap_G2API_AttachEnt      30083280 f   cg_syscalls.obj
 0001:000822b0       _trap_G2API_SetBoltInfo    300832b0 f   cg_syscalls.obj
 0001:000822d0       _trap_G2API_SetRootSurface 300832d0 f   cg_syscalls.obj
 0001:000822f0       _trap_G2API_SetSurfaceOnOff 300832f0 f   cg_syscalls.obj
 0001:00082310       _trap_G2API_SetNewOrigin   30083310 f   cg_syscalls.obj
 0001:00082330       _trap_G2API_DoesBoneExist  30083330 f   cg_syscalls.obj
 0001:00082350       _trap_G2API_GetSurfaceRenderStatus 30083350 f   cg_syscalls.obj
 0001:00082370       _trap_G2API_GetTime        30083370 f   cg_syscalls.obj
 0001:00082390       _trap_G2API_SetTime        30083390 f   cg_syscalls.obj
 0001:000823b0       _trap_G2API_AbsurdSmoothing 300833b0 f   cg_syscalls.obj
 0001:000823d0       _trap_G2API_SetRagDoll     300833d0 f   cg_syscalls.obj
 0001:000823f0       _trap_G2API_AnimateG2Models 300833f0 f   cg_syscalls.obj
 0001:00082410       _trap_G2API_RagPCJConstraint 30083410 f   cg_syscalls.obj
 0001:00082440       _trap_G2API_RagPCJGradientSpeed 30083440 f   cg_syscalls.obj
 0001:00082470       _trap_G2API_RagEffectorGoal 30083470 f   cg_syscalls.obj
 0001:00082490       _trap_G2API_GetRagBonePos  30083490 f   cg_syscalls.obj
 0001:000824c0       _trap_G2API_RagEffectorKick 300834c0 f   cg_syscalls.obj
 0001:000824e0       _trap_G2API_RagForceSolve  300834e0 f   cg_syscalls.obj
 0001:00082500       _trap_G2API_SetBoneIKState 30083500 f   cg_syscalls.obj
 0001:00082530       _trap_G2API_IKMove         30083530 f   cg_syscalls.obj
 0001:00082550       _trap_G2API_RemoveBone     30083550 f   cg_syscalls.obj
 0001:00082570       _trap_G2API_AttachInstanceToEntNum 30083570 f   cg_syscalls.obj
 0001:00082590       _trap_G2API_ClearAttachedInstance 30083590 f   cg_syscalls.obj
 0001:000825b0       _trap_G2API_CleanEntAttachments 300835b0 f   cg_syscalls.obj
 0001:000825d0       _trap_G2API_OverrideServer 300835d0 f   cg_syscalls.obj
 0001:000825f0       _trap_G2API_GetSurfaceName 300835f0 f   cg_syscalls.obj
 0001:00082620       _trap_CG_RegisterSharedMemory 30083620 f   cg_syscalls.obj
 0001:00082640       _trap_CM_RegisterTerrain   30083640 f   cg_syscalls.obj
 0001:00082660       _trap_RMG_Init             30083660 f   cg_syscalls.obj
 0001:00082680       _trap_RE_InitRendererTerrain 30083680 f   cg_syscalls.obj
 0001:000826a0       _trap_R_WeatherContentsOverride 300836a0 f   cg_syscalls.obj
 0001:000826c0       _trap_R_WorldEffectCommand 300836c0 f   cg_syscalls.obj
 0001:000826e0       _trap_WE_AddWeatherZone    300836e0 f   cg_syscalls.obj
 0001:00082700       _CreepToPosition           30083700 f   cg_turret.obj
 0001:000829c0       _TurretClientRun           300839c0 f   cg_turret.obj
 0001:00082fc0       _CG_TestModel_f            30083fc0 f   cg_view.obj
 0001:000830f0       _CG_TestGun_f              300840f0 f   cg_view.obj
 0001:00083110       _CG_TestModelNextFrame_f   30084110 f   cg_view.obj
 0001:00083140       _CG_TestModelPrevFrame_f   30084140 f   cg_view.obj
 0001:00083180       _CG_TestModelNextSkin_f    30084180 f   cg_view.obj
 0001:000831b0       _CG_TestModelPrevSkin_f    300841b0 f   cg_view.obj
 0001:000831f0       _CG_GetVehicleCamPos       300841f0 f   cg_view.obj
 0001:00083220       _CG_ZoomDown_f             30084220 f   cg_view.obj
 0001:00083250       _CG_ZoomUp_f               30084250 f   cg_view.obj
 0001:00083280       _CG_CalcFOVFromX           30084280 f   cg_view.obj
 0001:00083300       _CG_CheckPassengerTurretView 30084300 f   cg_view.obj
 0001:000837f0       _CG_DrawSkyBoxPortal       300847f0 f   cg_view.obj
 0001:00083d90       _CG_AddBufferedSound       30084d90 f   cg_view.obj
 0001:00083de0       _CG_UpdateSoundTrackers    30084de0 f   cg_view.obj
 0001:00083ef0       _CG_SE_UpdateShake         30084ef0 f   cg_view.obj
 0001:00084080       _CG_SE_UpdateMusic         30085080 f   cg_view.obj
 0001:000841d0       _CG_CalcScreenEffects      300851d0 f   cg_view.obj
 0001:000841f0       _CGCam_Shake               300851f0 f   cg_view.obj
 0001:00084230       _CG_DoCameraShake          30085230 f   cg_view.obj
 0001:000842b0       _CGCam_SetMusicMult        300852b0 f   cg_view.obj
 0001:00084310       _CG_EmplacedView           30085310 f   cg_view.obj
 0001:000843d0       _CG_AddRadarAutomapEnts    300853d0 f   cg_view.obj
 0001:00084580       _CG_DrawAutoMap            30085580 f   cg_view.obj
 0001:00084b10       _CG_DrawActiveFrame        30085b10 f   cg_view.obj
 0001:00087b10       _CG_RegisterWeapon         30088b10 f   cg_weaponinit.obj
 0001:000891d0       _CG_SetGhoul2InfoRef       3008a1d0 f   cg_weapons.obj
 0001:00089260       _CG_RegisterItemVisuals    3008a260 f   cg_weapons.obj
 0001:00089480       _CG_AddPlayerWeapon        3008a480 f   cg_weapons.obj
 0001:0008a300       _CG_AddViewWeapon          3008b300 f   cg_weapons.obj
 0001:0008aad0       _CG_DrawIconBackground     3008bad0 f   cg_weapons.obj
 0001:0008acc0       _CG_WeaponCheck            3008bcc0 f   cg_weapons.obj
 0001:0008ad20       _CG_DrawWeaponSelect       3008bd20 f   cg_weapons.obj
 0001:0008b550       _CG_NextWeapon_f           3008c550 f   cg_weapons.obj
 0001:0008b670       _CG_PrevWeapon_f           3008c670 f   cg_weapons.obj
 0001:0008b790       _CG_Weapon_f               3008c790 f   cg_weapons.obj
 0001:0008b980       _CG_WeaponClean_f          3008c980 f   cg_weapons.obj
 0001:0008bb70       _CG_OutOfAmmoChange        3008cb70 f   cg_weapons.obj
 0001:0008bc00       _CG_GetClientWeaponMuzzleBoltPoint 3008cc00 f   cg_weapons.obj
 0001:0008bcc0       _CG_FireWeapon             3008ccc0 f   cg_weapons.obj
 0001:0008c010       _CG_VehicleWeaponImpact    3008d010 f   cg_weapons.obj
 0001:0008c0a0       _CG_MissileHitWall         3008d0a0 f   cg_weapons.obj
 0001:0008c2d0       _CG_MissileHitPlayer       3008d2d0 f   cg_weapons.obj
 0001:0008c520       _CG_CalcMuzzlePoint        3008d520 f   cg_weapons.obj
 0001:0008c8e0       _CG_InitG2Weapons          3008d8e0 f   cg_weapons.obj
 0001:0008c9e0       _CG_ShutDownG2Weapons      3008d9e0 f   cg_weapons.obj
 0001:0008ca20       _CG_G2WeaponInstance       3008da20 f   cg_weapons.obj
 0001:0008cad0       _CG_CopyG2WeaponInstance   3008dad0 f   cg_weapons.obj
 0001:0008ccb0       _CG_CheckPlayerG2Weapons   3008dcb0 f   cg_weapons.obj
 0001:0008d060       _BG_FighterUpdate          3008e060 f   FighterNPC.obj
 0001:0008d170       _FighterOverValidLandingSurface 3008e170 f   FighterNPC.obj
 0001:0008d1b0       _FighterIsLanded           3008e1b0 f   FighterNPC.obj
 0001:0008d1f0       _FighterIsLanding          3008e1f0 f   FighterNPC.obj
 0001:0008d240       _FighterIsLaunching        3008e240 f   FighterNPC.obj
 0001:0008d280       _FighterSuspended          3008e280 f   FighterNPC.obj
 0001:0008d290       _FighterYawAdjust          3008e290 f   FighterNPC.obj
 0001:0008d390       _FighterPitchAdjust        3008e390 f   FighterNPC.obj
 0001:0008d490       _FighterPitchClamp         3008e490 f   FighterNPC.obj
 0001:0008d560       _G_SetFighterVehicleFunctions 3008e560 f   FighterNPC.obj
 0001:0008f520       _G_CreateFighterNPC        30090520 f   FighterNPC.obj
 0001:0008f580       _FX_BlasterProjectileThink 30090580 f   fx_blaster.obj
 0001:0008f5e0       _FX_BlasterAltFireThink    300905e0 f   fx_blaster.obj
 0001:0008f640       _FX_BlasterWeaponHitWall   30090640 f   fx_blaster.obj
 0001:0008f660       _FX_BlasterWeaponHitPlayer 30090660 f   fx_blaster.obj
 0001:0008f6b0       _FX_BowcasterProjectileThink 300906b0 f   fx_bowcaster.obj
 0001:0008f710       _FX_BowcasterHitWall       30090710 f   fx_bowcaster.obj
 0001:0008f730       _FX_BowcasterHitPlayer     30090730 f   fx_bowcaster.obj
 0001:0008f750       _FX_BowcasterAltProjectileThink 30090750 f   fx_bowcaster.obj
 0001:0008f7b0       _FX_BryarProjectileThink   300907b0 f   fx_bryarpistol.obj
 0001:0008f810       _FX_BryarHitWall           30090810 f   fx_bryarpistol.obj
 0001:0008f830       _FX_BryarHitPlayer         30090830 f   fx_bryarpistol.obj
 0001:0008f880       _FX_BryarAltProjectileThink 30090880 f   fx_bryarpistol.obj
 0001:0008f920       _FX_BryarAltHitWall        30090920 f   fx_bryarpistol.obj
 0001:0008f9b0       _FX_BryarAltHitPlayer      300909b0 f   fx_bryarpistol.obj
 0001:0008fa00       _FX_TurretProjectileThink  30090a00 f   fx_bryarpistol.obj
 0001:0008fa60       _FX_TurretHitWall          30090a60 f   fx_bryarpistol.obj
 0001:0008fa80       _FX_TurretHitPlayer        30090a80 f   fx_bryarpistol.obj
 0001:0008fad0       _FX_ConcussionHitWall      30090ad0 f   fx_bryarpistol.obj
 0001:0008faf0       _FX_ConcussionHitPlayer    30090af0 f   fx_bryarpistol.obj
 0001:0008fb10       _FX_ConcussionProjectileThink 30090b10 f   fx_bryarpistol.obj
 0001:0008fb70       _FX_ConcAltShot            30090b70 f   fx_bryarpistol.obj
 0001:0008fc10       _FX_DEMP2_ProjectileThink  30090c10 f   fx_demp2.obj
 0001:0008fc70       _FX_DEMP2_HitWall          30090c70 f   fx_demp2.obj
 0001:0008fc90       _FX_DEMP2_HitPlayer        30090c90 f   fx_demp2.obj
 0001:0008fcb0       _FX_DEMP2_AltBeam          30090cb0 f   fx_demp2.obj
 0001:0008fcc0       _FX_DEMP2_AltDetonate      30090cc0 f   fx_demp2.obj
 0001:0008fda0       _FX_DisruptorMainShot      30090da0 f   fx_disruptor.obj
 0001:0008fdf0       _FX_DisruptorAltShot       30090df0 f   fx_disruptor.obj
 0001:0008feb0       _FX_DisruptorAltMiss       30090eb0 f   fx_disruptor.obj
 0001:000900c0       _FX_DisruptorAltHit        300910c0 f   fx_disruptor.obj
 0001:000900e0       _FX_DisruptorHitWall       300910e0 f   fx_disruptor.obj
 0001:00090100       _FX_DisruptorHitPlayer     30091100 f   fx_disruptor.obj
 0001:00090120       _FX_FlechetteProjectileThink 30091120 f   fx_flechette.obj
 0001:00090180       _FX_FlechetteWeaponHitWall 30091180 f   fx_flechette.obj
 0001:000901a0       _FX_FlechetteWeaponHitPlayer 300911a0 f   fx_flechette.obj
 0001:000901c0       _FX_FlechetteAltProjectileThink 300911c0 f   fx_flechette.obj
 0001:00090220       _FX_ForceDrained           30091220 f   fx_force.obj
 0001:00090280       _FX_RepeaterProjectileThink 30091280 f   fx_heavyrepeater.obj
 0001:000902e0       _FX_RepeaterHitWall        300912e0 f   fx_heavyrepeater.obj
 0001:00090300       _FX_RepeaterHitPlayer      30091300 f   fx_heavyrepeater.obj
 0001:00090320       _FX_RepeaterAltProjectileThink 30091320 f   fx_heavyrepeater.obj
 0001:00090620       _FX_RepeaterAltHitWall     30091620 f   fx_heavyrepeater.obj
 0001:00090640       _FX_RepeaterAltHitPlayer   30091640 f   fx_heavyrepeater.obj
 0001:00090660       _FX_RocketProjectileThink  30091660 f   fx_rocketlauncher.obj
 0001:000906c0       _FX_RocketHitWall          300916c0 f   fx_rocketlauncher.obj
 0001:000906e0       _FX_RocketHitPlayer        300916e0 f   fx_rocketlauncher.obj
 0001:00090700       _FX_RocketAltProjectileThink 30091700 f   fx_rocketlauncher.obj
 0001:00090760       _Q_rand                    30091760 f   q_math.obj
 0001:00090780       _Q_random                  30091780 f   q_math.obj
 0001:000907b0       _Q_crandom                 300917b0 f   q_math.obj
 0001:000907d0       _ClampChar                 300917d0 f   q_math.obj
 0001:000907f0       _ClampShort                300917f0 f   q_math.obj
 0001:00090820       _DirToByte                 30091820 f   q_math.obj
 0001:000908c0       _ByteToDir                 300918c0 f   q_math.obj
 0001:00090930       _ColorBytes3               30091930 f   q_math.obj
 0001:00090970       _ColorBytes4               30091970 f   q_math.obj
 0001:000909c0       _NormalizeColor            300919c0 f   q_math.obj
 0001:00090a70       _PlaneFromPoints           30091a70 f   q_math.obj
 0001:00090ba0       _RotatePointAroundVector   30091ba0 f   q_math.obj
 0001:00090de0       _RotateAroundDirection     30091de0 f   q_math.obj
 0001:00090e60       _vectoangles               30091e60 f   q_math.obj
 0001:00090fd0       _AnglesToAxis              30091fd0 f   q_math.obj
 0001:00091030       _AxisClear                 30092030 f   q_math.obj
 0001:00091090       _AxisCopy                  30092090 f   q_math.obj
 0001:00091100       _ProjectPointOnPlane       30092100 f   q_math.obj
 0001:000911d0       _MakeNormalVectors         300921d0 f   q_math.obj
 0001:00091290       _VectorRotate              30092290 f   q_math.obj
 0001:00091320       _Q_rsqrt                   30092320 f   q_math.obj
 0001:00091370       _Q_fabs                    30092370 f   q_math.obj
 0001:00091390       _LerpAngle                 30092390 f   q_math.obj
 0001:000913f0       _AngleSubtract             300923f0 f   q_math.obj
 0001:00091460       _AnglesSubtract            30092460 f   q_math.obj
 0001:000914c0       _AngleMod                  300924c0 f   q_math.obj
 0001:000914f0       _AngleNormalize360         300924f0 f   q_math.obj
 0001:00091520       _AngleNormalize180         30092520 f   q_math.obj
 0001:00091550       _AngleDelta                30092550 f   q_math.obj
 0001:00091570       _SetPlaneSignbits          30092570 f   q_math.obj
 0001:000915d0       _BoxOnPlaneSide            300925d0 f   q_math.obj
 0001:00091810       _RadiusFromBounds          30092810 f   q_math.obj
 0001:000918e0       _ClearBounds               300928e0 f   q_math.obj
 0001:00091920       _DistanceHorizontal        30092920 f   q_math.obj
 0001:00091980       _DistanceHorizontalSquared 30092980 f   q_math.obj
 0001:000919d0       _AddPointToBounds          300929d0 f   q_math.obj
 0001:00091a90       _VectorNormalize           30092a90 f   q_math.obj
 0001:00091b20       _VectorNormalize2          30092b20 f   q_math.obj
 0001:00091bd0       __VectorMA                 30092bd0 f   q_math.obj
 0001:00091c20       __DotProduct               30092c20 f   q_math.obj
 0001:00091c50       __VectorSubtract           30092c50 f   q_math.obj
 0001:00091c90       __VectorAdd                30092c90 f   q_math.obj
 0001:00091cd0       __VectorCopy               30092cd0 f   q_math.obj
 0001:00091d00       __VectorScale              30092d00 f   q_math.obj
 0001:00091d30       _Vector4Scale              30092d30 f   q_math.obj
 0001:00091d70       _Q_log2                    30092d70 f   q_math.obj
 0001:00091da0       _MatrixMultiply            30092da0 f   q_math.obj
 0001:00091f40       _AngleVectors              30092f40 f   q_math.obj
 0001:00092120       _PerpendicularVector       30093120 f   q_math.obj
 0001:000921e0       _NormalToLatLong           300931e0 f   q_math.obj
 0001:000922e0       _Rand_Init                 300932e0 f   q_math.obj
 0001:000922f0       _flrand                    300932f0 f   q_math.obj
 0001:00092340       _Q_flrand                  30093340 f   q_math.obj
 0001:00092360       _irand                     30093360 f   q_math.obj
 0001:000923b0       _Q_irand                   300933b0 f   q_math.obj
 0001:000923d0       _powf                      300933d0 f   q_math.obj
 0001:00092410       _DotProductNormalize       30093410 f   q_math.obj
 0001:00092460       _G_FindClosestPointOnLineSegment 30093460 f   q_math.obj
 0001:00092760       _G_PointDistFromLineSegment 30093760 f   q_math.obj
 0001:000929c0       _GetIDForString            300939c0 f   q_shared.obj
 0001:00092a20       _GetStringForID            30093a20 f   q_shared.obj
 0001:00092a80       _Com_Clampi                30093a80 f   q_shared.obj
 0001:00092ab0       _Com_Clamp                 30093ab0 f   q_shared.obj
 0001:00092ae0       _COM_SkipPath              30093ae0 f   q_shared.obj
 0001:00092b20       _COM_StripExtension        30093b20 f   q_shared.obj
 0001:00092b60       _COM_DefaultExtension      30093b60 f   q_shared.obj
 0001:00092be0       _ShortSwap                 30093be0 f   q_shared.obj
 0001:00092c20       _ShortNoSwap               30093c20 f   q_shared.obj
 0001:00092c30       _LongSwap                  30093c30 f   q_shared.obj
 0001:00092c90       _LongNoSwap                30093c90 f   q_shared.obj
 0001:00092ca0       _Long64Swap                30093ca0 f   q_shared.obj
 0001:00092ce0       _Long64NoSwap              30093ce0 f   q_shared.obj
 0001:00092cf0       _FloatSwap                 30093cf0 f   q_shared.obj
 0001:00092d20       _FloatNoSwap               30093d20 f   q_shared.obj
 0001:00092d30       _COM_BeginParseSession     30093d30 f   q_shared.obj
 0001:00092d60       _COM_GetCurrentParseLine   30093d60 f   q_shared.obj
 0001:00092d70       _COM_Parse                 30093d70 f   q_shared.obj
 0001:00092d90       _COM_ParseError            30093d90 f   q_shared.obj
 0001:00092de0       _COM_ParseWarning          30093de0 f   q_shared.obj
 0001:00092e30       _SkipWhitespace            30093e30 f   q_shared.obj
 0001:00092e80       _COM_Compress              30093e80 f   q_shared.obj
 0001:00093080       _COM_ParseExt              30094080 f   q_shared.obj
 0001:000932b0       _COM_ParseString           300942b0 f   q_shared.obj
 0001:000932f0       _COM_ParseInt              300942f0 f   q_shared.obj
 0001:00093340       _COM_ParseFloat            30094340 f   q_shared.obj
 0001:00093390       _COM_ParseVec4             30094390 f   q_shared.obj
 0001:000933e0       _COM_MatchToken            300943e0 f   q_shared.obj
 0001:00093410       _SkipBracedSection         30094410 f   q_shared.obj
 0001:00093480       _SkipRestOfLine            30094480 f   q_shared.obj
 0001:000934d0       _Parse1DMatrix             300944d0 f   q_shared.obj
 0001:00093540       _Parse2DMatrix             30094540 f   q_shared.obj
 0001:000935b0       _Parse3DMatrix             300945b0 f   q_shared.obj
 0001:00093620       _Q_isprint                 30094620 f   q_shared.obj
 0001:00093640       _Q_islower                 30094640 f   q_shared.obj
 0001:00093660       _Q_isupper                 30094660 f   q_shared.obj
 0001:00093680       _Q_isalpha                 30094680 f   q_shared.obj
 0001:000936b0       _Q_strrchr                 300946b0 f   q_shared.obj
 0001:00093710       _Q_strncpyz                30094710 f   q_shared.obj
 0001:00093780       _Q_stricmpn                30094780 f   q_shared.obj
 0001:00093850       _Q_strncmp                 30094850 f   q_shared.obj
 0001:000938c0       _Q_stricmp                 300948c0 f   q_shared.obj
 0001:00093900       _Q_strlwr                  30094900 f   q_shared.obj
 0001:00093940       _Q_strupr                  30094940 f   q_shared.obj
 0001:00093980       _Q_strcat                  30094980 f   q_shared.obj
 0001:000939d0       _Q_PrintStrlen             300949d0 f   q_shared.obj
 0001:00093a60       _Q_CleanStr                30094a60 f   q_shared.obj
 0001:00093b10       _Com_sprintf               30094b10 f   q_shared.obj
 0001:00093ba0       _va                        30094ba0 f   q_shared.obj
 0001:00093c00       _Info_ValueForKey          30094c00 f   q_shared.obj
 0001:00093d70       _Info_NextPair             30094d70 f   q_shared.obj
 0001:00093e50       _Info_RemoveKey            30094e50 f   q_shared.obj
 0001:00093fb0       _Info_RemoveKey_Big        30094fb0 f   q_shared.obj
 0001:00094120       _Info_Validate             30095120 f   q_shared.obj
 0001:00094160       _Info_SetValueForKey       30095160 f   q_shared.obj
 0001:000942d0       _Info_SetValueForKey_Big   300952d0 f   q_shared.obj
 0001:00094430       _VEH_StartStrafeRam        30095430 f   SpeederNPC.obj
 0001:00094440       _ProcessOrientCommands     30095440 f   SpeederNPC.obj
 0001:000945d0       _AnimateRiders             300955d0 f   SpeederNPC.obj
 0001:00094d30       _G_SetSpeederVehicleFunctions 30095d30 f   SpeederNPC.obj
 0001:00095250       _G_CreateSpeederNPC        30096250 f   SpeederNPC.obj
 0001:000952b0       _UI_Alloc                  300962b0 f   ui_shared.obj
 0001:00095320       _UI_InitMemory             30096320 f   ui_shared.obj
 0001:00095340       _UI_OutOfMemory            30096340 f   ui_shared.obj
 0001:00095350       _String_Alloc              30096350 f   ui_shared.obj
 0001:00095510       _String_Report             30096510 f   ui_shared.obj
 0001:000955b0       _String_Init               300965b0 f   ui_shared.obj
 0001:00095640       _PC_SourceWarning          30096640 f   ui_shared.obj
 0001:000956c0       _PC_SourceError            300966c0 f   ui_shared.obj
 0001:00095740       _LerpColor                 30096740 f   ui_shared.obj
 0001:000957e0       _Float_Parse               300967e0 f   ui_shared.obj
 0001:00095830       _PC_Float_Parse            30096830 f   ui_shared.obj
 0001:000958e0       _Color_Parse               300968e0 f   ui_shared.obj
 0001:00095930       _PC_Color_Parse            30096930 f   ui_shared.obj
 0001:00095980       _Int_Parse                 30096980 f   ui_shared.obj
 0001:000959d0       _PC_Int_Parse              300969d0 f   ui_shared.obj
 0001:00095a80       _Rect_Parse                30096a80 f   ui_shared.obj
 0001:00095af0       _PC_Rect_Parse             30096af0 f   ui_shared.obj
 0001:00095b60       _String_Parse              30096b60 f   ui_shared.obj
 0001:00095bb0       _PC_String_Parse           30096bb0 f   ui_shared.obj
 0001:00095c20       _PC_Script_Parse           30096c20 f   ui_shared.obj
 0001:00095d40       _Init_Display              30096d40 f   ui_shared.obj
 0001:00095d50       _GradientBar_Paint         30096d50 f   ui_shared.obj
 0001:00095db0       _Window_Init               30096db0 f   ui_shared.obj
 0001:00095e10       _Fade                      30096e10 f   ui_shared.obj
 0001:00095ed0       _Window_Paint              30096ed0 f   ui_shared.obj
 0001:000963c0       _Item_SetScreenCoords      300973c0 f   ui_shared.obj
 0001:00096490       _Item_UpdatePosition       30097490 f   ui_shared.obj
 0001:00096500       _Menu_UpdatePosition       30097500 f   ui_shared.obj
 0001:00096590       _Menu_PostParse            30097590 f   ui_shared.obj
 0001:000965e0       _Menu_ClearFocus           300975e0 f   ui_shared.obj
 0001:000966c0       _IsVisible                 300976c0 f   ui_shared.obj
 0001:000966f0       _Rect_ContainsPoint        300976f0 f   ui_shared.obj
 0001:00096750       _Menu_ItemsMatchingGroup   30097750 f   ui_shared.obj
 0001:00096820       _Menu_GetMatchingItemByNumber 30097820 f   ui_shared.obj
 0001:000968d0       _Script_SetColor           300978d0 f   ui_shared.obj
 0001:000969d0       _Script_SetAsset           300979d0 f   ui_shared.obj
 0001:000969f0       _Script_SetBackground      300979f0 f   ui_shared.obj
 0001:00096a30       _Script_SetItemRectCvar    30097a30 f   ui_shared.obj
 0001:00096c40       _Script_SetItemBackground  30097c40 f   ui_shared.obj
 0001:00096ca0       _Script_SetItemText        30097ca0 f   ui_shared.obj
 0001:00096d00       _Menu_FindItemByName       30097d00 f   ui_shared.obj
 0001:00096d70       _Script_SetTeamColor       30097d70 f   ui_shared.obj
 0001:00096dd0       _Script_SetItemColor       30097dd0 f   ui_shared.obj
 0001:00096fa0       _Script_SetItemColorCvar   30097fa0 f   ui_shared.obj
 0001:000972b0       _Script_SetItemRect        300982b0 f   ui_shared.obj
 0001:00097390       _Menu_ShowGroup            30098390 f   ui_shared.obj
 0001:00097410       _Menu_ShowItemByName       30098410 f   ui_shared.obj
 0001:000974c0       _Menu_FadeItemByName       300984c0 f   ui_shared.obj
 0001:00097560       _Menus_FindByName          30098560 f   ui_shared.obj
 0001:000975c0       _Menus_ShowByName          300985c0 f   ui_shared.obj
 0001:000975f0       _Menus_OpenByName          300985f0 f   ui_shared.obj
 0001:00097610       _Menus_CloseByName         30098610 f   ui_shared.obj
 0001:00097700       _Menus_CloseAll            30098700 f   ui_shared.obj
 0001:00097780       _Script_Show               30098780 f   ui_shared.obj
 0001:000977c0       _Script_Hide               300987c0 f   ui_shared.obj
 0001:00097800       _Script_FadeIn             30098800 f   ui_shared.obj
 0001:00097840       _Script_FadeOut            30098840 f   ui_shared.obj
 0001:00097880       _Script_Open               30098880 f   ui_shared.obj
 0001:000978b0       _Script_Close              300988b0 f   ui_shared.obj
 0001:00097900       _Menu_TransitionItemByName 30098900 f   ui_shared.obj
 0001:00097a60       _Menu_Transition3ItemByName 30098a60 f   ui_shared.obj
 0001:00097c90       _Script_Defer              30098c90 f   ui_shared.obj
 0001:00097ce0       _Script_RunDeferred        30098ce0 f   ui_shared.obj
 0001:00097d20       _Script_Transition         30098d20 f   ui_shared.obj
 0001:00097dc0       _Menu_OrbitItemByName      30098dc0 f   ui_shared.obj
 0001:00097e70       _Menu_ItemDisable          30098e70 f   ui_shared.obj
 0001:00097ef0       _Script_Disable            30098ef0 f   ui_shared.obj
 0001:00097f80       _Script_Scale              30098f80 f   ui_shared.obj
 0001:000980d0       _Script_Orbit              300990d0 f   ui_shared.obj
 0001:00098190       _Script_SetFocus           30099190 f   ui_shared.obj
 0001:00098260       _Script_SetPlayerModel     30099260 f   ui_shared.obj
 0001:000982a0       _ParseRect                 300992a0 f   ui_shared.obj
 0001:00098310       _Script_Transition2        30099310 f   ui_shared.obj
 0001:000983b0       _Script_Transition3        300993b0 f   ui_shared.obj
 0001:000985b0       _Script_SetCvar            300995b0 f   ui_shared.obj
 0001:00098600       _Script_SetCvarToCvar      30099600 f   ui_shared.obj
 0001:00098670       _Script_Exec               30099670 f   ui_shared.obj
 0001:000986c0       _Script_Play               300996c0 f   ui_shared.obj
 0001:00098710       _Script_playLooped         30099710 f   ui_shared.obj
 0001:00098760       _Menu_SetItemBackground    30099760 f   ui_shared.obj
 0001:000987e0       _Menu_SetItemText          300997e0 f   ui_shared.obj
 0001:00098900       _Item_RunScript            30099900 f   ui_shared.obj
 0001:00098a30       _Item_EnableShowViaCvar    30099a30 f   ui_shared.obj
 0001:00098ba0       _Item_SetFocus             30099ba0 f   ui_shared.obj
 0001:00098de0       _Item_TextScroll_MaxScroll 30099de0 f   ui_shared.obj
 0001:00098e30       _Item_TextScroll_ThumbPosition 30099e30 f   ui_shared.obj
 0001:00098ec0       _Item_TextScroll_ThumbDrawPosition 30099ec0 f   ui_shared.obj
 0001:00098f80       _Item_TextScroll_OverLB    30099f80 f   ui_shared.obj
 0001:000990d0       _Item_TextScroll_MouseEnter 3009a0d0 f   ui_shared.obj
 0001:00099110       _Item_TextScroll_HandleKey 3009a110 f   ui_shared.obj
 0001:00099390       _Item_ListBox_MaxScroll    3009a390 f   ui_shared.obj
 0001:00099420       _Item_ListBox_ThumbPosition 3009a420 f   ui_shared.obj
 0001:00099520       _Item_ListBox_ThumbDrawPosition 3009a520 f   ui_shared.obj
 0001:000996a0       _Item_Slider_ThumbPosition 3009a6a0 f   ui_shared.obj
 0001:00099780       _Item_Slider_OverSlider    3009a780 f   ui_shared.obj
 0001:000997e0       _Item_ListBox_OverLB       3009a7e0 f   ui_shared.obj
 0001:00099b80       _Item_ListBox_MouseEnter   3009ab80 f   ui_shared.obj
 0001:00099db0       _Item_MouseEnter           3009adb0 f   ui_shared.obj
 0001:00099f80       _Item_MouseLeave           3009af80 f   ui_shared.obj
 0001:00099ff0       _Menu_HitTest              3009aff0 f   ui_shared.obj
 0001:0009a050       _Item_SetMouseOver         3009b050 f   ui_shared.obj
 0001:0009a090       _Item_OwnerDraw_HandleKey  3009b090 f   ui_shared.obj
 0001:0009a150       _Item_ListBox_HandleKey    3009b150 f   ui_shared.obj
 0001:0009a9a0       _Item_YesNo_HandleKey      3009b9a0 f   ui_shared.obj
 0001:0009aa90       _Item_Multi_CountSettings  3009ba90 f   ui_shared.obj
 0001:0009aac0       _Item_Multi_FindCvarByValue 3009bac0 f   ui_shared.obj
 0001:0009abc0       _Item_Multi_Setting        3009bbc0 f   ui_shared.obj
 0001:0009acf0       _Item_Multi_HandleKey      3009bcf0 f   ui_shared.obj
 0001:0009aee0       _Leaving_EditField         3009bee0 f   ui_shared.obj
 0001:0009af20       _Item_TextField_HandleKey  3009bf20 f   ui_shared.obj
 0001:0009b5b0       _Item_StartCapture         3009c5b0 f   ui_shared.obj
 0001:0009bfa0       _Item_StopCapture          3009cfa0 f   ui_shared.obj
 0001:0009bfb0       _Item_Slider_HandleKey     3009cfb0 f   ui_shared.obj
 0001:0009c170       _Item_HandleKey            3009d170 f   ui_shared.obj
 0001:0009c350       _Item_HandleAccept         3009d350 f   ui_shared.obj
 0001:0009c380       _Item_Action               3009d380 f   ui_shared.obj
 0001:0009c3b0       _Menu_SetPrevCursorItem    3009d3b0 f   ui_shared.obj
 0001:0009c500       _Menu_SetNextCursorItem    3009d500 f   ui_shared.obj
 0001:0009c650       _Menus_Activate            3009d650 f   ui_shared.obj
 0001:0009c800       _Display_VisibleMenuCount  3009d800 f   ui_shared.obj
 0001:0009c860       _Menus_HandleOOBClick      3009d860 f   ui_shared.obj
 0001:0009c9c0       _Menu_HandleKey            3009d9c0 f   ui_shared.obj
 0001:0009d020       _ToWindowCoords            3009e020 f   ui_shared.obj
 0001:0009d070       _Rect_ToWindowCoords       3009e070 f   ui_shared.obj
 0001:0009d090       _Item_SetTextExtents       3009e090 f   ui_shared.obj
 0001:0009d310       _Item_TextColor            3009e310 f   ui_shared.obj
 0001:0009d580       _Item_Text_AutoWrapped_Paint 3009e580 f   ui_shared.obj
 0001:0009d930       _Item_Text_Wrapped_Paint   3009e930 f   ui_shared.obj
 0001:0009db90       _Item_Text_Paint           3009eb90 f   ui_shared.obj
 0001:0009dde0       _Item_TextField_Paint      3009ede0 f   ui_shared.obj
 0001:0009e0f0       _Item_YesNo_Paint          3009f0f0 f   ui_shared.obj
 0001:0009e340       _Item_Multi_Paint          3009f340 f   ui_shared.obj
 0001:0009e590       _Controls_GetConfig        3009f590 f   ui_shared.obj
 0001:0009e6b0       _Controls_SetConfig        3009f6b0 f   ui_shared.obj
 0001:0009e750       _BindingIDFromName         3009f750 f   ui_shared.obj
 0001:0009e7a0       _BindingFromName           3009f7a0 f   ui_shared.obj
 0001:0009e8b0       _Item_Slider_Paint         3009f8b0 f   ui_shared.obj
 0001:0009ea90       _Item_Bind_Paint           3009fa90 f   ui_shared.obj
 0001:0009ede0       _Display_KeyBindPending    3009fde0 f   ui_shared.obj
 0001:0009edf0       _Item_Bind_HandleKey       3009fdf0 f   ui_shared.obj
 0001:0009f1c0       _UI_ScaleModelAxis         300a01c0 f   ui_shared.obj
 0001:0009f330       _Item_Model_Paint          300a0330 f   ui_shared.obj
 0001:0009f920       _Item_Image_Paint          300a0920 f   ui_shared.obj
 0001:0009f990       _Item_TextScroll_Paint     300a0990 f   ui_shared.obj
 0001:0009fc70       _Item_ListBox_Paint        300a0c70 f   ui_shared.obj
 0001:000a09e0       _Item_OwnerDraw_Paint      300a19e0 f   ui_shared.obj
 0001:000a0ed0       _Item_Paint                300a1ed0 f   ui_shared.obj
 0001:000a1d50       _Menu_Init                 300a2d50 f   ui_shared.obj
 0001:000a1dc0       _Menu_GetFocusedItem       300a2dc0 f   ui_shared.obj
 0001:000a1e20       _Menu_GetFocused           300a2e20 f   ui_shared.obj
 0001:000a1e90       _Menu_ScrollFeeder         300a2e90 f   ui_shared.obj
 0001:000a1f10       _Menu_SetFeederSelection   300a2f10 f   ui_shared.obj
 0001:000a2020       _Menus_AnyFullScreenVisible 300a3020 f   ui_shared.obj
 0001:000a2080       _Menus_ActivateByName      300a3080 f   ui_shared.obj
 0001:000a2180       _Item_Init                 300a3180 f   ui_shared.obj
 0001:000a21c0       _Menu_HandleMouseMove      300a31c0 f   ui_shared.obj
 0001:000a2400       _Menu_Paint                300a3400 f   ui_shared.obj
 0001:000a2600       _Item_ValidateTypeData     300a3600 f   ui_shared.obj
 0001:000a2780       _KeywordHash_Key           300a3780 f   ui_shared.obj
 0001:000a2820       _KeywordHash_Add           300a3820 f   ui_shared.obj
 0001:000a2860       _KeywordHash_Find          300a3860 f   ui_shared.obj
 0001:000a28c0       _ItemParse_name            300a38c0 f   ui_shared.obj
 0001:000a28f0       _ItemParse_focusSound      300a38f0 f   ui_shared.obj
 0001:000a2940       _ItemParse_text            300a3940 f   ui_shared.obj
 0001:000a2970       _ItemParse_descText        300a3970 f   ui_shared.obj
 0001:000a29a0       _ItemParse_text2           300a39a0 f   ui_shared.obj
 0001:000a29d0       _ItemParse_text2alignx     300a39d0 f   ui_shared.obj
 0001:000a2a00       _ItemParse_text2aligny     300a3a00 f   ui_shared.obj
 0001:000a2a30       _ItemParse_group           300a3a30 f   ui_shared.obj
 0001:000a2a60       _UI_InsertG2Pointer        300a3a60 f   ui_shared.obj
 0001:000a2ad0       _UI_ClearG2Pointer         300a3ad0 f   ui_shared.obj
 0001:000a2b10       _UI_CleanupGhoul2          300a3b10 f   ui_shared.obj
 0001:000a2b60       _ItemParse_asset_model_go  300a3b60 f   ui_shared.obj
 0001:000a2b70       _ItemParse_asset_model     300a3b70 f   ui_shared.obj
 0001:000a2be0       _ItemParse_asset_shader    300a3be0 f   ui_shared.obj
 0001:000a2c30       _ItemParse_model_origin    300a3c30 f   ui_shared.obj
 0001:000a2ca0       _ItemParse_model_fovx      300a3ca0 f   ui_shared.obj
 0001:000a2ce0       _ItemParse_model_fovy      300a3ce0 f   ui_shared.obj
 0001:000a2d20       _ItemParse_model_rotation  300a3d20 f   ui_shared.obj
 0001:000a2d60       _ItemParse_model_angle     300a3d60 f   ui_shared.obj
 0001:000a2da0       _ItemParse_model_g2mins    300a3da0 f   ui_shared.obj
 0001:000a2e10       _ItemParse_model_g2maxs    300a3e10 f   ui_shared.obj
 0001:000a2e80       _ItemParse_model_g2scale   300a3e80 f   ui_shared.obj
 0001:000a2ef0       _ItemParse_model_g2skin    300a3ef0 f   ui_shared.obj
 0001:000a2f70       _ItemParse_model_g2anim    300a3f70 f   ui_shared.obj
 0001:000a3030       _ItemParse_model_g2skin_go 300a4030 f   ui_shared.obj
 0001:000a30d0       _ItemParse_model_g2anim_go 300a40d0 f   ui_shared.obj
 0001:000a3170       _ItemParse_rectcvar        300a4170 f   ui_shared.obj
 0001:000a3280       _ItemParse_rect            300a4280 f   ui_shared.obj
 0001:000a32b0       _ItemParse_flag            300a42b0 f   ui_shared.obj
 0001:000a3380       _ItemParse_style           300a4380 f   ui_shared.obj
 0001:000a33c0       _ItemParse_decoration      300a43c0 f   ui_shared.obj
 0001:000a33e0       _ItemParse_notselectable   300a43e0 f   ui_shared.obj
 0001:000a3430       _ItemParse_scrollhidden    300a4430 f   ui_shared.obj
 0001:000a3480       _ItemParse_wrapped         300a4480 f   ui_shared.obj
 0001:000a34a0       _ItemParse_autowrapped     300a44a0 f   ui_shared.obj
 0001:000a34c0       _ItemParse_horizontalscroll 300a44c0 f   ui_shared.obj
 0001:000a34e0       _ItemParse_type            300a44e0 f   ui_shared.obj
 0001:000a3520       _ItemParse_elementwidth    300a4520 f   ui_shared.obj
 0001:000a3560       _ItemParse_elementheight   300a4560 f   ui_shared.obj
 0001:000a35a0       _ItemParse_feeder          300a45a0 f   ui_shared.obj
 0001:000a35d0       _ItemParse_elementtype     300a45d0 f   ui_shared.obj
 0001:000a3620       _ItemParse_columns         300a4620 f   ui_shared.obj
 0001:000a3720       _ItemParse_border          300a4720 f   ui_shared.obj
 0001:000a3750       _ItemParse_bordersize      300a4750 f   ui_shared.obj
 0001:000a3780       _ItemParse_visible         300a4780 f   ui_shared.obj
 0001:000a37c0       _ItemParse_ownerdraw       300a47c0 f   ui_shared.obj
 0001:000a3800       _ItemParse_align           300a4800 f   ui_shared.obj
 0001:000a3830       _ItemParse_isCharacter     300a4830 f   ui_shared.obj
 0001:000a3890       _ItemParse_textalign       300a4890 f   ui_shared.obj
 0001:000a38d0       _ItemParse_textalignx      300a48d0 f   ui_shared.obj
 0001:000a3900       _ItemParse_textaligny      300a4900 f   ui_shared.obj
 0001:000a3930       _ItemParse_textscale       300a4930 f   ui_shared.obj
 0001:000a3960       _ItemParse_textstyle       300a4960 f   ui_shared.obj
 0001:000a3990       _ItemParse_invertyesno     300a4990 f   ui_shared.obj
 0001:000a39c0       _ItemParse_xoffset         300a49c0 f   ui_shared.obj
 0001:000a39f0       _ItemParse_backcolor       300a49f0 f   ui_shared.obj
 0001:000a3a50       _ItemParse_forecolor       300a4a50 f   ui_shared.obj
 0001:000a3ae0       _ItemParse_bordercolor     300a4ae0 f   ui_shared.obj
 0001:000a3b40       _ItemParse_outlinecolor    300a4b40 f   ui_shared.obj
 0001:000a3b70       _ItemParse_background      300a4b70 f   ui_shared.obj
 0001:000a3bc0       _ItemParse_cinematic       300a4bc0 f   ui_shared.obj
 0001:000a3bf0       _ItemParse_doubleClick     300a4bf0 f   ui_shared.obj
 0001:000a3c50       _ItemParse_onFocus         300a4c50 f   ui_shared.obj
 0001:000a3c80       _ItemParse_leaveFocus      300a4c80 f   ui_shared.obj
 0001:000a3cb0       _ItemParse_mouseEnter      300a4cb0 f   ui_shared.obj
 0001:000a3ce0       _ItemParse_mouseExit       300a4ce0 f   ui_shared.obj
 0001:000a3d10       _ItemParse_mouseEnterText  300a4d10 f   ui_shared.obj
 0001:000a3d40       _ItemParse_mouseExitText   300a4d40 f   ui_shared.obj
 0001:000a3d70       _ItemParse_action          300a4d70 f   ui_shared.obj
 0001:000a3da0       _ItemParse_special         300a4da0 f   ui_shared.obj
 0001:000a3dd0       _ItemParse_cvarTest        300a4dd0 f   ui_shared.obj
 0001:000a3e00       _ItemParse_cvar            300a4e00 f   ui_shared.obj
 0001:000a3eb0       _ItemParse_font            300a4eb0 f   ui_shared.obj
 0001:000a3ef0       _ItemParse_maxChars        300a4ef0 f   ui_shared.obj
 0001:000a3f50       _ItemParse_maxPaintChars   300a4f50 f   ui_shared.obj
 0001:000a3fb0       _ItemParse_maxLineChars    300a4fb0 f   ui_shared.obj
 0001:000a4010       _ItemParse_lineHeight      300a5010 f   ui_shared.obj
 0001:000a4070       _ItemParse_cvarFloat       300a5070 f   ui_shared.obj
 0001:000a4110       _ItemParse_cvarStrList     300a5110 f   ui_shared.obj
 0001:000a4330       _ItemParse_cvarFloatList   300a5330 f   ui_shared.obj
 0001:000a44c0       _ItemParse_addColorRange   300a54c0 f   ui_shared.obj
 0001:000a4560       _ItemParse_ownerdrawFlag   300a5560 f   ui_shared.obj
 0001:000a45a0       _ItemParse_enableCvar      300a55a0 f   ui_shared.obj
 0001:000a45e0       _ItemParse_disableCvar     300a55e0 f   ui_shared.obj
 0001:000a4620       _ItemParse_showCvar        300a5620 f   ui_shared.obj
 0001:000a4660       _ItemParse_hideCvar        300a5660 f   ui_shared.obj
 0001:000a46a0       _ItemParse_Appearance_slot 300a56a0 f   ui_shared.obj
 0001:000a46d0       _ItemParse_isSaber         300a56d0 f   ui_shared.obj
 0001:000a46e0       _ItemParse_isSaber2        300a56e0 f   ui_shared.obj
 0001:000a46f0       _Item_SetupKeywordHash     300a56f0 f   ui_shared.obj
 0001:000a4750       _Item_Parse                300a5750 f   ui_shared.obj
 0001:000a4c20       _Item_InitControls         300a5c20 f   ui_shared.obj
 0001:000a4c90       _MenuParse_font            300a5c90 f   ui_shared.obj
 0001:000a4d00       _MenuParse_name            300a5d00 f   ui_shared.obj
 0001:000a4d50       _MenuParse_fullscreen      300a5d50 f   ui_shared.obj
 0001:000a4d90       _MenuParse_rect            300a5d90 f   ui_shared.obj
 0001:000a4dc0       _MenuParse_style           300a5dc0 f   ui_shared.obj
 0001:000a4e00       _MenuParse_visible         300a5e00 f   ui_shared.obj
 0001:000a4e50       _MenuParse_onOpen          300a5e50 f   ui_shared.obj
 0001:000a4e90       _MenuParse_onClose         300a5e90 f   ui_shared.obj
 0001:000a4ed0       _MenuParse_onAccept        300a5ed0 f   ui_shared.obj
 0001:000a4f10       _MenuParse_onESC           300a5f10 f   ui_shared.obj
 0001:000a4f50       _MenuParse_border          300a5f50 f   ui_shared.obj
 0001:000a4f80       _MenuParse_borderSize      300a5f80 f   ui_shared.obj
 0001:000a4fb0       _MenuParse_backcolor       300a5fb0 f   ui_shared.obj
 0001:000a5010       _MenuParse_descAlignment   300a6010 f   ui_shared.obj
 0001:000a5050       _MenuParse_descX           300a6050 f   ui_shared.obj
 0001:000a5090       _MenuParse_descY           300a6090 f   ui_shared.obj
 0001:000a50d0       _MenuParse_descScale       300a60d0 f   ui_shared.obj
 0001:000a5110       _MenuParse_descColor       300a6110 f   ui_shared.obj
 0001:000a5170       _MenuParse_forecolor       300a6170 f   ui_shared.obj
 0001:000a5200       _MenuParse_bordercolor     300a6200 f   ui_shared.obj
 0001:000a5260       _MenuParse_focuscolor      300a6260 f   ui_shared.obj
 0001:000a52c0       _MenuParse_disablecolor    300a62c0 f   ui_shared.obj
 0001:000a5320       _MenuParse_outlinecolor    300a6320 f   ui_shared.obj
 0001:000a5360       _MenuParse_background      300a6360 f   ui_shared.obj
 0001:000a53c0       _MenuParse_cinematic       300a63c0 f   ui_shared.obj
 0001:000a53f0       _MenuParse_ownerdrawFlag   300a63f0 f   ui_shared.obj
 0001:000a5430       _MenuParse_ownerdraw       300a6430 f   ui_shared.obj
 0001:000a5460       _MenuParse_popup           300a6460 f   ui_shared.obj
 0001:000a5490       _MenuParse_outOfBounds     300a6490 f   ui_shared.obj
 0001:000a54c0       _MenuParse_soundLoop       300a64c0 f   ui_shared.obj
 0001:000a5500       _MenuParse_fadeClamp       300a6500 f   ui_shared.obj
 0001:000a5540       _MenuParse_fadeAmount      300a6540 f   ui_shared.obj
 0001:000a5580       _MenuParse_fadeCycle       300a6580 f   ui_shared.obj
 0001:000a55c0       _MenuParse_itemDef         300a65c0 f   ui_shared.obj
 0001:000a56a0       _MenuParse_appearanceIncrement 300a66a0 f   ui_shared.obj
 0001:000a56e0       _Menu_SetupKeywordHash     300a66e0 f   ui_shared.obj
 0001:000a5740       _Menu_Parse                300a6740 f   ui_shared.obj
 0001:000a5850       _Menu_New                  300a6850 f   ui_shared.obj
 0001:000a58b0       _Menu_Count                300a68b0 f   ui_shared.obj
 0001:000a58c0       _Menu_PaintAll             300a68c0 f   ui_shared.obj
 0001:000a59e0       _Menu_Reset                300a69e0 f   ui_shared.obj
 0001:000a59f0       _Display_GetContext        300a69f0 f   ui_shared.obj
 0001:000a5a00       _Display_CaptureItem       300a6a00 f   ui_shared.obj
 0001:000a5a70       _Display_MouseMove         300a6a70 f   ui_shared.obj
 0001:000a5b40       _Display_CursorType        300a6b40 f   ui_shared.obj
 0001:000a5bd0       _Display_HandleKey         300a6bd0 f   ui_shared.obj
 0001:000a5c20       _Display_CacheAll          300a6c20 f   ui_shared.obj
 0001:000a5e80       _WalkerYawAdjust           300a6e80 f   WalkerNPC.obj
 0001:000a5f80       _G_SetWalkerVehicleFunctions 300a6f80 f   WalkerNPC.obj
 0001:000a6480       _G_CreateWalkerNPC         300a7480 f   WalkerNPC.obj
 0001:000a64d6       __fpclear                  300a74d6 f   LIBC:fpinit.obj
 0001:000a64d7       __cfltcvt_init             300a74d7 f   LIBC:fpinit.obj
 0001:000a650f       __fpmath                   300a750f f   LIBC:fpinit.obj
 0001:000a6530       _memset                    300a7530 f   LIBC:memset.obj
 0001:000a6590       __ftol2                    300a7590 f   LIBC:ftol2.obj
 0001:000a6610       _ceil                      300a7610 f   LIBC:ceil_pentium4.obj
 0001:000a6650       __ceil_pentium4            300a7650 f   LIBC:ceil_pentium4.obj
 0001:000a6730       _floor                     300a7730 f   LIBC:floor_pentium4.obj
 0001:000a6770       __floor_pentium4           300a7770 f   LIBC:floor_pentium4.obj
 0001:000a6860       __CIsqrt                   300a7860 f   LIBC:sqrt.obj
 0001:000a6874       _sqrt                      300a7874     LIBC:sqrt.obj
 0001:000a691a       _atof                      300a791a f   LIBC:atof.obj
 0001:000a6965       _atol                      300a7965 f   LIBC:atox.obj
 0001:000a69bd       _atoi                      300a79bd f   LIBC:atox.obj
 0001:000a69c2       _sscanf                    300a79c2 f   LIBC:sscanf.obj
 0001:000a6a00       _strcpy                    300a7a00 f   LIBC:strcat.obj
 0001:000a6a10       _strcat                    300a7a10 f   LIBC:strcat.obj
 0001:000a6b00       _strlen                    300a7b00 f   LIBC:strlen.obj
 0001:000a6b90       _atan2                     300a7b90 f   LIBC:87ctriga.obj
 0001:000a6b9a       __CIatan2                  300a7b9a f   LIBC:87ctriga.obj
 0001:000a6bb0       __CIcos                    300a7bb0 f   LIBC:cos.obj
 0001:000a6bc4       _cos                       300a7bc4     LIBC:cos.obj
 0001:000a6c60       __CIsin                    300a7c60 f   LIBC:sin.obj
 0001:000a6c74       _sin                       300a7c74     LIBC:sin.obj
 0001:000a6d0e       _fabs                      300a7d0e f   LIBC:fabs.obj
 0001:000a6dd0       _strchr                    300a7dd0 f   LIBC:strchr.obj
 0001:000a6dd6       ___from_strstr_to_strchr   300a7dd6     LIBC:strchr.obj
 0001:000a6e90       __chkstk                   300a7e90 f   LIBC:chkstk.obj
 0001:000a6e90       __alloca_probe             300a7e90     LIBC:chkstk.obj
 0001:000a6ed0       _strstr                    300a7ed0 f   LIBC:strstr.obj
 0001:000a6f60       _memcpy                    300a7f60 f   LIBC:memcpy.obj
 0001:000a729d       _abs                       300a829d f   LIBC:abs.obj
 0001:000a72b0       _strcmp                    300a82b0 f   LIBC:strcmp.obj
 0001:000a7338       _sprintf                   300a8338 f   LIBC:sprintf.obj
 0001:000a7390       _rand                      300a8390 f   LIBC:rand.obj
 0001:000a73c0       _strncmp                   300a83c0 f   LIBC:strncmp.obj
 0001:000a73f9       _vsprintf                  300a83f9 f   LIBC:vsprintf.obj
 0001:000a7450       _strncpy                   300a8450 f   LIBC:strncpy.obj
 0001:000a7580       __CItan                    300a8580 f   LIBC:tan.obj
 0001:000a7594       _tan                       300a8594     LIBC:tan.obj
 0001:000a7640       _fmod                      300a8640 f   LIBC:87fmod.obj
 0001:000a764a       __CIfmod                   300a864a f   LIBC:87fmod.obj
 0001:000a7680       __CIacos                   300a8680 f   LIBC:acos.obj
 0001:000a7694       _acos                      300a8694     LIBC:acos.obj
 0001:000a774b       _tolower                   300a874b f   LIBC:tolower.obj
 0001:000a7820       _toupper                   300a8820 f   LIBC:toupper.obj
 0001:000a7900       _memmove                   300a8900 f   LIBC:memmove.obj
 0001:000a7c3d       __CRT_INIT@12              300a8c3d f   LIBC:dllcrt0.obj
 0001:000a7d48       __DllMainCRTStartup@12     300a8d48 f   LIBC:dllcrt0.obj
 0001:000a7e2c       __amsg_exit                300a8e2c f   LIBC:dllcrt0.obj
 0001:000a7e5f       __forcdecpt                300a8e5f f   LIBC:cvt.obj
 0001:000a7eb7       __cropzeros                300a8eb7 f   LIBC:cvt.obj
 0001:000a7f02       __positive                 300a8f02 f   LIBC:cvt.obj
 0001:000a7f1c       __fassign                  300a8f1c f   LIBC:cvt.obj
 0001:000a7f77       __cftoe                    300a8f77 f   LIBC:cvt.obj
 0001:000a8068       __cftof                    300a9068 f   LIBC:cvt.obj
 0001:000a8145       __cftog                    300a9145 f   LIBC:cvt.obj
 0001:000a81ef       __cfltcvt                  300a91ef f   LIBC:cvt.obj
 0001:000a8240       __setdefaultprecision      300a9240 f   LIBC:fp8.obj
 0001:000a8252       __ms_p5_test_fdiv          300a9252 f   LIBC:testfdiv.obj
 0001:000a8292       __ms_p5_mp_test_fdiv       300a9292 f   LIBC:testfdiv.obj
 0001:000a82bb       ___libm_error_support      300a92bb f   LIBC:libm_error.obj
 0001:000a857c       ___sse2_available_init     300a957c f   LIBC:cpu_disp.obj
 0001:000a864a       __ceil_default             300a964a f   LIBC:ceil.obj
 0001:000a871d       __floor_default            300a971d f   LIBC:floor.obj
 0001:000a87f0       __trandisp1                300a97f0 f   LIBC:87disp.obj
 0001:000a8857       __trandisp2                300a9857 f   LIBC:87disp.obj
 0001:000a88e3       __rttospopde               300a98e3     LIBC:87disp.obj
 0001:000a88e8       __rttospop                 300a98e8     LIBC:87disp.obj
 0001:000a88ea       __rtnospop                 300a98ea     LIBC:87disp.obj
 0001:000a88ec       __rttosnpop                300a98ec     LIBC:87disp.obj
 0001:000a88ed       __rtnospopde               300a98ed     LIBC:87disp.obj
 0001:000a88f4       __rtzeropop                300a98f4     LIBC:87disp.obj
 0001:000a88f6       __rtzeronpop               300a98f6     LIBC:87disp.obj
 0001:000a88fb       __rtonepop                 300a98fb     LIBC:87disp.obj
 0001:000a88fd       __rtonenpop                300a98fd     LIBC:87disp.obj
 0001:000a8902       __tosnan1                  300a9902     LIBC:87disp.obj
 0001:000a892d       __nosnan2                  300a992d     LIBC:87disp.obj
 0001:000a892f       __tosnan2                  300a992f     LIBC:87disp.obj
 0001:000a8957       __nan2                     300a9957     LIBC:87disp.obj
 0001:000a8996       __rtindfpop                300a9996     LIBC:87disp.obj
 0001:000a8998       __rtindfnpop               300a9998     LIBC:87disp.obj
 0001:000a89a9       __rttosnpopde              300a99a9     LIBC:87disp.obj
 0001:000a89b3       __rtchsifneg               300a99b3     LIBC:87disp.obj
 0001:000a89c0       __startTwoArgErrorHandling 300a99c0 f   LIBC:genexcep.obj
 0001:000a89d7       __startOneArgErrorHandling 300a99d7 f   LIBC:genexcep.obj
 0001:000a8a20       __twoToTOS                 300a9a20 f   LIBC:common.obj
 0001:000a8a35       __load_CW                  300a9a35 f   LIBC:common.obj
 0001:000a8a4c       __convertTOStoQNaN         300a9a4c f   LIBC:common.obj
 0001:000a8a65       __fload_withFB             300a9a65 f   LIBC:common.obj
 0001:000a8aa8       __checkTOS_withFB          300a9aa8 f   LIBC:common.obj
 0001:000a8abe       __fast_exit                300a9abe f   LIBC:common.obj
 0001:000a8acb       __math_exit                300a9acb f   LIBC:common.obj
 0001:000a8af5       __check_overflow_exit      300a9af5 f   LIBC:common.obj
 0001:000a8b09       __check_range_exit         300a9b09 f   LIBC:common.obj
 0001:000a8bac       __fltin                    300a9bac f   LIBC:cfin.obj
 0001:000a8c43       __isctype                  300a9c43 f   LIBC:isctype.obj
 0001:000a8cc1       __ismbcspace               300a9cc1 f   LIBC:ismbspc.obj
 0001:000a8d60       __allmul                   300a9d60 f   LIBC:llmul.obj
 0001:000a8ddc       __input                    300a9ddc f   LIBC:input.obj
 0001:000a9c6c       __fFATN2                   300aac6c     LIBC:87triga.obj
 0001:000a9cbc       __rtpiby2                  300aacbc     LIBC:87triga.obj
 0001:000a9d00       __cintrindisp2             300aad00 f   LIBC:87cdisp.obj
 0001:000a9d3e       __cintrindisp1             300aad3e f   LIBC:87cdisp.obj
 0001:000a9d74       __ctrandisp2               300aad74 f   LIBC:87cdisp.obj
 0001:000a9efa       __ctrandisp1               300aaefa f   LIBC:87cdisp.obj
 0001:000a9f26       __fload                    300aaf26 f   LIBC:87cdisp.obj
 0001:000a9f62       __raise_exc                300aaf62 f   LIBC:fpexcept.obj
 0001:000aa207       __handle_exc               300ab207 f   LIBC:fpexcept.obj
 0001:000aa42b       __set_errno                300ab42b f   LIBC:fpexcept.obj
 0001:000aa451       __errcode                  300ab451 f   LIBC:fpexcept.obj
 0001:000aa47e       __umatherr                 300ab47e f   LIBC:fpexcept.obj
 0001:000aa51e       __handle_qnan1             300ab51e f   LIBC:fpexcept.obj
 0001:000aa570       __except1                  300ab570 f   LIBC:fpexcept.obj
 0001:000aa628       __set_exp                  300ab628 f   LIBC:util.obj
 0001:000aa652       __sptype                   300ab652 f   LIBC:util.obj
 0001:000aa6ad       __decomp                   300ab6ad f   LIBC:util.obj
 0001:000aa769       __statfp                   300ab769 f   LIBC:fpctrl.obj
 0001:000aa774       __clrfp                    300ab774 f   LIBC:fpctrl.obj
 0001:000aa780       __ctrlfp                   300ab780 f   LIBC:fpctrl.obj
 0001:000aa7a4       __set_statfp               300ab7a4 f   LIBC:fpctrl.obj
 0001:000aa7fa       __flsbuf                   300ab7fa f   LIBC:_flsbuf.obj
 0001:000aa99e       __output                   300ab99e f   LIBC:output.obj
 0001:000ab1a0       _fdiv_main_routine         300ac1a0 f   LIBC:adj_fdiv.obj
 0001:000ab2b7       __adj_fdiv_r               300ac2b7 f   LIBC:adj_fdiv.obj
 0001:000ab756       __fdivp_sti_st             300ac756 f   LIBC:adj_fdiv.obj
 0001:000ab769       __fdivrp_sti_st            300ac769 f   LIBC:adj_fdiv.obj
 0001:000ab77c       __adj_fdiv_m32             300ac77c f   LIBC:adj_fdiv.obj
 0001:000ab7c8       __adj_fdiv_m64             300ac7c8 f   LIBC:adj_fdiv.obj
 0001:000ab814       __adj_fdiv_m16i            300ac814 f   LIBC:adj_fdiv.obj
 0001:000ab848       __adj_fdiv_m32i            300ac848 f   LIBC:adj_fdiv.obj
 0001:000ab87c       __adj_fdivr_m32            300ac87c f   LIBC:adj_fdiv.obj
 0001:000ab8c8       __adj_fdivr_m64            300ac8c8 f   LIBC:adj_fdiv.obj
 0001:000ab914       __adj_fdivr_m16i           300ac914 f   LIBC:adj_fdiv.obj
 0001:000ab948       __adj_fdivr_m32i           300ac948 f   LIBC:adj_fdiv.obj
 0001:000ab97c       __safe_fdiv                300ac97c f   LIBC:adj_fdiv.obj
 0001:000ab991       __safe_fdivr               300ac991 f   LIBC:adj_fdiv.obj
 0001:000ab9a6       __fprem_common             300ac9a6 f   LIBC:adj_fdiv.obj
 0001:000abbac       __adj_fprem                300acbac f   LIBC:adj_fdiv.obj
 0001:000abc5e       __fprem1_common            300acc5e f   LIBC:adj_fdiv.obj
 0001:000abe64       __adj_fprem1               300ace64 f   LIBC:adj_fdiv.obj
 0001:000abf19       __safe_fprem               300acf19 f   LIBC:adj_fdiv.obj
 0001:000abf1f       __safe_fprem1              300acf1f f   LIBC:adj_fdiv.obj
 0001:000abf25       __adj_fpatan               300acf25 f   LIBC:adj_fdiv.obj
 0001:000abf28       __adj_fptan                300acf28 f   LIBC:adj_fdiv.obj
 0001:000abf2b       ___crtLCMapStringA         300acf2b f   LIBC:a_map.obj
 0001:000ac2e7       ___crtExitProcess          300ad2e7 f   LIBC:crt0dat.obj
 0001:000ac317       __cinit                    300ad317 f   LIBC:crt0dat.obj
 0001:000ac442       __exit                     300ad442 f   LIBC:crt0dat.obj
 0001:000ac453       __cexit                    300ad453 f   LIBC:crt0dat.obj
 0001:000ac462       __ioinit                   300ad462 f   LIBC:ioinit.obj
 0001:000ac60d       __ioterm                   300ad60d f   LIBC:ioinit.obj
 0001:000ac630       __setenvp                  300ad630 f   LIBC:stdenvp.obj
 0001:000ac863       __setargv                  300ad863 f   LIBC:stdargv.obj
 0001:000ac905       ___heap_select             300ad905 f   LIBC:heapinit.obj
 0001:000ac91f       __heap_init                300ad91f f   LIBC:heapinit.obj
 0001:000ac970       __heap_term                300ad970 f   LIBC:heapinit.obj
 0001:000ac9ef       ___crtGetEnvironmentStringsA 300ad9ef f   LIBC:a_env.obj
 0001:000acb11       __RTC_Initialize           300adb11 f   LIBC:initsect.obj
 0001:000acb55       __RTC_Terminate            300adb55 f   LIBC:initsect.obj
 0001:000acb99       __XcptFilter               300adb99 f   LIBC:winxfltr.obj
 0001:000acd0a       ___CppXcptFilter           300add0a f   LIBC:winxfltr.obj
 0001:000acd25       _DllMain@12                300add25 f   LIBC:dllmain.obj
 0001:000acd48       __SEH_prolog               300add48 f   LIBC:sehprolg.obj
 0001:000acd83       __SEH_epilog               300add83 f   LIBC:sehprolg.obj
 0001:000acd9c       __except_handler3          300add9c f   LIBC:exsup3.obj
 0001:000ace82       __seh_longjmp_unwind@4     300ade82 f   LIBC:exsup3.obj
 0001:000ace9d       __NMSG_WRITE               300ade9d f   LIBC:crt0msg.obj
 0001:000ad014       __FF_MSGBANNER             300ae014 f   LIBC:crt0msg.obj
 0001:000ad04d       __ZeroTail                 300ae04d f   LIBC:intrncvt.obj
 0001:000ad07f       __IncMan                   300ae07f f   LIBC:intrncvt.obj
 0001:000ad0cc       __RoundMan                 300ae0cc f   LIBC:intrncvt.obj
 0001:000ad13e       __CopyMan                  300ae13e f   LIBC:intrncvt.obj
 0001:000ad159       __IsZeroMan                300ae159 f   LIBC:intrncvt.obj
 0001:000ad172       __ShrMan                   300ae172 f   LIBC:intrncvt.obj
 0001:000ad1ed       __ld12cvt                  300ae1ed f   LIBC:intrncvt.obj
 0001:000ad345       __ld12tod                  300ae345 f   LIBC:intrncvt.obj
 0001:000ad35b       __ld12tof                  300ae35b f   LIBC:intrncvt.obj
 0001:000ad371       __atodbl                   300ae371 f   LIBC:intrncvt.obj
 0001:000ad3ae       __atoflt                   300ae3ae f   LIBC:intrncvt.obj
 0001:000ad3eb       __fptostr                  300ae3eb f   LIBC:_fptostr.obj
 0001:000ad462       ___dtold                   300ae462 f   LIBC:cfout.obj
 0001:000ad51c       __fltout                   300ae51c f   LIBC:cfout.obj
 0001:000ad590       __fptrap                   300ae590 f   LIBC:crt0fp.obj
 0001:000ad6b9       __control87                300ae6b9 f   LIBC:ieee87.obj
 0001:000ad6eb       __controlfp                300ae6eb f   LIBC:ieee87.obj
 0001:000ad701       __matherr                  300ae701 f   LIBC:matherr.obj
 0001:000ad735       @__security_check_cookie@4 300ae735 f   LIBC:secchk.obj
 0001:000ad743       __frnd                     300ae743 f   LIBC:frnd.obj
 0001:000ad754       __87except                 300ae754 f   LIBC:87except.obj
 0001:000ad84c       ___strgtold12              300ae84c f   LIBC:strgtold.obj
 0001:000adcd3       ___crtGetStringTypeA       300aecd3 f   LIBC:a_str.obj
 0001:000ae071       __setmbcp                  300af071 f   LIBC:mbctype.obj
 0001:000ae257       ___initmbctable            300af257 f   LIBC:mbctype.obj
 0001:000ae275       __filbuf                   300af275 f   LIBC:_filbuf.obj
 0001:000ae353       _ungetc                    300af353 f   LIBC:ungetc.obj
 0001:000ae3bf       _isspace                   300af3bf f   LIBC:_ctype.obj
 0001:000ae3e8       _free                      300af3e8 f   LIBC:free.obj
 0001:000ae420       _mbtowc                    300af420 f   LIBC:mbtowc.obj
 0001:000ae4e8       __heap_alloc               300af4e8 f   LIBC:malloc.obj
 0001:000ae52e       __nh_malloc                300af52e f   LIBC:malloc.obj
 0001:000ae55a       _malloc                    300af55a f   LIBC:malloc.obj
 0001:000ae56c       __resetstkoflw             300af56c f   LIBC:resetstk.obj
 0001:000ae64f       __lseek                    300af64f f   LIBC:lseek.obj
 0001:000ae6db       __write                    300af6db f   LIBC:write.obj
 0001:000ae8cb       __getbuf                   300af8cb f   LIBC:_getbuf.obj
 0001:000ae90f       __isatty                   300af90f f   LIBC:isatty.obj
 0001:000ae936       ___initstdio               300af936 f   LIBC:_file.obj
 0001:000ae9dc       ___endstdio                300af9dc f   LIBC:_file.obj
 0001:000ae9f0       _wctomb                    300af9f0 f   LIBC:wctomb.obj
 0001:000aea60       __aulldvrm                 300afa60 f   LIBC:ulldvrm.obj
 0001:000aeaf5       ___ansicp                  300afaf5 f   LIBC:convrtcp.obj
 0001:000aeb38       ___convertcp               300afb38 f   LIBC:convrtcp.obj
 0001:000aed01       __onexit                   300afd01 f   LIBC:onexit.obj
 0001:000aed83       _atexit                    300afd83 f   LIBC:onexit.obj
 0001:000aed95       ___onexitinit              300afd95 f   LIBC:onexit.obj
 0001:000aedbd       ___sbh_heap_init           300afdbd f   LIBC:sbheap.obj
 0001:000aee05       ___sbh_find_block          300afe05 f   LIBC:sbheap.obj
 0001:000aee30       ___sbh_free_block          300afe30 f   LIBC:sbheap.obj
 0001:000af148       ___sbh_alloc_new_region    300b0148 f   LIBC:sbheap.obj
 0001:000af1ff       ___sbh_alloc_new_group     300b01ff f   LIBC:sbheap.obj
 0001:000af305       ___sbh_resize_block        300b0305 f   LIBC:sbheap.obj
 0001:000af5e4       ___sbh_alloc_block         300b05e4 f   LIBC:sbheap.obj
 0001:000af8e0       __global_unwind2           300b08e0 f   LIBC:exsup.obj
 0001:000af922       __local_unwind2            300b0922 f   LIBC:exsup.obj
 0001:000af97a       __NLG_Return2              300b097a     LIBC:exsup.obj
 0001:000af98a       __abnormal_termination     300b098a f   LIBC:exsup.obj
 0001:000af9ad       __NLG_Notify1              300b09ad f   LIBC:exsup.obj
 0001:000af9b6       __NLG_Notify               300b09b6 f   LIBC:exsup.obj
 0001:000af9c9       __NLG_Dispatch             300b09c9     LIBC:exsup.obj
 0001:000af9ce       __ValidateEH3RN            300b09ce f   LIBC:eh3valid.obj
 0001:000afbf7       ___crtMessageBoxA          300b0bf7 f   LIBC:crtmbox.obj
 0001:000afcf0       ___addl                    300b0cf0 f   LIBC:mantold.obj
 0001:000afd11       ___add_12                  300b0d11 f   LIBC:mantold.obj
 0001:000afd6f       ___shl_12                  300b0d6f f   LIBC:mantold.obj
 0001:000afd9d       ___shr_12                  300b0d9d f   LIBC:mantold.obj
 0001:000afdca       ___mtold12                 300b0dca f   LIBC:mantold.obj
 0001:000afea8       _$I10_OUTPUT               300b0ea8 f   LIBC:x10fout.obj
 0001:000b0136       ___security_init_cookie    300b1136 f   LIBC:seccinit.obj
 0001:000b019c       ___security_error_handler  300b119c f   LIBC:secfail.obj
 0001:000b02e4       ___ld12mul                 300b12e4 f   LIBC:tenpow.obj
 0001:000b0516       ___multtenpow12            300b1516 f   LIBC:tenpow.obj
 0001:000b059c       _calloc                    300b159c f   LIBC:calloc.obj
 0001:000b0617       __read                     300b1617 f   LIBC:read.obj
 0001:000b0805       __callnewh                 300b1805 f   LIBC:handler.obj
 0001:000b0820       __dosmaperr                300b1820 f   LIBC:dosmap.obj
 0001:000b087f       __free_osfhnd              300b187f f   LIBC:osfinfo.obj
 0001:000b08f9       __get_osfhandle            300b18f9 f   LIBC:osfinfo.obj
 0001:000b0935       __lseeki64                 300b1935 f   LIBC:lseeki64.obj
 0001:000b09d4       __fcloseall                300b19d4 f   LIBC:closeall.obj
 0001:000b0a2c       __flush                    300b1a2c f   LIBC:fflush.obj
 0001:000b0a89       _fflush                    300b1a89 f   LIBC:fflush.obj
 0001:000b0b31       __flushall                 300b1b31 f   LIBC:fflush.obj
 0001:000b0b3a       _realloc                   300b1b3a f   LIBC:realloc.obj
 0001:000b0c9c       __msize                    300b1c9c f   LIBC:msize.obj
 0001:000b0cd4       _fclose                    300b1cd4 f   LIBC:fclose.obj
 0001:000b0d2a       __commit                   300b1d2a f   LIBC:commit.obj
 0001:000b0d81       __close                    300b1d81 f   LIBC:close.obj
 0001:000b0e34       __freebuf                  300b1e34 f   LIBC:_freebuf.obj
 0001:000b0e60       _RtlUnwind@16              300b1e60 f   kernel32:KERNEL32.dll
 0001:000b0e66       _stricmp                   300b1e66 f   LIBC:stricmp.obj
 0001:000b0e66       __stricmp                  300b1e66 f   LIBC:stricmp.obj
 0001:000b0eb0       ___ascii_stricmp           300b1eb0 f   LIBC:_stricmp.obj
 0002:00000000       __imp__GetCommandLineA@0   300b2000     kernel32:KERNEL32.dll
 0002:00000004       __imp__GetVersionExA@4     300b2004     kernel32:KERNEL32.dll
 0002:00000008       __imp__GetProcAddress@8    300b2008     kernel32:KERNEL32.dll
 0002:0000000c       __imp__GetModuleHandleA@4  300b200c     kernel32:KERNEL32.dll
 0002:00000010       __imp__RaiseException@16   300b2010     kernel32:KERNEL32.dll
 0002:00000014       __imp__LCMapStringA@24     300b2014     kernel32:KERNEL32.dll
 0002:00000018       __imp__WideCharToMultiByte@32 300b2018     kernel32:KERNEL32.dll
 0002:0000001c       __imp__MultiByteToWideChar@24 300b201c     kernel32:KERNEL32.dll
 0002:00000020       __imp__GetLastError@0      300b2020     kernel32:KERNEL32.dll
 0002:00000024       __imp__LCMapStringW@24     300b2024     kernel32:KERNEL32.dll
 0002:00000028       __imp__ExitProcess@4       300b2028     kernel32:KERNEL32.dll
 0002:0000002c       __imp__TerminateProcess@8  300b202c     kernel32:KERNEL32.dll
 0002:00000030       __imp__GetCurrentProcess@0 300b2030     kernel32:KERNEL32.dll
 0002:00000034       __imp__SetHandleCount@4    300b2034     kernel32:KERNEL32.dll
 0002:00000038       __imp__GetStdHandle@4      300b2038     kernel32:KERNEL32.dll
 0002:0000003c       __imp__GetFileType@4       300b203c     kernel32:KERNEL32.dll
 0002:00000040       __imp__GetStartupInfoA@4   300b2040     kernel32:KERNEL32.dll
 0002:00000044       __imp__GetModuleFileNameA@12 300b2044     kernel32:KERNEL32.dll
 0002:00000048       __imp__HeapDestroy@4       300b2048     kernel32:KERNEL32.dll
 0002:0000004c       __imp__HeapCreate@12       300b204c     kernel32:KERNEL32.dll
 0002:00000050       __imp__VirtualFree@12      300b2050     kernel32:KERNEL32.dll
 0002:00000054       __imp__HeapFree@12         300b2054     kernel32:KERNEL32.dll
 0002:00000058       __imp__FreeEnvironmentStringsA@4 300b2058     kernel32:KERNEL32.dll
 0002:0000005c       __imp__GetEnvironmentStrings@0 300b205c     kernel32:KERNEL32.dll
 0002:00000060       __imp__FreeEnvironmentStringsW@4 300b2060     kernel32:KERNEL32.dll
 0002:00000064       __imp__GetEnvironmentStringsW@0 300b2064     kernel32:KERNEL32.dll
 0002:00000068       __imp__UnhandledExceptionFilter@4 300b2068     kernel32:KERNEL32.dll
 0002:0000006c       __imp__DisableThreadLibraryCalls@4 300b206c     kernel32:KERNEL32.dll
 0002:00000070       __imp__WriteFile@20        300b2070     kernel32:KERNEL32.dll
 0002:00000074       __imp__GetStringTypeA@20   300b2074     kernel32:KERNEL32.dll
 0002:00000078       __imp__GetStringTypeW@16   300b2078     kernel32:KERNEL32.dll
 0002:0000007c       __imp__GetACP@0            300b207c     kernel32:KERNEL32.dll
 0002:00000080       __imp__GetOEMCP@0          300b2080     kernel32:KERNEL32.dll
 0002:00000084       __imp__GetCPInfo@8         300b2084     kernel32:KERNEL32.dll
 0002:00000088       __imp__HeapAlloc@12        300b2088     kernel32:KERNEL32.dll
 0002:0000008c       __imp__VirtualProtect@16   300b208c     kernel32:KERNEL32.dll
 0002:00000090       __imp__VirtualAlloc@16     300b2090     kernel32:KERNEL32.dll
 0002:00000094       __imp__GetSystemInfo@4     300b2094     kernel32:KERNEL32.dll
 0002:00000098       __imp__VirtualQuery@12     300b2098     kernel32:KERNEL32.dll
 0002:0000009c       __imp__SetFilePointer@16   300b209c     kernel32:KERNEL32.dll
 0002:000000a0       __imp__GetLocaleInfoA@16   300b20a0     kernel32:KERNEL32.dll
 0002:000000a4       __imp__HeapReAlloc@16      300b20a4     kernel32:KERNEL32.dll
 0002:000000a8       __imp__RtlUnwind@16        300b20a8     kernel32:KERNEL32.dll
 0002:000000ac       __imp__InterlockedExchange@8 300b20ac     kernel32:KERNEL32.dll
 0002:000000b0       __imp__LoadLibraryA@4      300b20b0     kernel32:KERNEL32.dll
 0002:000000b4       __imp__QueryPerformanceCounter@4 300b20b4     kernel32:KERNEL32.dll
 0002:000000b8       __imp__GetTickCount@0      300b20b8     kernel32:KERNEL32.dll
 0002:000000bc       __imp__GetCurrentThreadId@0 300b20bc     kernel32:KERNEL32.dll
 0002:000000c0       __imp__GetCurrentProcessId@0 300b20c0     kernel32:KERNEL32.dll
 0002:000000c4       __imp__GetSystemTimeAsFileTime@4 300b20c4     kernel32:KERNEL32.dll
 0002:000000c8       __imp__ReadFile@20         300b20c8     kernel32:KERNEL32.dll
 0002:000000cc       __imp__SetStdHandle@8      300b20cc     kernel32:KERNEL32.dll
 0002:000000d0       __imp__HeapSize@12         300b20d0     kernel32:KERNEL32.dll
 0002:000000d4       __imp__FlushFileBuffers@4  300b20d4     kernel32:KERNEL32.dll
 0002:000000d8       __imp__CloseHandle@4       300b20d8     kernel32:KERNEL32.dll
 0002:000000dc       \177KERNEL32_NULL_THUNK_DATA 300b20dc     kernel32:KERNEL32.dll
 0002:000000e0       __real@3e4ccccd            300b20e0     AnimalNPC.obj
 0002:000000e4       __real@40800000            300b20e4     AnimalNPC.obj
 0002:000000e8       __real@00000000            300b20e8     AnimalNPC.obj
 0002:000000e8       ??_C@_13NOLLCAOD@?$AA?$AA?$AA?$AA@ 300b20e8     LIBC:a_map.obj
 0002:000000ec       __real@3e8ccccd            300b20ec     AnimalNPC.obj
 0002:000000f0       __real@3f800000            300b20f0     bg_c_saber.obj
 0002:000000f4       __real@42480000            300b20f4     bg_c_saber.obj
 0002:000000f8       __real@42c80000            300b20f8     bg_c_saber.obj
 0002:000000fc       __real@43160000            300b20fc     bg_c_saber.obj
 0002:00000100       __real@43480000            300b2100     bg_c_saber.obj
 0002:00000104       __real@437a0000            300b2104     bg_c_saber.obj
 0002:00000108       __real@43240000            300b2108     bg_c_saber.obj
 0002:00000110       __real@4054000000000000    300b2110     bg_c_saber.obj
 0002:00000118       __real@45c80000            300b2118     bg_c_saber.obj
 0002:0000011c       __real@42800000            300b211c     bg_c_saber.obj
 0002:00000120       __real@3ff0000000000000    300b2120     bg_c_saber.obj
 0002:00000128       __real@43000000            300b2128     bg_c_saber.obj
 0002:0000012c       __real@43960000            300b212c     bg_c_saber.obj
 0002:00000130       __real@45800000            300b2130     bg_c_saber.obj
 0002:00000134       __real@3f333333            300b2134     bg_c_saber.obj
 0002:00000138       __real@42200000            300b2138     bg_c_saber.obj
 0002:0000013c       __real@42000000            300b213c     bg_c_saber.obj
 0002:00000140       __real@457a0000            300b2140     bg_c_saber.obj
 0002:00000144       __real@c33e0000            300b2144     bg_c_saber.obj
 0002:00000148       __real@41c80000            300b2148     bg_c_saber.obj
 0002:0000014c       __real@433e0000            300b214c     bg_c_saber.obj
 0002:00000150       __real@428c0000            300b2150     bg_c_saber.obj
 0002:00000154       __real@41a00000            300b2154     bg_c_saber.obj
 0002:00000158       __real@bf800000            300b2158     bg_c_saber.obj
 0002:0000015c       __real@42a00000            300b215c     bg_c_saber.obj
 0002:00000160       _bgToggleableSurfaceDebris 300b2160     bg_misc.obj
 0002:000001dc       __real@43b40000            300b21dc     bg_misc.obj
 0002:000001e0       __real@400921fb60000000    300b21e0     bg_misc.obj
 0002:000001e8       __real@4066800000000000    300b21e8     bg_misc.obj
 0002:000001f0       __real@c2100000            300b21f0     bg_misc.obj
 0002:000001f4       __real@42100000            300b21f4     bg_misc.obj
 0002:000001f8       __real@c2480000            300b21f8     bg_misc.obj
 0002:000001fc       __real@42300000            300b21fc     bg_misc.obj
 0002:00000200       __real@4079000000000000    300b2200     bg_misc.obj
 0002:00000208       __real@43340000            300b2208     bg_misc.obj
 0002:0000020c       __real@42b40000            300b220c     bg_misc.obj
 0002:00000210       __real@3a83126f            300b2210     bg_misc.obj
 0002:00000214       __real@40490fdb            300b2214     bg_misc.obj
 0002:00000218       __real@3f50624dd2f1a9fc    300b2218     bg_misc.obj
 0002:00000220       __real@44480000            300b2220     bg_misc.obj
 0002:00000228       __real@3fe0000000000000    300b2228     bg_misc.obj
 0002:00000230       __real@42340000            300b2230     bg_misc.obj
 0002:00000234       __real@447a0000            300b2234     bg_panimate.obj
 0002:00000238       __real@3f266666            300b2238     bg_panimate.obj
 0002:0000023c       __real@3f000000            300b223c     bg_panimate.obj
 0002:00000240       __real@3f400000            300b2240     bg_panimate.obj
 0002:00000244       __real@3fc00000            300b2244     bg_panimate.obj
 0002:00000248       __real@3ff4cccccccccccd    300b2248     bg_panimate.obj
 0002:00000250       __real@3ffb333333333333    300b2250     bg_panimate.obj
 0002:00000260       __real@c038000000000000    300b2260     bg_pmove.obj
 0002:00000268       __real@4028000000000000    300b2268     bg_pmove.obj
 0002:00000270       __real@3e800000            300b2270     bg_pmove.obj
 0002:00000274       __real@3f4ccccd            300b2274     bg_pmove.obj
 0002:00000278       __real@41700000            300b2278     bg_pmove.obj
 0002:0000027c       __real@c1700000            300b227c     bg_pmove.obj
 0002:00000280       __real@c3960000            300b2280     bg_pmove.obj
 0002:00000284       __real@bf000000            300b2284     bg_pmove.obj
 0002:00000288       __real@40000000            300b2288     bg_pmove.obj
 0002:0000028c       __real@41800000            300b228c     bg_pmove.obj
 0002:00000290       __real@4059000000000000    300b2290     bg_pmove.obj
 0002:00000298       __real@42700000            300b2298     bg_pmove.obj
 0002:000002a0       __real@3f689374bc6a7efa    300b22a0     bg_pmove.obj
 0002:000002a8       __real@c2000000            300b22a8     bg_pmove.obj
 0002:000002ac       __real@3e000000            300b22ac     bg_pmove.obj
 0002:000002b0       __real@47800000            300b22b0     bg_pmove.obj
 0002:000002b4       __real@bf7fbe77            300b22b4     bg_pmove.obj
 0002:000002b8       __real@3ecccccd            300b22b8     bg_pmove.obj
 0002:000002bc       __real@43c80000            300b22bc     bg_pmove.obj
 0002:000002c0       __real@c2fa0000            300b22c0     bg_pmove.obj
 0002:000002c4       __real@c3000000            300b22c4     bg_pmove.obj
 0002:000002c8       __real@3fc99999a0000000    300b22c8     bg_pmove.obj
 0002:000002d0       __real@40200000            300b22d0     bg_pmove.obj
 0002:000002d8       __real@3fb999999999999a    300b22d8     bg_pmove.obj
 0002:000002e0       __real@41c00000            300b22e0     bg_pmove.obj
 0002:000002e4       __real@c1c00000            300b22e4     bg_pmove.obj
 0002:000002e8       __real@41200000            300b22e8     bg_pmove.obj
 0002:000002ec       __real@c0000000            300b22ec     bg_pmove.obj
 0002:000002f0       __real@c0400000            300b22f0     bg_pmove.obj
 0002:000002f4       __real@c0800000            300b22f4     bg_pmove.obj
 0002:000002f8       __real@c0a00000            300b22f8     bg_pmove.obj
 0002:000002fc       __real@40400000            300b22fc     bg_pmove.obj
 0002:00000300       __real@40a00000            300b2300     bg_pmove.obj
 0002:00000304       __real@469c4000            300b2304     bg_pmove.obj
 0002:00000308       __real@44000000            300b2308     bg_pmove.obj
 0002:00000310       __real@3feccccccccccccd    300b2310     bg_pmove.obj
 0002:00000318       __real@3f76800000000000    300b2318     bg_pmove.obj
 0002:00000320       __real@3d0f5c29            300b2320     bg_pmove.obj
 0002:00000324       __real@44160000            300b2324     bg_pmove.obj
 0002:00000328       __real@4014000000000000    300b2328     bg_pmove.obj
 0002:00000330       __real@3ff8000000000000    300b2330     bg_pmove.obj
 0002:00000338       __real@4018000000000000    300b2338     bg_pmove.obj
 0002:00000340       __real@4004000000000000    300b2340     bg_pmove.obj
 0002:00000348       __real@3f0ccccd            300b2348     bg_pmove.obj
 0002:0000034c       __real@3e99999a            300b234c     bg_pmove.obj
 0002:00000350       __real@3f59999a            300b2350     bg_pmove.obj
 0002:00000354       __real@3ee66666            300b2354     bg_pmove.obj
 0002:00000358       __real@3f19999a            300b2358     bg_pmove.obj
 0002:00000360       __real@3fc999999999999a    300b2360     bg_pmove.obj
 0002:00000368       __real@3fe8000000000000    300b2368     bg_pmove.obj
 0002:00000370       __real@3fd999999999999a    300b2370     bg_pmove.obj
 0002:00000378       __real@3fe999999999999a    300b2378     bg_pmove.obj
 0002:00000380       __real@c1f00000            300b2380     bg_pmove.obj
 0002:00000384       __real@41f00000            300b2384     bg_pmove.obj
 0002:00000388       __real@3fa999999999999a    300b2388     bg_pmove.obj
 0002:00000390       __real@c3b40000            300b2390     bg_pmove.obj
 0002:00000398       __real@3fe3333333333333    300b2398     bg_pmove.obj
 0002:000003a0       __real@3eb33333            300b23a0     bg_pmove.obj
 0002:000003a4       __real@43870000            300b23a4     bg_pmove.obj
 0002:000003a8       __real@c2c80000            300b23a8     bg_pmove.obj
 0002:000003ac       __real@41400000            300b23ac     bg_pmove.obj
 0002:000003b0       __real@43800000            300b23b0     bg_pmove.obj
 0002:000003b4       __real@3dcccccd            300b23b4     bg_pmove.obj
 0002:000003b8       __real@43700000            300b23b8     bg_pmove.obj
 0002:000003c0       __real@405fc00000000000    300b23c0     bg_pmove.obj
 0002:000003c8       __real@42fe0000            300b23c8     bg_pmove.obj
 0002:000003cc       __real@43fa0000            300b23cc     bg_pmove.obj
 0002:000003d0       __real@3fe3333340000000    300b23d0     bg_pmove.obj
 0002:000003d8       __real@41000000            300b23d8     bg_pmove.obj
 0002:000003dc       __real@c52f0000            300b23dc     bg_pmove.obj
 0002:000003e0       __real@3fe6666666666666    300b23e0     bg_pmove.obj
 0002:000003e8       __real@c1800000            300b23e8     bg_pmove.obj
 0002:000003ec       __real@40100000            300b23ec     bg_pmove.obj
 0002:000003f0       __real@43e10000            300b23f0     bg_pmove.obj
 0002:000003f4       __real@c1000000            300b23f4     bg_pmove.obj
 0002:000003f8       __real@43610000            300b23f8     bg_pmove.obj
 0002:000003fc       __real@c3160000            300b23fc     bg_pmove.obj
 0002:00000400       __real@4008000000000000    300b2400     bg_pmove.obj
 0002:00000408       __real@c3480000            300b2408     bg_pmove.obj
 0002:00000410       __real@3fd0000000000000    300b2410     bg_pmove.obj
 0002:00000418       __real@3fd3333333333333    300b2418     bg_pmove.obj
 0002:00000420       __real@40e00000            300b2420     bg_pmove.obj
 0002:00000424       __real@3f8f5c29            300b2424     bg_pmove.obj
 0002:00000428       __real@3f1a36e2eb1c432d    300b2428     bg_pmove.obj
 0002:00000430       __real@c2800000            300b2430     bg_pmove.obj
 0002:00000434       __real@41900000            300b2434     bg_pmove.obj
 0002:00000438       __real@471c4000            300b2438     bg_pmove.obj
 0002:00000440       __real@3f847ae147ae147b    300b2440     bg_saberLoad.obj
 0002:00000448       __real@c2340000            300b2448     bg_slidemove.obj
 0002:0000044c       __real@44fa0000            300b244c     bg_slidemove.obj
 0002:00000450       __real@41300000            300b2450     bg_slidemove.obj
 0002:00000454       __real@42840000            300b2454     bg_slidemove.obj
 0002:00000458       __real@0000000000000000    300b2458     bg_vehicleLoad.obj
 0002:00000460       __real@404e000000000000    300b2460     cg_draw.obj
 0002:00000468       __real@409f400000000000    300b2468     cg_draw.obj
 0002:00000470       __real@3fd126e978d4fdf4    300b2470     cg_draw.obj
 0002:00000478       __real@bfe0000000000000    300b2478     cg_draw.obj
 0002:00000480       __real@44af0000            300b2480     cg_draw.obj
 0002:00000488       __real@3f747ae147ae147b    300b2488     cg_draw.obj
 0002:00000490       __real@42f00000            300b2490     cg_draw.obj
 0002:00000498       __real@4082200000000000    300b2498     cg_draw.obj
 0002:000004a0       __real@453b8000            300b24a0     cg_draw.obj
 0002:000004a4       __real@44f78001            300b24a4     cg_draw.obj
 0002:000004a8       __real@44610000            300b24a8     cg_draw.obj
 0002:000004ac       __real@c3fa0000            300b24ac     cg_draw.obj
 0002:000004b0       __real@45505555            300b24b0     cg_draw.obj
 0002:000004b4       __real@45ce4001            300b24b4     cg_draw.obj
 0002:000004b8       __real@41100000            300b24b8     cg_draw.obj
 0002:000004bc       __real@44960000            300b24bc     cg_draw.obj
 0002:000004c0       __real@461c4000            300b24c0     cg_draw.obj
 0002:000004c4       __real@3f666666            300b24c4     cg_draw.obj
 0002:000004c8       __real@44800000            300b24c8     cg_draw.obj
 0002:000004cc       __real@44110000            300b24cc     cg_draw.obj
 0002:000004d0       __real@42440000            300b24d0     cg_draw.obj
 0002:000004d8       __real@4060aaaaaaaaaaab    300b24d8     cg_draw.obj
 0002:000004e0       __real@43f00000            300b24e0     cg_draw.obj
 0002:000004e4       __real@44200000            300b24e4     cg_draw.obj
 0002:000004e8       __real@42cc0000            300b24e8     cg_draw.obj
 0002:000004ec       __real@42c00000            300b24ec     cg_draw.obj
 0002:000004f0       __real@3c23d70a            300b24f0     cg_draw.obj
 0002:000004f4       __real@42400000            300b24f4     cg_draw.obj
 0002:000004f8       __real@42c60000            300b24f8     cg_draw.obj
 0002:000004fc       __real@41e00000            300b24fc     cg_draw.obj
 0002:00000500       __real@44098000            300b2500     cg_draw.obj
 0002:00000504       __real@44bb8000            300b2504     cg_draw.obj
 0002:00000508       __real@43060000            300b2508     cg_draw.obj
 0002:00000510       __real@406e000000000000    300b2510     cg_draw.obj
 0002:00000518       __real@4074000000000000    300b2518     cg_draw.obj
 0002:00000520       __real@4067c00000000000    300b2520     cg_draw.obj
 0002:00000528       __real@42652f1b            300b2528     cg_draw.obj
 0002:0000052c       __real@41940000            300b252c     cg_draw.obj
 0002:00000530       __real@42680000            300b2530     cg_draw.obj
 0002:00000534       __real@3e19999a            300b2534     cg_draw.obj
 0002:00000538       __real@3fd3333340000000    300b2538     cg_draw.obj
 0002:00000540       __real@42ce0000            300b2540     cg_draw.obj
 0002:00000544       __real@3f7ae148            300b2544     cg_draw.obj
 0002:00000548       __real@438d0000            300b2548     cg_draw.obj
 0002:00000550       __real@3fe99999a0000000    300b2550     cg_draw.obj
 0002:00000558       __real@3fe6666660000000    300b2558     cg_draw.obj
 0002:00000560       __real@3fb99999a0000000    300b2560     cg_draw.obj
 0002:00000568       __real@46fffe00            300b2568     cg_draw.obj
 0002:0000056c       __real@43220000            300b256c     cg_draw.obj
 0002:00000570       __real@4084000000000000    300b2570     cg_draw.obj
 0002:00000578       __real@3ff199999999999a    300b2578     cg_draw.obj
 0002:00000580       __real@3fd6666660000000    300b2580     cg_draw.obj
 0002:00000588       __real@3fb47ae140000000    300b2588     cg_draw.obj
 0002:00000590       __real@43a00000            300b2590     cg_draw.obj
 0002:00000594       __real@3d4ccccd            300b2594     cg_draw.obj
 0002:00000598       __real@40c00000            300b2598     cg_draw.obj
 0002:0000059c       __real@48000000            300b259c     cg_draw.obj
 0002:000005a0       __real@4006666666666666    300b25a0     cg_draw.obj
 0002:000005a8       __real@4050000000000000    300b25a8     cg_draw.obj
 0002:000005b0       __real@407e000000000000    300b25b0     cg_draw.obj
 0002:000005b8       __real@3fa99999a0000000    300b25b8     cg_draw.obj
 0002:000005c0       __real@3fc3333340000000    300b25c0     cg_draw.obj
 0002:000005c8       __real@408f400000000000    300b25c8     cg_draw.obj
 0002:000005d0       __real@3ed4f8b588e368f1    300b25d0     cg_draw.obj
 0002:000005d8       __real@3fc3333333333333    300b25d8     cg_draw.obj
 0002:000005e0       __real@460ca000            300b25e0     cg_draw.obj
 0002:000005e8       __real@403e000000000000    300b25e8     cg_drawtools.obj
 0002:000005f0       __real@4040800000000000    300b25f0     cg_drawtools.obj
 0002:000005f8       __real@3fb0000000000000    300b25f8     cg_drawtools.obj
 0002:00000600       __real@4069000000000000    300b2600     cg_drawtools.obj
 0002:00000608       __real@3f99999a            300b2608     cg_drawtools.obj
 0002:0000060c       __real@437f0000            300b260c     cg_effects.obj
 0002:00000610       __real@3f9eb851e0000000    300b2610     cg_effects.obj
 0002:00000618       __real@3c1374bc            300b2618     cg_effects.obj
 0002:00000620       __real@3f2a36e2eb1c432d    300b2620     cg_effects.obj
 0002:00000628       __real@435c0000            300b2628     cg_effects.obj
 0002:00000630       __real@4044000000000000    300b2630     cg_effects.obj
 0002:00000638       __real@4052c00000000000    300b2638     cg_effects.obj
 0002:00000640       __real@4062c00000000000    300b2640     cg_effects.obj
 0002:00000648       __real@3fa00000            300b2648     cg_effects.obj
 0002:0000064c       __real@3ca3d70a            300b264c     cg_effects.obj
 0002:00000650       __real@4020000000000000    300b2650     cg_effects.obj
 0002:00000658       __real@4030000000000000    300b2658     cg_effects.obj
 0002:00000660       __real@4034000000000000    300b2660     cg_ents.obj
 0002:00000668       __real@c1900000            300b2668     cg_ents.obj
 0002:0000066c       __real@45000000            300b266c     cg_ents.obj
 0002:00000670       __real@40d33333            300b2670     cg_ents.obj
 0002:00000674       __real@3b03126f            300b2674     cg_ents.obj
 0002:00000678       __real@3ba3d70a            300b2678     cg_ents.obj
 0002:0000067c       __real@3b449ba6            300b267c     cg_ents.obj
 0002:00000680       __real@406fc00000000000    300b2680     cg_ents.obj
 0002:00000688       __real@3fb47ae147ae147b    300b2688     cg_ents.obj
 0002:00000690       __real@406fe00000000000    300b2690     cg_ents.obj
 0002:00000698       __real@3fd99999a0000000    300b2698     cg_ents.obj
 0002:000006a0       __real@3d23d70a            300b26a0     cg_ents.obj
 0002:000006a4       __real@45480000            300b26a4     cg_ents.obj
 0002:000006a8       __real@468ca000            300b26a8     cg_ents.obj
 0002:000006ac       __real@c4800000            300b26ac     cg_ents.obj
 0002:000006b0       __real@41500000            300b26b0     cg_ents.obj
 0002:000006b8       __real@4010000000000000    300b26b8     cg_ents.obj
 0002:000006c0       __real@3ee4f8b588e368f1    300b26c0     cg_ents.obj
 0002:000006c8       __real@4076800000000000    300b26c8     cg_ents.obj
 0002:000006d0       __real@4070000000000000    300b26d0     cg_ents.obj
 0002:000006d8       __real@40a0000000000000    300b26d8     cg_ents.obj
 0002:000006e0       __real@459c4000            300b26e0     cg_event.obj
 0002:000006e8       __real@c024000000000000    300b26e8     cg_localents.obj
 0002:000006f0       __real@42dc0000            300b26f0     cg_localents.obj
 0002:000006f4       __real@447f0000            300b26f4     cg_localents.obj
 0002:000006f8       __real@4045000000000000    300b26f8     cg_localents.obj
 0002:00000700       __real@3fd51eb851eb851f    300b2700     cg_localents.obj
 0002:00000708       __real@c1a00000            300b2708     cg_marks.obj
 0002:00000710       __real@407c200000000000    300b2710     cg_marks.obj
 0002:00000718       __real@40a7700000000000    300b2718     cg_marks.obj
 0002:00000720       __real@4000000000000000    300b2720     cg_marks.obj
 0002:00000728       __real@4049000000000000    300b2728     cg_marks.obj
 0002:00000730       __real@4024000000000000    300b2730     cg_marks.obj
 0002:00000738       __real@4066600000000000    300b2738     cg_marks.obj
 0002:00000740       __real@3fe199999999999a    300b2740     cg_marks.obj
 0002:00000748       __real@bff0000000000000    300b2748     cg_marks.obj
 0002:00000750       __real@407f400000000000    300b2750     cg_marks.obj
 0002:00000758       __real@40ab580000000000    300b2758     cg_marks.obj
 0002:00000760       __real@4cbebc20            300b2760     cg_players.obj
 0002:00000764       __real@3f733333            300b2764     cg_players.obj
 0002:00000768       __real@3ff6666666666666    300b2768     cg_players.obj
 0002:00000770       __real@3f59b34ce68019b4    300b2770     cg_players.obj
 0002:00000778       __real@3d99999a            300b2778     cg_players.obj
 0002:0000077c       __real@3fb33333            300b277c     cg_players.obj
 0002:00000780       __real@43570000            300b2780     cg_players.obj
 0002:00000784       __real@3cf5c28f            300b2784     cg_players.obj
 0002:00000788       __real@4022000000000000    300b2788     cg_players.obj
 0002:00000790       __real@3c343958            300b2790     cg_players.obj
 0002:00000794       __real@3f2aa64c            300b2794     cg_players.obj
 0002:00000798       __real@3eaaa64c            300b2798     cg_players.obj
 0002:000007a0       __real@4060000000000000    300b27a0     cg_players.obj
 0002:000007a8       __real@3b83126f            300b27a8     cg_players.obj
 0002:000007b0       __real@3ff921fb60000000    300b27b0     cg_players.obj
 0002:000007b8       __real@3f70624dd2f1a9fc    300b27b8     cg_players.obj
 0002:000007c0       __real@425c0000            300b27c0     cg_players.obj
 0002:000007c4       __real@40c90fdb            300b27c4     cg_players.obj
 0002:000007c8       __real@c1580000            300b27c8     cg_players.obj
 0002:000007cc       __real@c1180000            300b27cc     cg_players.obj
 0002:000007d0       __real@43740000            300b27d0     cg_players.obj
 0002:000007d4       __real@3ef9db23            300b27d4     cg_players.obj
 0002:000007d8       __real@c25c0000            300b27d8     cg_players.obj
 0002:000007dc       __real@3f70a3d7            300b27dc     cg_players.obj
 0002:000007e0       __real@c2280000            300b27e0     cg_players.obj
 0002:000007e4       __real@43b48000            300b27e4     cg_turret.obj
 0002:000007e8       __real@3f9eb851eb851eb8    300b27e8     cg_turret.obj
 0002:000007f0       __real@43200000            300b27f0     cg_view.obj
 0002:000007f8       __real@c054000000000000    300b27f8     cg_view.obj
 0002:00000800       __real@4056800000000000    300b2800     cg_view.obj
 0002:00000808       __real@bfe8000000000000    300b2808     cg_view.obj
 0002:00000810       __real@c2a00000            300b2810     cg_view.obj
 0002:00000818       __real@c056400000000000    300b2818     cg_view.obj
 0002:00000820       __real@4056400000000000    300b2820     cg_view.obj
 0002:00000828       __real@c32a0000            300b2828     cg_view.obj
 0002:0000082c       __real@43020000            300b282c     cg_view.obj
 0002:00000830       __real@c1200000            300b2830     cg_view.obj
 0002:00000838       __real@3f947ae147ae147b    300b2838     cg_view.obj
 0002:00000840       __real@405cc00000000000    300b2840     cg_view.obj
 0002:00000848       __real@42c20000            300b2848     cg_view.obj
 0002:00000850       __real@bfc999999999999a    300b2850     cg_weapons.obj
 0002:00000858       __real@4072c00000000000    300b2858     cg_weapons.obj
 0002:00000860       __real@41600000            300b2860     cg_weapons.obj
 0002:00000864       __real@42380000            300b2864     cg_weapons.obj
 0002:00000868       __real@c4fa0000            300b2868     FighterNPC.obj
 0002:0000086c       __real@46192000            300b286c     FighterNPC.obj
 0002:00000870       __real@3faaaaab            300b2870     FighterNPC.obj
 0002:00000878       __real@4029000000000000    300b2878     FighterNPC.obj
 0002:00000880       __real@c2700000            300b2880     FighterNPC.obj
 0002:00000884       __real@c3340000            300b2884     q_math.obj
 0002:00000888       __real@4066c16c16c16c17    300b2888     q_math.obj
 0002:00000890       __real@3c8efa35            300b2890     q_math.obj
 0002:00000894       __real@3f355555            300b2894     q_math.obj
 0002:00000898       __real@47000000            300b2898     q_math.obj
 0002:000008a0       __real@4039000000000000    300b28a0     SpeederNPC.obj
 0002:000008d0       __real@4040000000000000    300b28d0     ui_shared.obj
 0002:000008d8       __real@4058000000000000    300b28d8     ui_shared.obj
 0002:000008e0       __real@405ca5dc0d03cf26    300b28e0     ui_shared.obj
 0002:000008e8       __real@402e000000000000    300b28e8     ui_shared.obj
 0002:000008f0       __real@41980000            300b28f0     ui_shared.obj
 0002:000009ac       ??_C@_05KLBDPFGC@e?$CL000?$AA@ 300b29ac     LIBC:cvt.obj
 0002:000009b8       __real@4150017ec0000000    300b29b8     LIBC:testfdiv.obj
 0002:000009c0       __real@4147ffff80000000    300b29c0     LIBC:testfdiv.obj
 0002:000009c8       ??_C@_0BK@NHEOCAHP@IsProcessorFeaturePresent?$AA@ 300b29c8     LIBC:testfdiv.obj
 0002:000009e4       ??_C@_08CPNIBGIE@KERNEL32?$AA@ 300b29e4     LIBC:testfdiv.obj
 0002:00000a58       ??_C@_04MLLJIGOK@atan?$AA@ 300b2a58     LIBC:libm_error.obj
 0002:00000a60       ??_C@_04GFPJNGEK@ceil?$AA@ 300b2a60     LIBC:libm_error.obj
 0002:00000a68       ??_C@_05PBJFFIGL@floor?$AA@ 300b2a68     LIBC:libm_error.obj
 0002:00000a70       ??_C@_04EHEDPDJG@modf?$AA@ 300b2a70     LIBC:libm_error.obj
 0002:00000a78       ??_C@_04HPAFEEIN@exp2?$AA@ 300b2a78     LIBC:libm_error.obj
 0002:00000a80       ??_C@_05EOHGHCHD@exp10?$AA@ 300b2a80     LIBC:libm_error.obj
 0002:00000a88       ??_C@_04KGLCPMCP@log2?$AA@ 300b2a88     LIBC:libm_error.obj
 0002:00000a90       ??_C@_03JGHBODFD@pow?$AA@  300b2a90     LIBC:libm_error.obj
 0002:00000a94       ??_C@_03MGHMBJCF@log?$AA@  300b2a94     LIBC:libm_error.obj
 0002:00000a98       ??_C@_05HGHHAHAP@log10?$AA@ 300b2a98     LIBC:libm_error.obj
 0002:00000aa0       ??_C@_03KHJOGHMM@exp?$AA@  300b2aa0     LIBC:libm_error.obj
 0002:00000ab4       ??_C@_0N@FFJGBINN@AuthenticAMD?$AA@ 300b2ab4     LIBC:cpu_disp.obj
 0002:00000ad8       __DEFAULT_CW_in_mem        300b2ad8     LIBC:common.obj
 0002:00000ada       __pi_by_2_to_61            300b2ada     LIBC:common.obj
 0002:00000b18       ___newctype                300b2b18     LIBC:ctype.obj
 0002:00000e18       __wctype                   300b2e18     LIBC:ctype.obj
 0002:00001060       ??_C@_0L@KDOEJCKC@_nextafter?$AA@ 300b3060     LIBC:fpexcept.obj
 0002:0000106c       ??_C@_05JGDBENOH@_logb?$AA@ 300b306c     LIBC:fpexcept.obj
 0002:00001074       ??_C@_03ONILCKOB@_yn?$AA@  300b3074     LIBC:fpexcept.obj
 0002:00001078       ??_C@_03NAKIGLHK@_y1?$AA@  300b3078     LIBC:fpexcept.obj
 0002:0000107c       ??_C@_03MJLDFKDL@_y0?$AA@  300b307c     LIBC:fpexcept.obj
 0002:00001080       ??_C@_05GKKHEGJL@frexp?$AA@ 300b3080     LIBC:fpexcept.obj
 0002:00001088       ??_C@_04KEPJIHGP@fmod?$AA@ 300b3088     LIBC:fpexcept.obj
 0002:00001090       ??_C@_06MEIMCGCF@_hypot?$AA@ 300b3090     LIBC:fpexcept.obj
 0002:00001098       ??_C@_05KBKMEMPO@_cabs?$AA@ 300b3098     LIBC:fpexcept.obj
 0002:000010a0       ??_C@_05CEJMAHNP@ldexp?$AA@ 300b30a0     LIBC:fpexcept.obj
 0002:000010a8       ??_C@_04ODHECPBC@fabs?$AA@ 300b30a8     LIBC:fpexcept.obj
 0002:000010b0       ??_C@_03IIINPABG@tan?$AA@  300b30b0     LIBC:fpexcept.obj
 0002:000010b4       ??_C@_03LALBNOCG@cos?$AA@  300b30b4     LIBC:fpexcept.obj
 0002:000010b8       ??_C@_03BLEJJJBH@sin?$AA@  300b30b8     LIBC:fpexcept.obj
 0002:000010bc       ??_C@_04EIAKFFMI@sqrt?$AA@ 300b30bc     LIBC:fpexcept.obj
 0002:000010c4       ??_C@_05KNGEOGJB@atan2?$AA@ 300b30c4     LIBC:fpexcept.obj
 0002:000010cc       ??_C@_04PDIFKINK@acos?$AA@ 300b30cc     LIBC:fpexcept.obj
 0002:000010d4       ??_C@_04FIHNOPOL@asin?$AA@ 300b30d4     LIBC:fpexcept.obj
 0002:000010dc       ??_C@_04FJHINJAO@tanh?$AA@ 300b30dc     LIBC:fpexcept.obj
 0002:000010e4       ??_C@_04HPJJNFIM@cosh?$AA@ 300b30e4     LIBC:fpexcept.obj
 0002:000010ec       ??_C@_04COOMCNPB@sinh?$AA@ 300b30ec     LIBC:fpexcept.obj
 0002:000010f8       ___lookuptable             300b30f8     LIBC:output.obj
 0002:00001154       ??_C@_1O@CEDCILHN@?$AA?$CI?$AAn?$AAu?$AAl?$AAl?$AA?$CJ?$AA?$AA@ 300b3154     LIBC:output.obj
 0002:00001164       ??_C@_06OJHGLDPL@?$CInull?$CJ?$AA@ 300b3164     LIBC:output.obj
 0002:00001194       ??_C@_0P@MIGLKIOC@CorExitProcess?$AA@ 300b3194     LIBC:crt0dat.obj
 0002:000011a4       ??_C@_0M@MBOPBNBK@mscoree?4dll?$AA@ 300b31a4     LIBC:crt0dat.obj
 0002:000011cc       ??_C@_0P@GGKDKEEG@runtime?5error?5?$AA@ 300b31cc     LIBC:crt0msg.obj
 0002:000011dc       ??_C@_02PCIJFNDE@?$AN?6?$AA@ 300b31dc     LIBC:crt0msg.obj
 0002:000011e0       ??_C@_0O@MJNIPGOH@TLOSS?5error?$AN?6?$AA@ 300b31e0     LIBC:crt0msg.obj
 0002:000011f0       ??_C@_0N@BONNPDHF@SING?5error?$AN?6?$AA@ 300b31f0     LIBC:crt0msg.obj
 0002:00001200       ??_C@_0P@MBDAJNE@DOMAIN?5error?$AN?6?$AA@ 300b3200     LIBC:crt0msg.obj
 0002:00001210       ??_C@_0KC@BDDGGBEJ@R6029?$AN?6?9?5This?5application?5cannot@ 300b3210     LIBC:crt0msg.obj
 0002:000012b4       ??_C@_0CF@KJDAIALP@R6028?$AN?6?9?5unable?5to?5initialize?5he@ 300b32b4     LIBC:crt0msg.obj
 0002:000012dc       ??_C@_0DF@GAKBPDFP@R6027?$AN?6?9?5not?5enough?5space?5for?5lo@ 300b32dc     LIBC:crt0msg.obj
 0002:00001314       ??_C@_0DF@IBLNNAIG@R6026?$AN?6?9?5not?5enough?5space?5for?5st@ 300b3314     LIBC:crt0msg.obj
 0002:0000134c       ??_C@_0CG@IOHKGFNJ@R6025?$AN?6?9?5pure?5virtual?5function?5c@ 300b334c     LIBC:crt0msg.obj
 0002:00001374       ??_C@_0DF@JIJJFJDC@R6024?$AN?6?9?5not?5enough?5space?5for?5_o@ 300b3374     LIBC:crt0msg.obj
 0002:000013ac       ??_C@_0CJ@EGEJHFME@R6019?$AN?6?9?5unable?5to?5open?5console?5@ 300b33ac     LIBC:crt0msg.obj
 0002:000013d8       ??_C@_0CB@GNHNIELH@R6018?$AN?6?9?5unexpected?5heap?5error?$AN?6@ 300b33d8     LIBC:crt0msg.obj
 0002:000013fc       ??_C@_0CN@FOLDKNG@R6017?$AN?6?9?5unexpected?5multithread?5@ 300b33fc     LIBC:crt0msg.obj
 0002:0000142c       ??_C@_0CM@FAHFJNHO@R6016?$AN?6?9?5not?5enough?5space?5for?5th@ 300b342c     LIBC:crt0msg.obj
 0002:00001458       ??_C@_0JG@LBKMGKLD@?$AN?6This?5application?5has?5requested@ 300b3458     LIBC:crt0msg.obj
 0002:000014f0       ??_C@_0CM@FLCNIPKK@R6009?$AN?6?9?5not?5enough?5space?5for?5en@ 300b34f0     LIBC:crt0msg.obj
 0002:0000151c       ??_C@_0CK@KMMJOAPP@R6008?$AN?6?9?5not?5enough?5space?5for?5ar@ 300b351c     LIBC:crt0msg.obj
 0002:00001548       ??_C@_0CF@HOHMHDEK@R6002?$AN?6?9?5floating?5point?5not?5load@ 300b3548     LIBC:crt0msg.obj
 0002:00001570       ??_C@_0CF@GOGNBNAK@Microsoft?5Visual?5C?$CL?$CL?5Runtime?5Lib@ 300b3570     LIBC:crt0msg.obj
 0002:00001598       ??_C@_02PHMGELLB@?6?6?$AA@ 300b3598     LIBC:crt0msg.obj
 0002:0000159c       ??_C@_0BK@OFGJDLJJ@Runtime?5Error?$CB?6?6Program?3?5?$AA@ 300b359c     LIBC:crt0msg.obj
 0002:000015b8       ??_C@_03KHICJKCI@?4?4?4?$AA@ 300b35b8     LIBC:crt0msg.obj
 0002:000015bc       ??_C@_0BH@DNAGHKFM@?$DMprogram?5name?5unknown?$DO?$AA@ 300b35bc     LIBC:crt0msg.obj
 0002:00001604       ??_C@_0BI@DFKBFLJE@GetProcessWindowStation?$AA@ 300b3604     LIBC:crtmbox.obj
 0002:0000161c       ??_C@_0BK@CIDNPOGP@GetUserObjectInformationA?$AA@ 300b361c     LIBC:crtmbox.obj
 0002:00001638       ??_C@_0BD@HHGDFDBJ@GetLastActivePopup?$AA@ 300b3638     LIBC:crtmbox.obj
 0002:0000164c       ??_C@_0BA@HNOPNCHB@GetActiveWindow?$AA@ 300b364c     LIBC:crtmbox.obj
 0002:0000165c       ??_C@_0M@CHKKJDAI@MessageBoxA?$AA@ 300b365c     LIBC:crtmbox.obj
 0002:00001668       ??_C@_0L@GMPLCCII@user32?4dll?$AA@ 300b3668     LIBC:crtmbox.obj
 0002:00001674       ??_C@_06IMKFLFPG@1?$CDQNAN?$AA@ 300b3674     LIBC:x10fout.obj
 0002:0000167c       ??_C@_05DNEBIAHO@1?$CDINF?$AA@ 300b367c     LIBC:x10fout.obj
 0002:00001684       ??_C@_05PHHOCPM@1?$CDIND?$AA@ 300b3684     LIBC:x10fout.obj
 0002:0000168c       ??_C@_06PGGFOGJG@1?$CDSNAN?$AA@ 300b368c     LIBC:x10fout.obj
 0002:00001694       ??_C@_09KLGCKDOD@Program?3?5?$AA@ 300b3694     LIBC:secfail.obj
 0002:000016a0       ??_C@_0KA@JEHFIFGP@A?5buffer?5overrun?5has?5been?5detect@ 300b36a0     LIBC:secfail.obj
 0002:00001740       ??_C@_0BJ@MDEKIEOJ@Buffer?5overrun?5detected?$CB?$AA@ 300b3740     LIBC:secfail.obj
 0002:00001760       ??_C@_0LB@BPLHHLFD@A?5security?5error?5of?5unknown?5caus@ 300b3760     LIBC:secfail.obj
 0002:00001814       ??_C@_0CD@GMKACBEK@Unknown?5security?5failure?5detecte@ 300b3814     LIBC:secfail.obj
 0002:00001848       __load_config_used         300b3848     LIBC:loadcfg.obj
 0002:00001890       ___safe_se_handler_table   300b3890     <linker-defined>
 0002:00001898       ___rtc_iaa                 300b3898     LIBC:initsect.obj
 0002:0000189c       ___rtc_izz                 300b389c     LIBC:initsect.obj
 0002:000018a0       ___rtc_taa                 300b38a0     LIBC:initsect.obj
 0002:000018a4       ___rtc_tzz                 300b38a4     LIBC:initsect.obj
 0002:000018a8       __IMPORT_DESCRIPTOR_KERNEL32 300b38a8     kernel32:KERNEL32.dll
 0002:000018bc       __NULL_IMPORT_DESCRIPTOR   300b38bc     kernel32:KERNEL32.dll
 0003:00000000       ___xc_a                    300b4000     LIBC:crt0init.obj
 0003:00000008       ___xc_z                    300b4008     LIBC:crt0init.obj
 0003:0000000c       ___xi_a                    300b400c     LIBC:crt0init.obj
 0003:00000020       ___xi_z                    300b4020     LIBC:crt0init.obj
 0003:00000024       ___xp_a                    300b4024     LIBC:crt0init.obj
 0003:0000002c       ___xp_z                    300b402c     LIBC:crt0init.obj
 0003:00000030       ___xt_a                    300b4030     LIBC:crt0init.obj
 0003:00000034       ___xt_z                    300b4034     LIBC:crt0init.obj
 0003:00000818       _saberMoveData             300b4818     bg_c_saber.obj
 0003:00002168       _transitionMove            300b6168     bg_c_saber.obj
 0003:00002268       _saberMoveTransitionAngle  300b6268     bg_c_saber.obj
 0003:00002368       _bg_parryDebounce          300b6368     bg_c_saber.obj
 0003:000024f8       _bgToggleableSurfaces      300b64f8     bg_misc.obj
 0003:000026f8       _bg_customSiegeSoundNames  300b66f8     bg_misc.obj
 0003:000027d0       _forceMasteryLevels        300b67d0     bg_misc.obj
 0003:000027f0       _forceMasteryPoints        300b67f0     bg_misc.obj
 0003:00002810       _bgForcePowerCost          300b6810     bg_misc.obj
 0003:00002930       _forcePowerSorted          300b6930     bg_misc.obj
 0003:00002978       _forcePowerDarkLight       300b6978     bg_misc.obj
 0003:000029c0       _WeaponReadyAnim           300b69c0     bg_misc.obj
 0003:00002a10       _WeaponReadyLegsAnim       300b6a10     bg_misc.obj
 0003:00002a60       _WeaponAttackAnim          300b6a60     bg_misc.obj
 0003:00004880       _bg_itemlist               300b8880     bg_misc.obj
 0003:000053e0       _bg_numItems               300b93e0     bg_misc.obj
 0003:00005ca8       _eventnames                300b9ca8     bg_misc.obj
 0003:0000c878       _animTable                 300c0878     bg_panimate.obj
 0003:0000f8e4       _bgNumAllAnims             300c38e4     bg_panimate.obj
 0003:0000f958       _animEventTypeTable        300c3958     bg_panimate.obj
 0003:00010300       _footstepTypeTable         300c4300     bg_panimate.obj
 0003:000104a8       _bgNumAnimEvents           300c44a8     bg_panimate.obj
 0003:00010568       _pm_stopspeed              300c4568     bg_pmove.obj
 0003:0001056c       _pm_duckScale              300c456c     bg_pmove.obj
 0003:00010570       _pm_swimScale              300c4570     bg_pmove.obj
 0003:00010574       _pm_wadeScale              300c4574     bg_pmove.obj
 0003:00010578       _pm_vehicleaccelerate      300c4578     bg_pmove.obj
 0003:0001057c       _pm_accelerate             300c457c     bg_pmove.obj
 0003:00010580       _pm_airaccelerate          300c4580     bg_pmove.obj
 0003:00010584       _pm_wateraccelerate        300c4584     bg_pmove.obj
 0003:00010588       _pm_flyaccelerate          300c4588     bg_pmove.obj
 0003:0001058c       _pm_friction               300c458c     bg_pmove.obj
 0003:00010590       _pm_waterfriction          300c4590     bg_pmove.obj
 0003:00010594       _pm_flightfriction         300c4594     bg_pmove.obj
 0003:00010598       _pm_spectatorfriction      300c4598     bg_pmove.obj
 0003:0001059c       _forceSpeedLevels          300c459c     bg_pmove.obj
 0003:000105b0       _forcePowerNeeded          300c45b0     bg_pmove.obj
 0003:000106d0       _forceJumpHeight           300c46d0     bg_pmove.obj
 0003:000106e0       _forceJumpStrength         300c46e0     bg_pmove.obj
 0003:000106f0       _forceJumpHeightMax        300c46f0     bg_pmove.obj
 0003:00010990       _SaberTable                300c4990     bg_saberLoad.obj
 0003:00010e00       _SaberMoveTable            300c4e00     bg_saberLoad.obj
 0003:00011b80       _bgSiegeClassFlagNames     300c5b80     bg_saga.obj
 0003:00011c20       _StanceTable               300c5c20     bg_saga.obj
 0003:00011d90       _WPTable                   300c5d90     bg_saga.obj
 0003:00011f28       _FPTable                   300c5f28     bg_saga.obj
 0003:00012058       _HoldableTable             300c6058     bg_saga.obj
 0003:000121b0       _PowerupTable              300c61b0     bg_saga.obj
 0003:00012684       _classTitles               300c6684     bg_saga.obj
 0003:00012998       _numVehicleWeapons         300c6998     bg_vehicleLoad.obj
 0003:00012ab8       _vehWeaponFields           300c6ab8     bg_vehicleLoad.obj
 0003:00013820       _vehicleFields             300c7820     bg_vehicleLoad.obj
 0003:00014098       _VehicleTable              300c8098     bg_vehicleLoad.obj
 0003:000146f8       _WP_MuzzlePoint            300c86f8     bg_weapons.obj
 0003:000147e0       _weaponData                300c87e0     bg_weapons.obj
 0003:00014c08       _ammoData                  300c8c08     bg_weapons.obj
 0003:000152b8       _bluehudtint               300c92b8     cg_draw.obj
 0003:000152c8       _redhudtint                300c92c8     cg_draw.obj
 0003:00015308       _armorTicName              300c9308     cg_draw.obj
 0003:00015348       _healthTicName             300c9348     cg_draw.obj
 0003:00015388       _forceTicName              300c9388     cg_draw.obj
 0003:000153c8       _ammoTicName               300c93c8     cg_draw.obj
 0003:000154a0       _showPowersName            300c94a0     cg_draw.obj
 0003:000156a0       _cg_targVeh                300c96a0     cg_draw.obj
 0003:000157e8       _vehDamageData             300c97e8     cg_draw.obj
 0003:0001595c       _cg_radarRange             300c995c     cg_draw.obj
 0003:00016a90       _forceHolocronModels       300caa90     cg_ents.obj
 0003:000170a0       _CG_BMS_MID                300cb0a0     cg_ents.obj
 0003:000170a4       _CG_BMS_END                300cb0a4     cg_ents.obj
 0003:00017b38       _cg_stringEdVoiceChatTable 300cbb38     cg_event.obj
 0003:00019058       _colorTable                300cd058     cg_main.obj
 0003:00019648       _HolocronIcons             300cd648     cg_main.obj
 0003:00019690       _forceModelModificationCount 300cd690     cg_main.obj
 0003:0001dd68       _cg_spawnFields            300d1d68     cg_main.obj
 0003:0001e408       _cl_numparticles           300d2408     cg_marks.obj
 0003:0001e810       _cg_customSoundNames       300d2810     cg_players.obj
 0003:0001e960       _cg_customCombatSoundNames 300d2960     cg_players.obj
 0003:0001eb80       _cg_customExtraSoundNames  300d2b80     cg_players.obj
 0003:0001ed08       _cg_customJediSoundNames   300d2d08     cg_players.obj
 0003:0001ee38       _cg_customDuelSoundNames   300d2e38     cg_players.obj
 0003:000217f4       _cg_autoMapZoom            300d57f4     cg_view.obj
 0003:000217f8       _cg_autoMapAngle           300d57f8     cg_view.obj
 0003:00022cb8       _axisDefault               300d6cb8     q_math.obj
 0003:00022cdc       _colorBlack                300d6cdc     q_math.obj
 0003:00022cec       _colorRed                  300d6cec     q_math.obj
 0003:00022cfc       _colorGreen                300d6cfc     q_math.obj
 0003:00022d0c       _colorBlue                 300d6d0c     q_math.obj
 0003:00022d1c       _colorYellow               300d6d1c     q_math.obj
 0003:00022d2c       _colorMagenta              300d6d2c     q_math.obj
 0003:00022d3c       _colorCyan                 300d6d3c     q_math.obj
 0003:00022d4c       _colorWhite                300d6d4c     q_math.obj
 0003:00022d5c       _colorLtGrey               300d6d5c     q_math.obj
 0003:00022d6c       _colorMdGrey               300d6d6c     q_math.obj
 0003:00022d7c       _colorDkGrey               300d6d7c     q_math.obj
 0003:00022d8c       _colorLtBlue               300d6d8c     q_math.obj
 0003:00022d9c       _colorDkBlue               300d6d9c     q_math.obj
 0003:00022db0       _g_color_table             300d6db0     q_math.obj
 0003:00022e30       _bytedirs                  300d6e30     q_math.obj
 0003:00023858       _itemFlags                 300d7858     ui_shared.obj
 0003:000238ec       _styles                    300d78ec     ui_shared.obj
 0003:00023940       _alignment                 300d7940     ui_shared.obj
 0003:00023a70       _types                     300d7a70     ui_shared.obj
 0003:00023e80       _commandList               300d7e80     ui_shared.obj
 0003:00023f70       _scriptCommandCount        300d7f70     ui_shared.obj
 0003:000252b0       _itemParseKeywords         300d92b0     ui_shared.obj
 0003:000258e8       _menuParseKeywords         300d98e8     ui_shared.obj
 0003:00025b00       __fltused                  300d9b00     LIBC:fpinit.obj
 0003:00025b04       __ldused                   300d9b04     LIBC:fpinit.obj
 0003:00025b08       __FPinit                   300d9b08     LIBC:fpinit.obj
 0003:00025b0c       __FPmtinit                 300d9b0c     LIBC:fpinit.obj
 0003:00025b10       __FPmtterm                 300d9b10     LIBC:fpinit.obj
 0003:00025b70       __OP_FMODjmptab            300d9b70     LIBC:87fmod.obj
 0003:00025bd0       __aexit_rtn                300d9bd0     LIBC:dllcrt0.obj
 0003:00025bd4       __cfltcvt_tab              300d9bd4     LIBC:cmiscdat.obj
 0003:00025bec       __pmatherr                 300d9bec     LIBC:libm_error.obj
 0003:00025c00       __indefinite               300d9c00     LIBC:87disp.obj
 0003:00025c0a       __piby2                    300d9c0a     LIBC:87disp.obj
 0003:00025c1c       __cpower                   300d9c1c     LIBC:87disp.obj
 0003:00025c34       __pctype                   300d9c34     LIBC:ctype.obj
 0003:00025c38       __pwctype                  300d9c38     LIBC:ctype.obj
 0003:00025c3c       ___mb_cur_max              300d9c3c     LIBC:nlsdata1.obj
 0003:00025c40       ___decimal_point           300d9c40     LIBC:nlsdata1.obj
 0003:00025c44       ___decimal_point_length    300d9c44     LIBC:nlsdata1.obj
 0003:00025c50       __OP_ATAN2jmptab           300d9c50     LIBC:87triga.obj
 0003:00025d88       __d_inf                    300d9d88     LIBC:util.obj
 0003:00025d90       __d_ind                    300d9d90     LIBC:util.obj
 0003:00025d98       __d_max                    300d9d98     LIBC:util.obj
 0003:00025da0       __d_min                    300d9da0     LIBC:util.obj
 0003:00025da8       __d_mzero                  300d9da8     LIBC:util.obj
 0003:00025dc8       ___nullstring              300d9dc8     LIBC:output.obj
 0003:00025dcc       ___wnullstring             300d9dcc     LIBC:output.obj
 0003:00025f30       ___lc_clike                300d9f30     LIBC:nlsdata2.obj
 0003:00025f34       ___badioinfo               300d9f34     LIBC:ioinit.obj
 0003:00025f3c       __amblksiz                 300d9f3c     LIBC:heapinit.obj
 0003:00025f40       __XcptActTab               300d9f40     LIBC:winxfltr.obj
 0003:00025fb8       __First_FPE_Indx           300d9fb8     LIBC:winxfltr.obj
 0003:00025fbc       __Num_FPE                  300d9fbc     LIBC:winxfltr.obj
 0003:00025fc0       __XcptActTabCount          300d9fc0     LIBC:winxfltr.obj
 0003:00025fc4       __fpecode                  300d9fc4     LIBC:winxfltr.obj
 0003:00026090       __matherr_flag             300da090     LIBC:matherr.obj
 0003:00026094       ___security_cookie         300da094     LIBC:seccook.obj
 0003:00026190       __iob                      300da190     LIBC:_file.obj
 0003:00026410       __NLG_Destination          300da410     LIBC:exsup.obj
 0003:00026588       __pow10pos                 300da588     LIBC:constpow.obj
 0003:000266e8       __pow10neg                 300da6e8     LIBC:constpow.obj
 0003:0021a8f0       _BGPAFtextLoaded           302ce8f0     bg_panimate.obj
 0003:0021a9b4       _pm_entSelf                302ce9b4     bg_pmove.obj
 0003:0021a9b8       _pm_entVeh                 302ce9b8     bg_pmove.obj
 0003:0021a9bc       _gPMDoSlowFall             302ce9bc     bg_pmove.obj
 0003:0021a9c0       _pm_cancelOutZoom          302ce9c0     bg_pmove.obj
 0003:0021a9c4       _c_pmove                   302ce9c4     bg_pmove.obj
 0003:0031a9ec       _siege_valid               303ce9ec     bg_saga.obj
 0003:0031a9f0       _team1Theme                303ce9f0     bg_saga.obj
 0003:0031a9f4       _team2Theme                303ce9f4     bg_saga.obj
 0003:0031a9f8       _bgNumSiegeClasses         303ce9f8     bg_saga.obj
 0003:0031a9fc       _bgNumSiegeTeams           303ce9fc     bg_saga.obj
 0003:0031aa10       _numVehicles               303cea10     bg_vehicleLoad.obj
 0003:0031aa48       _menuScoreboard            303cea48     cg_draw.obj
 0003:0031aa4c       _cg_siegeDeathTime         303cea4c     cg_draw.obj
 0003:0031aa54       _cg_targVehLastTime        303cea54     cg_draw.obj
 0003:0031aa58       _cg_vehicleAmmoWarning     303cea58     cg_draw.obj
 0003:0031aa5c       _cg_vehicleAmmoWarningTime 303cea5c     cg_draw.obj
 0003:0031aa60       _cg_drawLink               303cea60     cg_draw.obj
 0003:0031aa6c       _cg_genericTimerBar        303cea6c     cg_draw.obj
 0003:0031aa70       _cg_genericTimerDur        303cea70     cg_draw.obj
 0003:0031aa74       _cg_crosshairPrevPosX      303cea74     cg_draw.obj
 0003:0031aa78       _cg_crosshairPrevPosY      303cea78     cg_draw.obj
 0003:0031aa7c       _cg_crosshairPos           303cea7c     cg_draw.obj
 0003:0031aa88       _cg_saberFlashTime         303cea88     cg_draw.obj
 0003:0031aa8c       _cg_saberFlashPos          303cea8c     cg_draw.obj
 0003:0031aaa0       _cgRageTime                303ceaa0     cg_draw.obj
 0003:0031aaa4       _cgRageFadeTime            303ceaa4     cg_draw.obj
 0003:0031aaa8       _cgRageFadeVal             303ceaa8     cg_draw.obj
 0003:0031aaac       _cgRageRecTime             303ceaac     cg_draw.obj
 0003:0031aab0       _cgRageRecFadeTime         303ceab0     cg_draw.obj
 0003:0031aab4       _cgRageRecFadeVal          303ceab4     cg_draw.obj
 0003:0031aab8       _cgAbsorbTime              303ceab8     cg_draw.obj
 0003:0031aabc       _cgAbsorbFadeTime          303ceabc     cg_draw.obj
 0003:0031aac0       _cgAbsorbFadeVal           303ceac0     cg_draw.obj
 0003:0031aac4       _cgProtectTime             303ceac4     cg_draw.obj
 0003:0031aac8       _cgProtectFadeTime         303ceac8     cg_draw.obj
 0003:0031aacc       _cgProtectFadeVal          303ceacc     cg_draw.obj
 0003:0031aad0       _cgYsalTime                303cead0     cg_draw.obj
 0003:0031aad4       _cgYsalFadeTime            303cead4     cg_draw.obj
 0003:0031aad8       _cgYsalFadeVal             303cead8     cg_draw.obj
 0003:0031aadc       _gCGHasFallVector          303ceadc     cg_draw.obj
 0003:0031aae0       _cg_beatingSiegeTime       303ceae0     cg_draw.obj
 0003:0031aae4       _cgSiegeRoundBeganTime     303ceae4     cg_draw.obj
 0003:0031aae8       _cgSiegeRoundCountTime     303ceae8     cg_draw.obj
 0003:0031aaec       _cgSiegeEntityRender       303ceaec     cg_draw.obj
 0003:0031b7b0       _CG_BMS_START              303cf7b0     cg_ents.obj
 0003:00408db8       _cgWeatherOverride         304bcdb8     cg_main.obj
 0003:00408dc0       _cg_numpermanents          304bcdc0     cg_main.obj
 0003:004095d4       _cg_noFogOutsidePortal     304bd5d4     cg_main.obj
 0003:004095d8       _cg_skyOri                 304bd5d8     cg_main.obj
 0003:004095dc       _cg_skyOriScale            304bd5dc     cg_main.obj
 0003:0040b9fc       _initparticles             304bf9fc     cg_marks.obj
 0003:0040ba18       _cgQueueLoad               304bfa18     cg_players.obj
 0003:0040ba1c       _cg_g2JetpackInstance      304bfa1c     cg_players.obj
 0003:0040ca20       _cg_lastHyperSpaceEffectTime 304c0a20     cg_players.obj
 0003:0040ca2c       _cgAnnouncerTime           304c0a2c     cg_playerstate.obj
 0003:0040d36c       _cg_vehPmoveSet            304c136c     cg_predict.obj
 0003:00413778       _cgSiegeRoundState         304c7778     cg_saga.obj
 0003:0041377c       _cgSiegeRoundTime          304c777c     cg_saga.obj
 0003:00413780       _team1Timed                304c7780     cg_saga.obj
 0003:00413784       _team2Timed                304c7784     cg_saga.obj
 0003:00413788       _cgSiegeTeam1PlShader      304c7788     cg_saga.obj
 0003:0041378c       _cgSiegeTeam2PlShader      304c778c     cg_saga.obj
 0003:004137a4       _cg_siegeWinTeam           304c77a4     cg_scoreboard.obj
 0003:004137b4       _cameraCurTarget           304c77b4     cg_view.obj
 0003:004137c0       _cameraCurLoc              304c77c0     cg_view.obj
 0003:004137cc       _cameraOldLoc              304c77cc     cg_view.obj
 0003:004137d8       _cameraNewLoc              304c77d8     cg_view.obj
 0003:004137e4       _cameraLastFrame           304c77e4     cg_view.obj
 0003:004137e8       _cameraLastYaw             304c77e8     cg_view.obj
 0003:004137ec       _cameraStiffFactor         304c77ec     cg_view.obj
 0003:004137f4       _cg_actionCamLastTime      304c77f4     cg_view.obj
 0003:004137f8       _cg_lastTurretViewAngles   304c77f8     cg_view.obj
 0003:00413804       _cg_autoMapZoomMainOffset  304c7804     cg_view.obj
 0003:00413808       _cg_autoMapInputTime       304c7808     cg_view.obj
 0003:00413810       _cg_linearFogOverride      304c7810     cg_view.obj
 0003:004138b8       _vec3_origin               304c78b8     q_math.obj
 0003:0046db24       _DC                        30521b24     ui_shared.obj
 0003:0046db38       _menuCount                 30521b38     ui_shared.obj
 0003:0046db3c       _openMenuCount             30521b3c     ui_shared.obj
 0003:0046db54       _FPMessageTime             30521b54     ui_shared.obj
 0003:0046db58       _ui_deferredScriptItem     30521b58     ui_shared.obj
 0003:0046db6c       _ui_G2PtrTracker           30521b6c     ui_shared.obj
 0003:0046db70       ___fastflag                30521b70     LIBC:fpinit.obj
 0003:0046db74       __adjust_fdiv              30521b74     LIBC:fpinit.obj
 0003:0046db7c       __aenvptr                  30521b7c     LIBC:dllcrt0.obj
 0003:0046db80       __wenvptr                  30521b80     LIBC:dllcrt0.obj
 0003:0046db84       ___error_mode              30521b84     LIBC:dllcrt0.obj
 0003:0046db88       ___app_type                30521b88     LIBC:dllcrt0.obj
 0003:0046dbd0       ___lc_handle               30521bd0     LIBC:nlsdata2.obj
 0003:0046dbe8       ___lc_codepage             30521be8     LIBC:nlsdata2.obj
 0003:0046dbec       ___lc_collate_cp           30521bec     LIBC:nlsdata2.obj
 0003:0046dbf0       _errno                     30521bf0     LIBC:crt0dat.obj
 0003:0046dbf4       __doserrno                 30521bf4     LIBC:crt0dat.obj
 0003:0046dbf8       __umaskval                 30521bf8     LIBC:crt0dat.obj
 0003:0046dbfc       __osplatform               30521bfc     LIBC:crt0dat.obj
 0003:0046dc00       __osver                    30521c00     LIBC:crt0dat.obj
 0003:0046dc04       __winver                   30521c04     LIBC:crt0dat.obj
 0003:0046dc08       __winmajor                 30521c08     LIBC:crt0dat.obj
 0003:0046dc0c       __winminor                 30521c0c     LIBC:crt0dat.obj
 0003:0046dc10       ___argc                    30521c10     LIBC:crt0dat.obj
 0003:0046dc14       ___argv                    30521c14     LIBC:crt0dat.obj
 0003:0046dc18       ___wargv                   30521c18     LIBC:crt0dat.obj
 0003:0046dc1c       __environ                  30521c1c     LIBC:crt0dat.obj
 0003:0046dc20       ___initenv                 30521c20     LIBC:crt0dat.obj
 0003:0046dc24       __wenviron                 30521c24     LIBC:crt0dat.obj
 0003:0046dc28       ___winitenv                30521c28     LIBC:crt0dat.obj
 0003:0046dc2c       __pgmptr                   30521c2c     LIBC:crt0dat.obj
 0003:0046dc30       __wpgmptr                  30521c30     LIBC:crt0dat.obj
 0003:0046dc34       __exitflag                 30521c34     LIBC:crt0dat.obj
 0003:0046dc38       __C_Termination_Done       30521c38     LIBC:crt0dat.obj
 0003:0046dc3c       __C_Exit_Done              30521c3c     LIBC:crt0dat.obj
 0003:0046dd4c       __pxcptinfoptrs            30521d4c     LIBC:winxfltr.obj
 0003:0046dd50       __adbgmsg                  30521d50     LIBC:crt0msg.obj
 0003:0046dd88       __cflush                   30521d88     LIBC:_file.obj
 0003:0046ddf4       ?_pnhHeap@@3P6AHI@ZA       30521df4     LIBC:handler.obj
 0003:0046ddf8       __newmode                  30521df8     LIBC:_newmode.obj
 0003:0046de00       _itemParseKeywordHash      30521e00     <common>
 0003:0046e600       _Menus                     30522600     <common>
 0003:00483300       _g_nameBind1               30537300     <common>
 0003:00483320       _g_nameBind2               30537320     <common>
 0003:00483340       _menuParseKeywordHash      30537340     <common>
 0003:00483b40       _menuStack                 30537b40     <common>
 0003:00483b80       _ui_deferredScript         30537b80     <common>
 0003:00484380       _cgScreenEffects           30538380     <common>
 0003:004843a0       _cameraIdealLoc            305383a0     <common>
 0003:004843b0       _cg_actionCamLastPos       305383b0     <common>
 0003:004843c0       _cameraIdealTarget         305383c0     <common>
 0003:004843d0       _cameraFocusAngles         305383d0     <common>
 0003:004843e0       _cameraFocusLoc            305383e0     <common>
 0003:004843f0       _cameraup                  305383f0     <common>
 0003:004843fc       _zoomFov                   305383fc     <common>
 0003:00484400       _cg_autoMapInput           30538400     <common>
 0003:00484420       _camerafwd                 30538420     <common>
 0003:00484440       _cg_siegeExtendedData      30538440     <common>
 0003:004846c0       _cgSendPS                  305386c0     <common>
 0003:004856c0       _cg_vehPmove               305396c0     <common>
 0003:00485800       _cgSendPSPool              30539800     <common>
 0003:00609800       _cg_freeMarkPolys          306bd800     <common>
 0003:00609804       _active_particles          306bd804     <common>
 0003:00609820       _cg_markPolys              306bd820     <common>
 0003:0061b820       _oldtime                   306cf820     <common>
 0003:0061b830       _rup                       306cf830     <common>
 0003:0061b840       _particles                 306cf840     <common>
 0003:0063a840       _rright                    306ee840     <common>
 0003:0063a84c       _free_particles            306ee84c     <common>
 0003:0063a850       _rforward                  306ee850     <common>
 0003:0063a860       _pvright                   306ee860     <common>
 0003:0063a870       _pvforward                 306ee870     <common>
 0003:0063a880       _cg_activeMarkPolys        306ee880     <common>
 0003:0063a9a0       _pvup                      306ee9a0     <common>
 0003:0063a9c0       _cg_saberContact           306ee9c0     <common>
 0003:0063aae0       _cg_dynamicCrosshairPrecision 306eeae0     <common>
 0003:0063ac00       _cg_weapons                306eec00     <common>
 0003:0063bbc0       _cg_timescaleFadeEnd       306efbc0     <common>
 0003:0063bce0       _cg_drawTeamOverlay        306efce0     <common>
 0003:0063be00       _cg_gun_y                  306efe00     <common>
 0003:0063bf20       _cg_noTaunt                306eff20     <common>
 0003:0063c040       _cg_animSpeed              306f0040     <common>
 0003:0063c160       _cgDC                      306f0160     <common>
 0003:0063c3e0       _cg_thirdPersonTargetDamp  306f03e0     <common>
 0003:0063c500       _cg_stats                  306f0500     <common>
 0003:0063c620       _cg_optvehtrace            306f0620     <common>
 0003:0063c740       _cg_drawRewards            306f0740     <common>
 0003:0063c860       _cg_auraShell              306f0860     <common>
 0003:0063c980       _cg_scorePlum              306f0980     <common>
 0003:0063caa0       _cg_oldPainSounds          306f0aa0     <common>
 0003:0063cbc0       _cgs                       306f0bc0     <common>
 0003:00674a60       _cg_jumpSounds             30728a60     <common>
 0003:00674b80       _cg_drawFPS                30728b80     <common>
 0003:00674ca0       _cg_thirdPerson            30728ca0     <common>
 0003:00674dc0       _cg_debugBB                30728dc0     <common>
 0003:00674ee0       _cg_currentSelectedPlayer  30728ee0     <common>
 0003:00675000       _cg_zoomFov                30729000     <common>
 0003:00675120       _cg_drawCrosshair          30729120     <common>
 0003:00675240       _cg_saberDynamicMarks      30729240     <common>
 0003:00675360       _cg_cameraOrbitDelay       30729360     <common>
 0003:00675480       _cg_shadows                30729480     <common>
 0003:006755a0       _cg_thirdPersonVertOffset  307295a0     <common>
 0003:006756c0       _cg_debugAnim              307296c0     <common>
 0003:006757e0       _cg_timescale              307297e0     <common>
 0003:00675900       _cg_addMarks               30729900     <common>
 0003:00675a20       _cg_gun_z                  30729a20     <common>
 0003:00675b40       _pmove_msec                30729b40     <common>
 0003:00675c60       _cg_autoswitch             30729c60     <common>
 0003:00675d80       _cg_recordSPDemoName       30729d80     <common>
 0003:00675ea0       _cg_thirdPersonSpecialCam  30729ea0     <common>
 0003:00675fc0       _bg_fighterAltControl      30729fc0     <common>
 0003:006760e0       _cg_drawStatus             3072a0e0     <common>
 0003:00676200       _cg_drawSnapshot           3072a200     <common>
 0003:00676320       _cg_gun_frame              3072a320     <common>
 0003:00676440       _cg_drawEnemyInfo          3072a440     <common>
 0003:00676560       _cg_runpitch               3072a560     <common>
 0003:00676680       _cg_ghoul2Marks            3072a680     <common>
 0003:006767a0       _cg_drawTimer              3072a7a0     <common>
 0003:006768c0       _cg_autoMapX               3072a8c0     <common>
 0003:006769e0       _cg_drawFriend             3072a9e0     <common>
 0003:00676b00       _cg_debugSaber             3072ab00     <common>
 0003:00676c20       _cg_duelHeadAngles         3072ac20     <common>
 0003:00676d40       _cg_g2TraceLod             3072ad40     <common>
 0003:00676e60       _cg_draw2D                 3072ae60     <common>
 0003:00676f80       _cg_drawScores             3072af80     <common>
 0003:006770a0       _cg_gun_x                  3072b0a0     <common>
 0003:006771c0       _cg_autoMapW               3072b1c0     <common>
 0003:006772e0       _cg_drawAmmoWarning        3072b2e0     <common>
 0003:00677400       _cg_debugPosition          3072b400     <common>
 0003:00677520       _cg_animBlend              3072b520     <common>
 0003:00677640       _cg_cameraMode             3072b640     <common>
 0003:00677760       _cg_permanents             3072b760     <common>
 0003:00678760       _cg_drawGun                3072c760     <common>
 0003:00678880       _cg_recordSPDemo           3072c880     <common>
 0003:006789a0       _cg_centertime             3072c9a0     <common>
 0003:00678ac0       _cg_forceModel             3072cac0     <common>
 0003:00678be0       _cg_ragDoll                3072cbe0     <common>
 0003:00678d00       _cg_items                  3072cd00     <common>
 0003:0067c500       _cg_speedTrail             30730500     <common>
 0003:0067c620       _cg_crosshairHealth        30730620     <common>
 0003:0067c740       _cg_noProjectileTrail      30730740     <common>
 0003:0067c860       _cg_renderToTextureFX      30730860     <common>
 0003:0067c980       _cg_crosshairY             30730980     <common>
 0003:0067caa0       _cg_dynamicCrosshair       30730aa0     <common>
 0003:0067cbc0       _cg_draw3dIcons            30730bc0     <common>
 0003:0067ccd0       _cg_skyOriPos              30730cd0     <common>
 0003:0067cce0       _cg_simpleItems            30730ce0     <common>
 0003:0067ce00       _cg_hudFiles               30730e00     <common>
 0003:0067cf20       _ui_myteam                 30730f20     <common>
 0003:0067d040       _g_candivecrane            30731040     <common>
 0003:0067d160       _g_kataforce               30731160     <common>
 0003:0067d280       _cg_repeaterOrb            30731280     <common>
 0003:0067d3a0       _cg_thirdPersonRange       307313a0     <common>
 0003:0067d4c0       _cg_showVehBounds          307314c0     <common>
 0003:0067d5e0       _cg_thirdPersonHorzOffset  307315e0     <common>
 0003:0067d700       _cg_debugEvents            30731700     <common>
 0003:0067d820       _cg_stereoSeparation       30731820     <common>
 0003:0067d940       _cg_smoothClients          30731940     <common>
 0003:0067da60       _cg_bobroll                30731a60     <common>
 0003:0067db80       _cg_saberModelTraceEffect  30731b80     <common>
 0003:0067dca0       _cg_ignore                 30731ca0     <common>
 0003:0067ddc0       _cg_snapshotTimeout        30731dc0     <common>
 0003:0067dee0       _cg_drawCrosshairNames     30731ee0     <common>
 0003:0067e000       _cg_thirdPersonAlpha       30732000     <common>
 0003:0067e120       _cg_crosshairX             30732120     <common>
 0003:0067e240       _cg_footsteps              30732240     <common>
 0003:0067e360       _cg_drawRadar              30732360     <common>
 0003:0067e480       _cg_saberTrail             30732480     <common>
 0003:0067e5a0       _cg_chatBox                307325a0     <common>
 0003:0067e6c0       _cg_nopredict              307326c0     <common>
 0003:0067e7e0       _cg_buildScript            307327e0     <common>
 0003:0067e900       _g_butterflyforce          30732900     <common>
 0003:0067ea20       _cg_autoMap                30732a20     <common>
 0003:0067eb40       _cg_synchronousClients     30732b40     <common>
 0003:0067ec60       _cg_autoMapH               30732c60     <common>
 0003:0067ed80       _cg_thirdPersonCameraDamp  30732d80     <common>
 0003:0067eea0       _g_cartwheelforce          30732ea0     <common>
 0003:0067efc0       _cg_bobpitch               30732fc0     <common>
 0003:0067f0e0       _cg_lagometer              307330e0     <common>
 0003:0067f200       _cg_errorDecay             30733200     <common>
 0003:0067f320       _cg_chatBoxHeight          30733320     <common>
 0003:0067f440       _cg_runroll                30733440     <common>
 0003:0067f560       _cg_showVehMiss            30733560     <common>
 0003:0067f680       _cg_drawVehLeadIndicator   30733680     <common>
 0003:0067f7a0       _cg                        307337a0     <common>
 0003:006c79a0       _cg_cameraOrbit            3077b9a0     <common>
 0003:006c7ac0       _cg_bobup                  3077bac0     <common>
 0003:006c7be0       _cg_fpls                   3077bbe0     <common>
 0003:006c7d00       _cg_timescaleFadeSpeed     3077bd00     <common>
 0003:006c7e20       _cg_entities               3077be20     <common>
 0003:008a4e20       _pmove_fixed               30958e20     <common>
 0003:008a4f40       _cg_saberDynamicMarkTime   30958f40     <common>
 0003:008a5060       _cg_swingAngles            30959060     <common>
 0003:008a5180       _cg_teamOverlayUserinfo    30959180     <common>
 0003:008a52a0       _cg_saberClientVisualCompensation 309592a0     <common>
 0003:008a53c0       _cg_blood                  309593c0     <common>
 0003:008a54e0       _cg_teamChatsOnly          309594e0     <common>
 0003:008a5600       _cg_viewsize               30959600     <common>
 0003:008a5720       _cg_deferPlayers           30959720     <common>
 0003:008a5840       _cg_showmiss               30959840     <common>
 0003:008a5960       _cg_noPlayerAnims          30959960     <common>
 0003:008a5a80       _cg_crosshairSize          30959a80     <common>
 0003:008a5ba0       _cg_drawIcons              30959ba0     <common>
 0003:008a5cc0       _cg_predictItems           30959cc0     <common>
 0003:008a5de0       _cg_thirdPersonPitchOffset 30959de0     <common>
 0003:008a5f00       _cg_fov                    30959f00     <common>
 0003:008a6020       _cg_dismember              3095a020     <common>
 0003:008a6140       _cg_paused                 3095a140     <common>
 0003:008a6260       _cg_thirdPersonAngle       3095a260     <common>
 0003:008a6380       _cg_currentSelectedPlayerName 3095a380     <common>
 0003:008a64a0       _cg_autoMapY               3095a4a0     <common>
 0003:008a65c0       _cg_localEntities          3095a5c0     <common>
 0003:008dfdc0       _cg_freeLocalEntities      30993dc0     <common>
 0003:008dfde0       _cg_activeLocalEntities    30993de0     <common>
 0003:008dffb0       _dbModels_Rocks            30993fb0     <common>
 0003:008dffc0       _dbModels_Glass            30993fc0     <common>
 0003:008dffe0       _dbModels_Wood             30993fe0     <common>
 0003:008e0000       _dbModels_Chunks           30994000     <common>
 0003:008e0010       _cg_genericTimerColor      30994010     <common>
 0003:008e0020       _lagometer                 30994020     <common>
 0003:008e0628       _hudTintColor              30994628     <common>
 0003:008e0630       _gCGFallVector             30994630     <common>
 0003:008e063c       _lastvalidlockdif          3099463c     <common>
 0003:008e0640       _sortedTeamPlayers         30994640     <common>
 0003:008e06c0       _numSortedTeamPlayers      309946c0     <common>
 0003:008e06e0       _VehicleParms              309946e0     <common>
 0003:008f0700       _VehWeaponParms            309a4700     <common>
 0003:008f4720       _g_vehicleInfo             309a8720     <common>
 0003:008f79a0       _g_vehWeaponInfo           309ab9a0     <common>
 0003:008f7fe0       _bgSiegeClasses            309abfe0     <common>
 0003:009285e0       _bgSiegeTeams              309dc5e0     <common>
 0003:0092aa60       _siege_info                309dea60     <common>
 0003:0092ea60       _pml                       309e2a60     <common>
 0003:0092eae4       _pm                        309e2ae4     <common>
 0003:0092eb00       _level                     309e2b00     <common>
 0003:00939c80       _bgAllEvents               309edc80     <common>
 0003:009724c0       _bgAllAnims                30a264c0     <common>
 0003:00972900       _bgHumanoidAnimations      30a26900     <common>
 0003:00975338       ___sbh_pHeaderDefer        30a29338     <common>
 0003:0097533c       ___sbh_cntHeaderList       30a2933c     <common>
 0003:00975340       ___sbh_pHeaderList         30a29340     <common>
 0003:00975344       ___sbh_threshold           30a29344     <common>
 0003:00975348       ___sbh_pHeaderScan         30a29348     <common>
 0003:0097534c       ___sbh_sizeHeaderList      30a2934c     <common>
 0003:00975350       ___sbh_indGroupDefer       30a29350     <common>
 0003:00975354       ___piob                    30a29354     <common>
 0003:00975360       __bufin                    30a29360     <common>
 0003:00976360       __nstream                  30a2a360     <common>
 0003:00976364       ___mblcid                  30a2a364     <common>
 0003:00976368       ___ismbcodepage            30a2a368     <common>
 0003:00976380       __mbctype                  30a2a380     <common>
 0003:00976484       ___mbcodepage              30a2a484     <common>
 0003:00976490       ___mbulinfo                30a2a490     <common>
 0003:009764a0       __mbcasemap                30a2a4a0     <common>
 0003:009765a0       __crtheap                  30a2a5a0     <common>
 0003:009765a4       ___active_heap             30a2a5a4     <common>
 0003:009765a8       __nhandle                  30a2a5a8     <common>
 0003:009765c0       ___pioinfo                 30a2a5c0     <common>
 0003:009766c0       ___env_initialized         30a2a6c0     <common>
 0003:009766c4       ___onexitend               30a2a6c4     <common>
 0003:009766c8       ___onexitbegin             30a2a6c8     <common>
 0003:009766cc       ___mbctype_initialized     30a2a6cc     <common>
 0003:009766d0       ___use_sse2_mathfcns       30a2a6d0     <common>
 0003:009766d4       ___sse2_available          30a2a6d4     <common>
 0003:009766d8       __acmdln                   30a2a6d8     <common>
 0003:009766dc       __pRawDllMain              30a2a6dc     <common>

 entry point at        0001:000a7d48

 Static symbols

 0001:00000020       _ProcessOrientCommands     30001020 f   AnimalNPC.obj
 0001:000001b0       _ProcessMoveCommands       300011b0 f   AnimalNPC.obj
 0001:00001f80       _DistanceSquared           30002f80 f   bg_c_saber.obj
 0001:00002bf0       _VectorLength              30003bf0 f   bg_c_saber.obj
 0001:00003a00       _PM_CanDoDualDoubleAttacks 30004a00 f   bg_c_saber.obj
 0001:00003ac0       _PM_CheckEnemyPresence     30004ac0 f   bg_c_saber.obj
 0001:00006880       _BG_GiveMeVectorFromMatrix 30007880 f   bg_g2_utils.obj
 0001:00009070       _SnapVector                3000a070 f   bg_misc.obj
 0001:0000d7d0       _VectorCompare             3000e7d0 f   bg_pmove.obj
 0001:0000e070       _PM_SetVehicleAngles       3000f070 f   bg_pmove.obj
 0001:0000f780       _BG_ForceWallJumpStrength  30010780 f   bg_pmove.obj
 0001:0000f840       _PM_GroundTraceMissed      30010840 f   bg_pmove.obj
 0001:000111b0       _Distance                  300121b0 f   bg_pmove.obj
 0001:00011200       _VectorLength              30012200 f   bg_pmove.obj
 0001:00013680       _VectorLengthSquared       30014680 f   bg_pmove.obj
 0001:00014510       _BG_G2ClientNeckAngles     30015510 f   bg_pmove.obj
 0001:00014760       _BG_G2ClientSpineAngles    30015760 f   bg_pmove.obj
 0001:00014b70       _BG_SwingAngles            30015b70 f   bg_pmove.obj
 0001:00017e30       _PM_WaterJumpMove          30018e30 f   bg_pmove.obj
 0001:00017eb0       _PM_WaterMove              30018eb0 f   bg_pmove.obj
 0001:000180f0       _PM_Friction               300190f0 f   bg_pmove.obj
 0001:00018440       _PM_Accelerate             30019440 f   bg_pmove.obj
 0001:00018660       _PM_CmdScale               30019660 f   bg_pmove.obj
 0001:00018740       _PM_CheckWaterJump         30019740 f   bg_pmove.obj
 0001:000188e0       _PM_FlyVehicleMove         300198e0 f   bg_pmove.obj
 0001:00018bf0       _PM_FlyMove                30019bf0 f   bg_pmove.obj
 0001:00018d60       _PM_AirMove                30019d60 f   bg_pmove.obj
 0001:00019150       _PM_SetMovementDir         3001a150 f   bg_pmove.obj
 0001:00019350       _PM_CheckJump              3001a350 f   bg_pmove.obj
 0001:0001c2f0       _PM_JumpForDir             3001d2f0 f   bg_pmove.obj
 0001:0001c410       _PM_WalkMove               3001d410 f   bg_pmove.obj
 0001:0001ca00       _PM_DeadMove               3001da00 f   bg_pmove.obj
 0001:0001cad0       _PM_NoclipMove             3001dad0 f   bg_pmove.obj
 0001:0001cd80       _PM_GroundTrace            3001dd80 f   bg_pmove.obj
 0001:0001d180       _PM_CrashLand              3001e180 f   bg_pmove.obj
 0001:0001d9f0       _PM_FootstepForSurface     3001e9f0 f   bg_pmove.obj
 0001:0001da10       _PM_TryRoll                3001ea10 f   bg_pmove.obj
 0001:0001de20       _PM_CorrectAllSolid        3001ee20 f   bg_pmove.obj
 0001:0001e010       _PM_SetWaterLevel          3001f010 f   bg_pmove.obj
 0001:0001e190       _PM_CheckDuck              3001f190 f   bg_pmove.obj
 0001:0001e770       _PM_Footsteps              3001f770 f   bg_pmove.obj
 0001:0001f3d0       _PM_WaterEvents            300203d0 f   bg_pmove.obj
 0001:0001f460       _PM_Weapon                 30020460 f   bg_pmove.obj
 0001:00021330       _PM_DoChargedWeapons       30022330 f   bg_pmove.obj
 0001:00021be0       _PM_Animate                30022be0 f   bg_pmove.obj
 0001:00021cd0       _PM_DropTimers             30022cd0 f   bg_pmove.obj
 0001:00021dd0       _PM_CmdForSaberMoves       30022dd0 f   bg_pmove.obj
 0001:000222f0       _PM_AdjustAnglesForDualJumpAttack 300232f0 f   bg_pmove.obj
 0001:00029870       _VectorCompare             3002a870 f   bg_slidemove.obj
 0001:000298c0       _VectorLength              3002a8c0 f   bg_slidemove.obj
 0001:0002a360       _CrossProduct              3002b360 f   bg_slidemove.obj
 0001:0002ade0       _BG_ParseVehWeaponParm     3002bde0 f   bg_vehicleLoad.obj
 0001:0002bf30       _BG_ParseVehicleParm       3002cf30 f   bg_vehicleLoad.obj
 0001:0002cb40       _BG_GiveMeVectorFromMatrix 3002db40 f   bg_vehicleLoad.obj
 0001:0002cd00       _CG_SizeUp_f               3002dd00 f   cg_consolecmds.obj
 0001:0002cd30       _CG_SizeDown_f             3002dd30 f   cg_consolecmds.obj
 0001:0002cd60       _CG_Viewpos_f              3002dd60 f   cg_consolecmds.obj
 0001:0002cdb0       _CG_ScoresDown_f           3002ddb0 f   cg_consolecmds.obj
 0001:0002ce10       _CG_ScoresUp_f             3002de10 f   cg_consolecmds.obj
 0001:0002ce40       _CG_scrollScoresDown_f     3002de40 f   cg_consolecmds.obj
 0001:0002ce90       _CG_scrollScoresUp_f       3002de90 f   cg_consolecmds.obj
 0001:0002cee0       _CG_spWin_f                3002dee0 f   cg_consolecmds.obj
 0001:0002cf70       _CG_spLose_f               3002df70 f   cg_consolecmds.obj
 0001:0002d000       _CG_TellTarget_f           3002e000 f   cg_consolecmds.obj
 0001:0002d070       _CG_TellAttacker_f         3002e070 f   cg_consolecmds.obj
 0001:0002d0e0       _CG_StartOrbit_f           3002e0e0 f   cg_consolecmds.obj
 0001:0002d1b0       _CG_SiegeBriefing_f        3002e1b0 f   cg_consolecmds.obj
 0001:0002d1f0       _CG_SiegeCvarUpdate_f      3002e1f0 f   cg_consolecmds.obj
 0001:0002d230       _CG_SiegeCompleteCvarUpdate_f 3002e230 f   cg_consolecmds.obj
 0001:0002e700       _CG_DrawSaberStyle         3002f700 f   cg_draw.obj
 0001:0002e880       _CG_DrawAmmo               3002f880 f   cg_draw.obj
 0001:000320d0       _Distance                  300330d0 f   cg_draw.obj
 0001:00032120       _VectorLength              30033120 f   cg_draw.obj
 0001:00033720       _VectorCompare             30034720 f   cg_draw.obj
 0001:00033d90       _BG_GiveMeVectorFromMatrix 30034d90 f   cg_draw.obj
 0001:00034a50       _CG_Draw2D                 30035a50 f   cg_draw.obj
 0001:000352b0       _CG_DrawZoomMask           300362b0 f   cg_draw.obj
 0001:00035a10       _CG_DrawStats              30036a10 f   cg_draw.obj
 0001:00035a80       _CG_DrawPickupItem         30036a80 f   cg_draw.obj
 0001:00035b10       _CG_DrawUpperRight         30036b10 f   cg_draw.obj
 0001:00035bf0       _CG_DrawMiniScoreboard     30036bf0 f   cg_draw.obj
 0001:00035d60       _CG_DrawEnemyInfo          30036d60 f   cg_draw.obj
 0001:00036280       _CG_DrawSnapshot           30037280 f   cg_draw.obj
 0001:00036310       _CG_DrawFPS                30037310 f   cg_draw.obj
 0001:00036440       _CG_DrawTimer              30037440 f   cg_draw.obj
 0001:00036510       _CG_DrawTeamOverlay        30037510 f   cg_draw.obj
 0001:00036aa0       _CG_DrawPowerupIcons       30037aa0 f   cg_draw.obj
 0001:00036c60       _CG_DrawLagometer          30037c60 f   cg_draw.obj
 0001:00036ff0       _CG_DrawDisconnect         30037ff0 f   cg_draw.obj
 0001:00037170       _CG_DrawCenterString       30038170 f   cg_draw.obj
 0001:00037320       _CG_DrawCrosshair          30038320 f   cg_draw.obj
 0001:00037e40       _CG_DrawHolocronIcons      30038e40 f   cg_draw.obj
 0001:00037f50       _CG_DrawActivePowers       30038f50 f   cg_draw.obj
 0001:000380c0       _CG_IsDurationPower        300390c0 f   cg_draw.obj
 0001:00038100       _CG_DrawRocketLocking      30039100 f   cg_draw.obj
 0001:00038760       _CG_DrawCrosshairNames     30039760 f   cg_draw.obj
 0001:00038a80       _CG_ScanForCrosshairEntity 30039a80 f   cg_draw.obj
 0001:000391b0       _CG_DrawSpectator          3003a1b0 f   cg_draw.obj
 0001:00039810       _CG_DrawVote               3003a810 f   cg_draw.obj
 0001:00039ca0       _CG_DrawTeamVote           3003aca0 f   cg_draw.obj
 0001:00039ee0       _CG_DrawScoreboard         3003aee0 f   cg_draw.obj
 0001:00039ef0       _CG_DrawIntermission       3003aef0 f   cg_draw.obj
 0001:00039f10       _CG_DrawFollow             3003af10 f   cg_draw.obj
 0001:0003a080       _CG_DrawAmmoWarning        3003b080 f   cg_draw.obj
 0001:0003a090       _CG_DrawWarmup             3003b090 f   cg_draw.obj
 0001:0003a580       _CG_DrawSiegeTimer         3003b580 f   cg_draw.obj
 0001:0003a730       _CG_DrawSiegeDeathTimer    3003b730 f   cg_draw.obj
 0001:0003a8f0       _CG_DrawSiegeHUDItem       3003b8f0 f   cg_draw.obj
 0001:0003aa30       _CG_ChatBox_DrawStrings    3003ba30 f   cg_draw.obj
 0001:0003abf0       _CG_Draw2DScreenTints      3003bbf0 f   cg_draw.obj
 0001:0003b760       _CG_DrawTourneyScoreboard  3003c760 f   cg_draw.obj
 0001:0003c070       _CG_TileClearBox           3003d070 f   cg_drawtools.obj
 0001:0003d610       _DistanceSquared           3003e610 f   cg_effects.obj
 0001:0003d660       _CG_DoGlassQuad            3003e660 f   cg_effects.obj
 0001:0003d990       _CG_CalcBiLerp             3003e990 f   cg_effects.obj
 0001:0003e000       _CG_CalcHeightWidth        3003f000 f   cg_effects.obj
 0001:0003e220       _CrossProduct              3003f220 f   cg_effects.obj
 0001:0003e600       _VectorLength              3003f600 f   cg_effects.obj
 0001:00041250       _BG_GiveMeVectorFromMatrix 30042250 f   cg_ents.obj
 0001:00041670       _VectorLength              30042670 f   cg_ents.obj
 0001:00041c30       _CG_InterpolateEntityPosition 30042c30 f   cg_ents.obj
 0001:00041d90       _CG_AddCEntity             30042d90 f   cg_ents.obj
 0001:00041fc0       _CG_EntityEffects          30042fc0 f   cg_ents.obj
 0001:000421c0       _CG_General                300431c0 f   cg_ents.obj
 0001:00044cb0       _DistanceSquared           30045cb0 f   cg_ents.obj
 0001:00044d00       _CG_RenderTimeEntBolt      30045d00 f   cg_ents.obj
 0001:00044e70       _CG_Speaker                30045e70 f   cg_ents.obj
 0001:00044f50       _CG_Item                   30045f50 f   cg_ents.obj
 0001:00045e50       _CG_Missile                30046e50 f   cg_ents.obj
 0001:000469b0       _CG_Mover                  300479b0 f   cg_ents.obj
 0001:00046da0       _CG_Portal                 30047da0 f   cg_ents.obj
 0001:00046f20       _CrossProduct              30047f20 f   cg_ents.obj
 0001:00046f80       _CG_TeamBase               30047f80 f   cg_ents.obj
 0001:00047090       _CG_FX                     30048090 f   cg_ents.obj
 0001:00048ec0       _BG_GiveMeVectorFromMatrix 30049ec0 f   cg_event.obj
 0001:0004e5f0       _VectorLength              3004f5f0 f   cg_event.obj
 0001:0004e630       _CG_Obituary               3004f630 f   cg_event.obj
 0001:0004ee20       _CG_UseItem                3004fe20 f   cg_event.obj
 0001:0004efa0       _CG_ItemPickup             3004ffa0 f   cg_event.obj
 0001:000511a0       _VectorLength              300521a0 f   cg_localents.obj
 0001:000511e0       _CrossProduct              300521e0 f   cg_localents.obj
 0001:00051540       _CG_AddFadeScaleModel      30052540 f   cg_localents.obj
 0001:00051700       _CG_AddMoveScaleFade       30052700 f   cg_localents.obj
 0001:00051850       _CG_AddPuff                30052850 f   cg_localents.obj
 0001:00051980       _CG_AddScaleFade           30052980 f   cg_localents.obj
 0001:00051a60       _CG_AddFallScaleFade       30052a60 f   cg_localents.obj
 0001:00051b60       _CG_AddExplosion           30052b60 f   cg_localents.obj
 0001:00051c30       _CG_AddSpriteExplosion     30052c30 f   cg_localents.obj
 0001:00052230       _C_PointContents           30053230 f   cg_main.obj
 0001:00052260       _C_GetLerpOrigin           30053260 f   cg_main.obj
 0001:000522c0       _C_GetLerpData             300532c0 f   cg_main.obj
 0001:00052460       _C_Trace                   30053460 f   cg_main.obj
 0001:000524b0       _C_G2Trace                 300534b0 f   cg_main.obj
 0001:00052500       _C_G2Mark                  30053500 f   cg_main.obj
 0001:00052610       _CG_RagCallback            30053610 f   cg_main.obj
 0001:00052770       _CG_DebugBoxLines          30053770 f   cg_main.obj
 0001:00052a20       _C_ImpactMark              30053a20 f   cg_main.obj
 0001:00052c30       _Distance                  30053c30 f   cg_main.obj
 0001:00052c80       _VectorLength              30053c80 f   cg_main.obj
 0001:00053200       _CG_ForceModelChange       30054200 f   cg_main.obj
 0001:000546c0       _CG_OwnerDrawHandleKey     300556c0 f   cg_main.obj
 0001:000546d0       _CG_FeederCount            300556d0 f   cg_main.obj
 0001:00054780       _CG_FeederItemText         30055780 f   cg_main.obj
 0001:00054a40       _CG_InfoFromScoreIndex     30055a40 f   cg_main.obj
 0001:00054ae0       _CG_FeederItemImage        30055ae0 f   cg_main.obj
 0001:00054af0       _CG_FeederSelection        30055af0 f   cg_main.obj
 0001:00054b90       _CG_Cvar_Get               30055b90 f   cg_main.obj
 0001:00054be0       _CG_OwnerDrawWidth         30055be0 f   cg_main.obj
 0001:00054cb0       _CG_PlayCinematic          30055cb0 f   cg_main.obj
 0001:00054cf0       _CG_StopCinematic          30055cf0 f   cg_main.obj
 0001:00054d10       _CG_DrawCinematic          30055d10 f   cg_main.obj
 0001:00054d60       _CG_RunCinematicFrame      30055d60 f   cg_main.obj
 0001:00055cf0       _CG_RegisterSounds         30056cf0 f   cg_main.obj
 0001:00056de0       _CG_RegisterItemSounds     30057de0 f   cg_main.obj
 0001:00056fb0       _CG_AS_Register            30057fb0 f   cg_main.obj
 0001:00057060       _CG_RegisterGraphics       30058060 f   cg_main.obj
 0001:000582d0       _CG_RegisterEffects        300592d0 f   cg_main.obj
 0001:000583c0       _CG_RegisterClients        300593c0 f   cg_main.obj
 0001:00058ec0       _CrossProduct              30059ec0 f   cg_marks.obj
 0001:0005b7c0       _Distance                  3005c7c0 f   cg_marks.obj
 0001:0005b810       _VectorLength              3005c810 f   cg_marks.obj
 0001:0005eba0       _CG_Text_Paint_Limit       3005fba0 f   cg_newDraw.obj
 0001:000608e0       _CG_RegisterClientModelname 300618e0 f   cg_players.obj
 0001:00062130       _CG_ColorFromString        30063130 f   cg_players.obj
 0001:000621d0       _CG_ColorFromInt           300631d0 f   cg_players.obj
 0001:00062260       _CG_InitG2SaberData        30063260 f   cg_players.obj
 0001:00062410       _CG_ScanForExistingClientInfo 30063410 f   cg_players.obj
 0001:00062780       _CG_CopyClientInfoModel    30063780 f   cg_players.obj
 0001:00062980       _CG_SetDeferredClientInfo  30063980 f   cg_players.obj
 0001:00063110       _BG_GiveMeVectorFromMatrix 30064110 f   cg_players.obj
 0001:00063270       _CG_PlayerFootsteps        30064270 f   cg_players.obj
 0001:00063460       __PlayerFootStep           30064460 f   cg_players.obj
 0001:000654c0       _VectorLength              300664c0 f   cg_players.obj
 0001:00065500       _CG_RagAnimForPositioning  30066500 f   cg_players.obj
 0001:00065ae0       _CG_G2SetHeadBlink         30066ae0 f   cg_players.obj
 0001:00065c10       _CG_G2SetHeadAnim          30066c10 f   cg_players.obj
 0001:000666b0       _CG_RGBForSaberColor       300676b0 f   cg_players.obj
 0001:00067200       _CrossProduct              30068200 f   cg_players.obj
 0001:000690d0       _CG_DoSaberLight           3006a0d0 f   cg_players.obj
 0001:00069700       _Distance                  3006a700 f   cg_players.obj
 0001:00069c10       _VectorInverse             3006ac10 f   cg_players.obj
 0001:0006aea0       _CG_RegisterVehicleAssets  3006bea0 f   cg_players.obj
 0001:0006b300       _CG_CreateSurfaceDebris    3006c300 f   cg_players.obj
 0001:00071e30       _DistanceSquared           30072e30 f   cg_players.obj
 0001:00071e80       _CG_PlayerAnimation        30072e80 f   cg_players.obj
 0001:00072050       _CG_RunLerpFrame           30073050 f   cg_players.obj
 0001:000722c0       _CG_SetLerpFrameAnimation  300732c0 f   cg_players.obj
 0001:00072940       _CG_FirstAnimFrame         30073940 f   cg_players.obj
 0001:00072980       _CG_G2PlayerAngles         30073980 f   cg_players.obj
 0001:00073000       _CG_PlayerPowerups         30074000 f   cg_players.obj
 0001:00073180       _CG_PlayerFlag             30074180 f   cg_players.obj
 0001:00073440       _CG_PlayerFloatSprite      30074440 f   cg_players.obj
 0001:00073530       _CG_PlayerSprites          30074530 f   cg_players.obj
 0001:00073600       _CG_PlayerShadow           30074600 f   cg_players.obj
 0001:00073880       _CG_PlayerSplash           30074880 f   cg_players.obj
 0001:00073b00       _CG_ForcePushBlur          30074b00 f   cg_players.obj
 0001:00074070       _CG_ForcePushBodyBlur      30075070 f   cg_players.obj
 0001:000741a0       _CG_ForceGripEffect        300751a0 f   cg_players.obj
 0001:000743e0       _CG_ForceElectrocution     300753e0 f   cg_players.obj
 0001:00074c70       _CG_VehicleEffects         30075c70 f   cg_players.obj
 0001:00075760       _CG_CreateSurfaceSmoke     30076760 f   cg_players.obj
 0001:00075e60       _CG_ClearLerpFrame         30076e60 f   cg_players.obj
 0001:000761d0       _VectorLength              300771d0 f   cg_playerstate.obj
 0001:00076cc0       _CG_ClipMoveToEntities     30077cc0 f   cg_predict.obj
 0001:00077210       _CG_VehicleClipCheck       30078210 f   cg_predict.obj
 0001:00078ab0       _CG_Piloting               30079ab0 f   cg_predict.obj
 0001:00078af0       _VectorCompare             30079af0 f   cg_predict.obj
 0001:00078b40       _VectorLength              30079b40 f   cg_predict.obj
 0001:00078b80       _CG_InterpolatePlayerState 30079b80 f   cg_predict.obj
 0001:00078d30       _CG_InterpolateVehiclePlayerState 30079d30 f   cg_predict.obj
 0001:00078f00       _CG_TouchTriggerPrediction 30079f00 f   cg_predict.obj
 0001:00079060       _CG_TouchItem              3007a060 f   cg_predict.obj
 0001:0007a110       _CG_SiegeObjectiveBuffer   3007b110 f   cg_saga.obj
 0001:0007bf50       _CG_DrawClientScore        3007cf50 f   cg_scoreboard.obj
 0001:0007c640       _CG_TeamScoreboard         3007d640 f   cg_scoreboard.obj
 0001:0007d180       _GetCustomSoundForType     3007e180 f   cg_servercmds.obj
 0001:0007d5c0       _CG_RegisterCustomSounds   3007e5c0 f   cg_servercmds.obj
 0001:0007df10       _CG_ServerCommand          3007ef10 f   cg_servercmds.obj
 0001:0007eae0       _CG_ParseScores            3007fae0 f   cg_servercmds.obj
 0001:0007ee50       _CG_ParseTeamInfo          3007fe50 f   cg_servercmds.obj
 0001:0007efa0       _CG_ConfigStringModified   3007ffa0 f   cg_servercmds.obj
 0001:0007f630       _CG_ParseWarmup            30080630 f   cg_servercmds.obj
 0001:0007f670       _CG_MapRestart             30080670 f   cg_servercmds.obj
 0001:0007f750       _CG_RemoveChatEscapeChar   30080750 f   cg_servercmds.obj
 0001:0007f7c0       _CG_BodyQueueCopy          300807c0 f   cg_servercmds.obj
 0001:0007fcf0       _CG_ResetEntity            30080cf0 f   cg_snapshot.obj
 0001:0007ff20       _CG_TransitionSnapshot     30080f20 f   cg_snapshot.obj
 0001:00080110       _CG_TransitionEntity       30081110 f   cg_snapshot.obj
 0001:00080170       _CG_SetNextSnap            30081170 f   cg_snapshot.obj
 0001:000802d0       _CG_ReadNextSnapshot       300812d0 f   cg_snapshot.obj
 0001:00082e60       _BG_GiveMeVectorFromMatrix 30083e60 f   cg_turret.obj
 0001:00083690       _BG_GiveMeVectorFromMatrix 30084690 f   cg_view.obj
 0001:00084430       _CG_AddRefentForAutoMap    30085430 f   cg_view.obj
 0001:00085250       _CG_AddTestModel           30086250 f   cg_view.obj
 0001:000853b0       _CG_DamageBlendBlob        300863b0 f   cg_view.obj
 0001:00085710       _CG_CalcViewValues         30086710 f   cg_view.obj
 0001:00085ae0       _CG_CalcVrect              30086ae0 f   cg_view.obj
 0001:00085bd0       _CG_OffsetThirdPersonView  30086bd0 f   cg_view.obj
 0001:000861d0       _CG_ResetThirdPersonViewDamp 300871d0 f   cg_view.obj
 0001:00086360       _CG_CalcIdealThirdPersonViewTarget 30087360 f   cg_view.obj
 0001:00086570       _CG_CalcIdealThirdPersonViewLocation 30087570 f   cg_view.obj
 0001:000866d0       _CG_UpdateThirdPersonTargetDamp 300876d0 f   cg_view.obj
 0001:00086890       _CG_UpdateThirdPersonCameraDamp 30087890 f   cg_view.obj
 0001:00086c10       _CG_OffsetFirstPersonView  30087c10 f   cg_view.obj
 0001:00087030       _CG_StepOffset             30088030 f   cg_view.obj
 0001:00087080       _CG_OffsetFighterView      30088080 f   cg_view.obj
 0001:00087370       _CG_CalcFov                30088370 f   cg_view.obj
 0001:000876f0       _CG_ThirdPersonActionCam   300886f0 f   cg_view.obj
 0001:000879f0       _VectorLength              300889f0 f   cg_view.obj
 0001:00087a30       _CG_PowerupTimerSounds     30088a30 f   cg_view.obj
 0001:00087a90       _CG_PlayBufferedSounds     30088a90 f   cg_view.obj
 0001:0008a0e0       _BG_GiveMeVectorFromMatrix 3008b0e0 f   cg_weapons.obj
 0001:0008a240       _CG_LightningBolt          3008b240 f   cg_weapons.obj
 0001:0008a290       _CG_AddWeaponWithPowerups  3008b290 f   cg_weapons.obj
 0001:0008a740       _CG_MapTorsoToWeaponFrame  3008b740 f   cg_weapons.obj
 0001:0008a920       _CG_CalculateWeaponPosition 3008b920 f   cg_weapons.obj
 0001:0008b4b0       _CG_WeaponSelectable       3008c4b0 f   cg_weapons.obj
 0001:0008d590       _ProcessMoveCommands       3008e590 f   FighterNPC.obj
 0001:0008e1d0       _PredictedAngularDecrement 3008f1d0 f   FighterNPC.obj
 0001:0008e2a0       _VectorLength              3008f2a0 f   FighterNPC.obj
 0001:0008e2e0       _ProcessOrientCommands     3008f2e0 f   FighterNPC.obj
 0001:0008ed90       _FighterWingMalfunctionCheck 3008fd90 f   FighterNPC.obj
 0001:0008ef30       _FighterNoseMalfunctionCheck 3008ff30 f   FighterNPC.obj
 0001:0008f010       _FighterDamageRoutine      30090010 f   FighterNPC.obj
 0001:00090390       _CG_DistortionOrb          30091390 f   fx_heavyrepeater.obj
 0001:000905e0       _VectorLength              300915e0 f   fx_heavyrepeater.obj
 0001:00090b40       _CrossProduct              30091b40 f   q_math.obj
 0001:000918a0       _VectorLength              300928a0 f   q_math.obj
 0001:00092730       _VectorLengthSquared       30093730 f   q_math.obj
 0001:00092970       _Distance                  30093970 f   q_math.obj
 0001:00094d60       _ProcessMoveCommands       30095d60 f   SpeederNPC.obj
 0001:000954a0       _hashForString             300964a0 f   ui_shared.obj
 0001:000976b0       _Menu_RunCloseScript       300986b0 f   ui_shared.obj
 0001:0009b8c0       _Scroll_TextScroll_AutoFunc 3009c8c0 f   ui_shared.obj
 0001:0009b960       _Scroll_TextScroll_ThumbFunc 3009c960 f   ui_shared.obj
 0001:0009baf0       _Scroll_ListBox_AutoFunc   3009caf0 f   ui_shared.obj
 0001:0009bb90       _Scroll_ListBox_ThumbFunc  3009cb90 f   ui_shared.obj
 0001:0009bea0       _Scroll_Slider_ThumbFunc   3009cea0 f   ui_shared.obj
 0001:0009c6f0       _Display_CloseCinematics   3009d6f0 f   ui_shared.obj
 0001:0009c730       _Menu_CloseCinematics      3009d730 f   ui_shared.obj
 0001:0009c7c0       _Window_CloseCinematic     3009d7c0 f   ui_shared.obj
 0001:0009e5f0       _Controls_GetKeyAssignment 3009f5f0 f   ui_shared.obj
 0001:000a4860       _Item_TextScroll_BuildLines 300a5860 f   ui_shared.obj
 0001:000a5c60       _Menu_CacheContents        300a6c60 f   ui_shared.obj
 0001:000a5cf0       _Window_CacheContents      300a6cf0 f   ui_shared.obj
 0001:000a5d40       _Item_CacheContents        300a6d40 f   ui_shared.obj
 0001:000a5d60       _Menu_OverActiveItem       300a6d60 f   ui_shared.obj
 0001:000a5fb0       _ProcessMoveCommands       300a6fb0 f   WalkerNPC.obj
 0001:000a62b0       _ProcessOrientCommands     300a72b0 f   WalkerNPC.obj
 0001:000a6440       _VectorLength              300a7440 f   WalkerNPC.obj
 0001:000a6dc0       _$$$00001                  300a7dc0 f   LIBC:strchr.obj
 0001:000a7654       _$$$00003                  300a8654 f   LIBC:87fmod.obj
 0001:000a7f5a       __shift                    300a8f5a f   LIBC:cvt.obj
 0001:000a8547       _has_osfxsr_set            300a9547 f   LIBC:cpu_disp.obj
 0001:000a88e3       _$$$00003                  300a98e3 f   LIBC:87disp.obj
 0001:000a8d94       __hextodec                 300a9d94 f   LIBC:input.obj
 0001:000a8dc6       __inc                      300a9dc6 f   LIBC:input.obj
 0001:000a9c50       _$$$00001                  300aac50 f   LIBC:87triga.obj
 0001:000aa910       _write_char                300ab910 f   LIBC:output.obj
 0001:000aa943       _write_multi_char          300ab943 f   LIBC:output.obj
 0001:000aa967       _write_string              300ab967 f   LIBC:output.obj
 0001:000ac381       _doexit                    300ad381 f   LIBC:crt0dat.obj
 0001:000ac6f7       _parse_cmdline             300ad6f7 f   LIBC:stdargv.obj
 0001:000ace9d       $$$00003                   300ade9d f   LIBC:exsup3.obj
 0001:000ad599       __abstract_cw              300ae599 f   LIBC:ieee87.obj
 0001:000ad62b       __hw_cw                    300ae62b f   LIBC:ieee87.obj
 0001:000ad704       _report_failure            300ae704 f   LIBC:secchk.obj
 0001:000ade8d       _CPtoLCID                  300aee8d f   LIBC:mbctype.obj
 0001:000adebc       _setSBCS                   300aeebc f   LIBC:mbctype.obj
 0001:000adee5       _setSBUpLow                300aeee5 f   LIBC:mbctype.obj
 0001:000af8e0       $$$00001                   300b08e0 f   LIBC:exsup.obj
 0001:000af900       $$$00003                   300b0900 f   LIBC:exsup.obj
 0001:000af900       __unwind_handler           300b0900 f   LIBC:exsup.obj
 0001:000af922       $$$00005                   300b0922 f   LIBC:exsup.obj
 0001:000af98a       $$$00007                   300b098a f   LIBC:exsup.obj
 0001:000af9ce       $$$00011                   300b09ce f   LIBC:exsup.obj
 0001:000b0ac4       _flsall                    300b1ac4 f   LIBC:fflush.obj
