 jampgamex86

 Timestamp is 442cd401 (Fri Mar 31 02:02:25 2006)

 Preferred load address is 20000000

 Start         Length     Name                   Class
 0001:00000000 0015822eH .text                   CODE
 0002:00000000 000000ecH .idata$5                DATA
 0002:000000f0 00005230H .rdata                  DATA
 0002:00005320 00000058H .rdata$debug            DATA
 0002:00005380 00000008H .rdata$sxdata           DATA
 0002:00005388 00000004H .rtc$IAA                DATA
 0002:0000538c 00000004H .rtc$IZZ                DATA
 0002:00005390 00000004H .rtc$TAA                DATA
 0002:00005394 00000004H .rtc$TZZ                DATA
 0002:00005398 00000028H .idata$2                DATA
 0002:000053c0 00000014H .idata$3                DATA
 0002:000053d4 000000ecH .idata$4                DATA
 0002:000054c0 00000416H .idata$6                DATA
 0002:000058e0 0000005cH .edata                  DATA
 0003:00000000 00000004H .CRT$XCA                DATA
 0003:00000004 00000004H .CRT$XCAA               DATA
 0003:00000008 00000004H .CRT$XCZ                DATA
 0003:0000000c 00000004H .CRT$XIA                DATA
 0003:00000010 00000010H .CRT$XIC                DATA
 0003:00000020 00000004H .CRT$XIZ                DATA
 0003:00000024 00000004H .CRT$XPA                DATA
 0003:00000028 00000004H .CRT$XPX                DATA
 0003:0000002c 00000004H .CRT$XPZ                DATA
 0003:00000030 00000004H .CRT$XTA                DATA
 0003:00000034 00000004H .CRT$XTZ                DATA
 0003:00000040 00038c44H .data                   DATA
 0003:00038ca0 008a9444H .bss                    DATA
 0004:00000000 00000058H .rsrc$01                DATA
 0004:00000060 00000328H .rsrc$02                DATA

  Address         Publics by Value              Rva+Base     Lib:Object

 0000:00000000       __except_list              00000000     <absolute>
 0000:00000002       ___safe_se_handler_count   00000002     <absolute>
 0001:00000000       _BotStraightTPOrderCheck   20001000 f   ai_main.obj
 0001:000000d0       _BotSelectWeapon           200010d0 f   ai_main.obj
 0001:000000f0       _BotReportStatus           200010f0 f   ai_main.obj
 0001:00000180       _BotOrder                  20001180 f   ai_main.obj
 0001:00000450       _BotMindTricked            20001450 f   ai_main.obj
 0001:00000530       _BotAI_Print               20001530 f   ai_main.obj
 0001:00000540       _IsTeamplay                20001540 f   ai_main.obj
 0001:00000560       _BotAI_GetClientState      20001560 f   ai_main.obj
 0001:000005c0       _BotAI_GetEntityState      200015c0 f   ai_main.obj
 0001:00000640       _BotAI_GetSnapshotEntity   20001640 f   ai_main.obj
 0001:00000690       _BotEntityInfo             20001690 f   ai_main.obj
 0001:000006b0       _NumBots                   200016b0 f   ai_main.obj
 0001:000006c0       _AngleDifference           200016c0 f   ai_main.obj
 0001:00000720       _BotChangeViewAngle        20001720 f   ai_main.obj
 0001:00000800       _BotChangeViewAngles       20001800 f   ai_main.obj
 0001:00000b60       _BotInputToUserCommand     20001b60 f   ai_main.obj
 0001:00000f10       _BotUpdateInput            20001f10 f   ai_main.obj
 0001:00001050       _BotAIRegularUpdate        20002050 f   ai_main.obj
 0001:00001080       _RemoveColorEscapeSequences 20002080 f   ai_main.obj
 0001:00001150       _BotAI                     20002150 f   ai_main.obj
 0001:00001450       _BotScheduleBotThink       20002450 f   ai_main.obj
 0001:000014c0       _PlayersInGame             200024c0 f   ai_main.obj
 0001:00001530       _BotAISetupClient          20002530 f   ai_main.obj
 0001:00001750       _IsABot                    20002750 f   ai_main.obj
 0001:00001780       _BotAIShutdownClient       20002780 f   ai_main.obj
 0001:00001810       _BotResetState             20002810 f   ai_main.obj
 0001:000019f0       _BotAILoadMap              200029f0 f   ai_main.obj
 0001:00001a60       _OrgVisible                20002a60 f   ai_main.obj
 0001:00001aa0       _WPOrgVisible              20002aa0 f   ai_main.obj
 0001:00001ba0       _OrgVisibleBox             20002ba0 f   ai_main.obj
 0001:00001c20       _CheckForFunc              20002c20 f   ai_main.obj
 0001:00001cc0       _BotPVSCheck               20002cc0 f   ai_main.obj
 0001:00001d80       _GetNearestVisibleWP       20002d80 f   ai_main.obj
 0001:00001ed0       _PassWayCheck              20002ed0 f   ai_main.obj
 0001:00001f80       _TotalTrailDistance        20002f80 f   ai_main.obj
 0001:00002060       _CheckForShorterRoutes     20003060 f   ai_main.obj
 0001:000022a0       _WPConstantRoutine         200032a0 f   ai_main.obj
 0001:00002330       _BotCTFGuardDuty           20003330 f   ai_main.obj
 0001:00002360       _WPTouchRoutine            20003360 f   ai_main.obj
 0001:000026a0       _MoveTowardIdealAngles     200036a0 f   ai_main.obj
 0001:000026e0       _BotTrace_Strafe           200036e0 f   ai_main.obj
 0001:00002a50       _BotTrace_Jump             20003a50 f   ai_main.obj
 0001:00002c80       _BotTrace_Duck             20003c80 f   ai_main.obj
 0001:00002e40       _PassStandardEnemyChecks   20003e40 f   ai_main.obj
 0001:000030f0       _BotDamageNotification     200040f0 f   ai_main.obj
 0001:000032c0       _BotCanHear                200042c0 f   ai_main.obj
 0001:00003490       _UpdateEventTracker        20004490 f   ai_main.obj
 0001:00003560       _InFieldOfVision           20004560 f   ai_main.obj
 0001:00003670       _PassLovedOneCheck         20004670 f   ai_main.obj
 0001:000037b0       _ScanForEnemies            200047b0 f   ai_main.obj
 0001:00003b80       _WaitingForNow             20004b80 f   ai_main.obj
 0001:00003d40       _BotGetWeaponRange         20004d40 f   ai_main.obj
 0001:00003e10       _BotIsAChickenWuss         20004e10 f   ai_main.obj
 0001:00004030       _GetNearestBadThing        20005030 f   ai_main.obj
 0001:000044f0       _BotDefendFlag             200054f0 f   ai_main.obj
 0001:000045c0       _BotGetEnemyFlag           200055c0 f   ai_main.obj
 0001:00004690       _BotGetFlagBack            20005690 f   ai_main.obj
 0001:00004870       _BotGuardFlagCarrier       20005870 f   ai_main.obj
 0001:00004a50       _BotGetFlagHome            20005a50 f   ai_main.obj
 0001:00004b20       _GetNewFlagPoint           20005b20 f   ai_main.obj
 0001:00004ce0       _CTFTakesPriority          20005ce0 f   ai_main.obj
 0001:00005210       _EntityVisibleBox          20006210 f   ai_main.obj
 0001:00005280       _Siege_TargetClosestObjective 20006280 f   ai_main.obj
 0001:00005660       _Siege_DefendFromAttackers 20006660 f   ai_main.obj
 0001:00005800       _Siege_CountDefenders      20006800 f   ai_main.obj
 0001:000058a0       _Siege_CountTeammates      200068a0 f   ai_main.obj
 0001:00005920       _SiegeTakesPriority        20006920 f   ai_main.obj
 0001:00005e90       _JMTakesPriority           20006e90 f   ai_main.obj
 0001:00006040       _BotHasAssociated          20007040 f   ai_main.obj
 0001:00006170       _GetBestIdleGoal           20007170 f   ai_main.obj
 0001:00006330       _GetIdealDestination       20007330 f   ai_main.obj
 0001:00006df0       _CommanderBotCTFAI         20007df0 f   ai_main.obj
 0001:000072c0       _CommanderBotSiegeAI       200082c0 f   ai_main.obj
 0001:000074d0       _BotDoTeamplayAI           200084d0 f   ai_main.obj
 0001:00007520       _CommanderBotTeamplayAI    20008520 f   ai_main.obj
 0001:00007850       _CommanderBotAI            20008850 f   ai_main.obj
 0001:000078b0       _MeleeCombatHandling       200088b0 f   ai_main.obj
 0001:00007be0       _SaberCombatHandling       20008be0 f   ai_main.obj
 0001:00008530       _BotWeaponCanLead          20009530 f   ai_main.obj
 0001:000085c0       _BotAimLeading             200095c0 f   ai_main.obj
 0001:00008870       _BotAimOffsetGoalAngles    20009870 f   ai_main.obj
 0001:00008920       _ShouldSecondaryFire       20009920 f   ai_main.obj
 0001:00008ba0       _CombatBotAI               20009ba0 f   ai_main.obj
 0001:00009000       _BotFallbackNavigation     2000a000 f   ai_main.obj
 0001:00009170       _BotTryAnotherWeapon       2000a170 f   ai_main.obj
 0001:00009230       _BotWeaponSelectable       2000a230 f   ai_main.obj
 0001:00009290       _BotSelectIdealWeapon      2000a290 f   ai_main.obj
 0001:00009570       _BotSelectChoiceWeapon     2000a570 f   ai_main.obj
 0001:00009640       _BotSelectMelee            2000a640 f   ai_main.obj
 0001:00009690       _GetLoveLevel              2000a690 f   ai_main.obj
 0001:00009760       _BotLovedOneDied           2000a760 f   ai_main.obj
 0001:00009980       _BotDeathNotify            2000a980 f   ai_main.obj
 0001:00009a70       _StrafeTracing             2000aa70 f   ai_main.obj
 0001:00009c20       _PrimFiring                2000ac20 f   ai_main.obj
 0001:00009c70       _KeepPrimFromFiring        2000ac70 f   ai_main.obj
 0001:00009cd0       _AltFiring                 2000acd0 f   ai_main.obj
 0001:00009d20       _KeepAltFromFiring         2000ad20 f   ai_main.obj
 0001:00009d80       _CheckForFriendInLOF       2000ad80 f   ai_main.obj
 0001:00009ef0       _BotScanForLeader          2000aef0 f   ai_main.obj
 0001:00009ff0       _BotReplyGreetings         2000aff0 f   ai_main.obj
 0001:0000a0b0       _CTFFlagMovement           2000b0b0 f   ai_main.obj
 0001:0000a480       _BotCheckDetPacks          2000b480 f   ai_main.obj
 0001:0000a660       _BotUseInventoryItem       2000b660 f   ai_main.obj
 0001:0000a7d0       _BotSurfaceNear            2000b7d0 f   ai_main.obj
 0001:0000a870       _BotWeaponBlockable        2000b870 f   ai_main.obj
 0001:0000a8f0       _Bot_SetForcedMovement     2000b8f0 f   ai_main.obj
 0001:0000a9a0       _StandardBotAI             2000b9a0 f   ai_main.obj
 0001:0000f690       _BotAIStartFrame           20010690 f   ai_main.obj
 0001:0000f8d0       _BotAISetup                200108d0 f   ai_main.obj
 0001:0000fa50       _BotAIShutdown             20010a50 f   ai_main.obj
 0001:0000fac0       _B_TempAlloc               20010ac0 f   ai_util.obj
 0001:0000fae0       _B_TempFree                20010ae0 f   ai_util.obj
 0001:0000fb00       _B_Alloc                   20010b00 f   ai_util.obj
 0001:0000fb20       _B_Free                    20010b20 f   ai_util.obj
 0001:0000fb30       _B_InitAlloc               20010b30 f   ai_util.obj
 0001:0000fb50       _B_CleanupAlloc            20010b50 f   ai_util.obj
 0001:0000fb60       _GetValueGroup             20010b60 f   ai_util.obj
 0001:0000fce0       _GetPairedValue            20010ce0 f   ai_util.obj
 0001:0000ff80       _BotDoChat                 20010f80 f   ai_util.obj
 0001:00010400       _ParseEmotionalAttachments 20011400 f   ai_util.obj
 0001:00010650       _ReadChatGroups            20011650 f   ai_util.obj
 0001:00010730       _BotUtilizePersonality     20011730 f   ai_util.obj
 0001:00010f20       _GetFlagStr                20011f20 f   ai_wpnav.obj
 0001:00011390       _G_TestLine                20012390 f   ai_wpnav.obj
 0001:00011420       _BotWaypointRender         20012420 f   ai_wpnav.obj
 0001:00011840       _TransferWPData            20012840 f   ai_wpnav.obj
 0001:00011980       _CreateNewWP               20012980 f   ai_wpnav.obj
 0001:00011ad0       _CreateNewWP_FromObject    20012ad0 f   ai_wpnav.obj
 0001:00011cf0       _RemoveWP                  20012cf0 f   ai_wpnav.obj
 0001:00011d90       _RemoveAllWP               20012d90 f   ai_wpnav.obj
 0001:00011db0       _RemoveWP_InTrail          20012db0 f   ai_wpnav.obj
 0001:00011f40       _CreateNewWP_InTrail       20012f40 f   ai_wpnav.obj
 0001:000121c0       _CreateNewWP_InsertUnder   200131c0 f   ai_wpnav.obj
 0001:00012450       _TeleportToWP              20013450 f   ai_wpnav.obj
 0001:00012570       _WPFlagsModify             20013570 f   ai_wpnav.obj
 0001:000125d0       _NodeHere                  200135d0 f   ai_wpnav.obj
 0001:00012710       _CanGetToVector            20013710 f   ai_wpnav.obj
 0001:00012750       _CanGetToVectorTravel      20013750 f   ai_wpnav.obj
 0001:00012b70       _ConnectTrail              20013b70 f   ai_wpnav.obj
 0001:00013c90       _OpposingEnds              20014c90 f   ai_wpnav.obj
 0001:00013d10       _DoorBlockingSection       20014d10 f   ai_wpnav.obj
 0001:00013e30       _RepairPaths               20014e30 f   ai_wpnav.obj
 0001:00014070       _OrgVisibleCurve           20015070 f   ai_wpnav.obj
 0001:00014130       _CanForceJumpTo            20015130 f   ai_wpnav.obj
 0001:000142f0       _CalculatePaths            200152f0 f   ai_wpnav.obj
 0001:000146f0       _GetObjectThatTargets      200156f0 f   ai_wpnav.obj
 0001:00014740       _CalculateSiegeGoals       20015740 f   ai_wpnav.obj
 0001:00014940       _GetNearestVisibleWPToItem 20015940 f   ai_wpnav.obj
 0001:00014ac0       _CalculateWeightGoals      20015ac0 f   ai_wpnav.obj
 0001:00014df0       _CalculateJumpRoutes       20015df0 f   ai_wpnav.obj
 0001:00014fe0       _LoadPathData              20015fe0 f   ai_wpnav.obj
 0001:00015740       _FlagObjects               20016740 f   ai_wpnav.obj
 0001:00015b00       _SavePathData              20016b00 f   ai_wpnav.obj
 0001:00016060       _G_NearestNodeToPoint      20017060 f   ai_wpnav.obj
 0001:00016130       _G_NodeClearForNext        20017130 f   ai_wpnav.obj
 0001:00016180       _G_NodeClearFlags          20017180 f   ai_wpnav.obj
 0001:000161c0       _G_NodeMatchingXY          200171c0 f   ai_wpnav.obj
 0001:00016230       _G_NodeMatchingXY_BA       20017230 f   ai_wpnav.obj
 0001:000162f0       _G_RecursiveConnection     200172f0 f   ai_wpnav.obj
 0001:00016530       _G_BackwardAttachment      20017530 f   ai_wpnav.obj
 0001:000167c0       _G_RMGPathing              200177c0 f   ai_wpnav.obj
 0001:00016c70       _BeginAutoPathRoutine      20017c70 f   ai_wpnav.obj
 0001:00016e80       _LoadPath_ThisLevel        20017e80 f   ai_wpnav.obj
 0001:00017030       _GetClosestSpawn           20018030 f   ai_wpnav.obj
 0001:00017150       _GetNextSpawnInIndex       20018150 f   ai_wpnav.obj
 0001:00017270       _AcceptBotCommand          20018270 f   ai_wpnav.obj
 0001:00017b70       _AnimalProcessOri          20018b70 f   AnimalNPC.obj
 0001:00017cf0       _G_SetAnimalVehicleFunctions 20018cf0 f   AnimalNPC.obj
 0001:00018890       _G_CreateAnimalNPC         20019890 f   AnimalNPC.obj
 0001:000188e0       _BG_AttachToRancor         200198e0 f   bg_g2_utils.obj
 0001:00018ac0       _BG_GetRootSurfNameWithVariant 20019ac0 f   bg_g2_utils.obj
 0001:00018cd0       _BG_FileExists             20019cd0 f   bg_misc.obj
 0001:00018d20       _BG_ParseField             20019d20 f   bg_misc.obj
 0001:00018ed0       _BG_LegalizedForcePowers   20019ed0 f   bg_misc.obj
 0001:00019670       _vectoyaw                  2001a670 f   bg_misc.obj
 0001:00019740       _BG_HasYsalamiri           2001a740 f   bg_misc.obj
 0001:00019780       _BG_CanUseFPNow            2001a780 f   bg_misc.obj
 0001:00019890       _BG_FindItemForPowerup     2001a890 f   bg_misc.obj
 0001:00019900       _BG_FindItemForHoldable    2001a900 f   bg_misc.obj
 0001:00019960       _BG_FindItemForWeapon      2001a960 f   bg_misc.obj
 0001:000199a0       _BG_FindItemForAmmo        2001a9a0 f   bg_misc.obj
 0001:000199e0       _BG_FindItem               2001a9e0 f   bg_misc.obj
 0001:00019a30       _BG_PlayerTouchesItem      2001aa30 f   bg_misc.obj
 0001:00019ae0       _BG_ProperForceIndex       2001aae0 f   bg_misc.obj
 0001:00019b20       _BG_CycleForce             2001ab20 f   bg_misc.obj
 0001:00019c80       _BG_GetItemIndexByTag      2001ac80 f   bg_misc.obj
 0001:00019cd0       _BG_IsItemSelectable       2001acd0 f   bg_misc.obj
 0001:00019cf0       _BG_CycleInven             2001acf0 f   bg_misc.obj
 0001:00019df0       _BG_CanItemBeGrabbed       2001adf0 f   bg_misc.obj
 0001:0001a1b0       _BG_EvaluateTrajectory     2001b1b0 f   bg_misc.obj
 0001:0001a4c0       _BG_EvaluateTrajectoryDelta 2001b4c0 f   bg_misc.obj
 0001:0001a720       _BG_AddPredictableEventToPlayerstate 2001b720 f   bg_misc.obj
 0001:0001a770       _BG_TouchJumpPad           2001b770 f   bg_misc.obj
 0001:0001a840       _BG_EmplacedView           2001b840 f   bg_misc.obj
 0001:0001a920       _BG_IsValidCharacterModel  2001b920 f   bg_misc.obj
 0001:0001a9b0       _BG_ValidateSkinForTeam    2001b9b0 f   bg_misc.obj
 0001:0001ace0       _BG_PlayerStateToEntityState 2001bce0 f   bg_misc.obj
 0001:0001b320       _BG_PlayerStateToEntityStateExtraPolate 2001c320 f   bg_misc.obj
 0001:0001b8f0       _BG_ModelCache             2001c8f0 f   bg_misc.obj
 0001:0001b950       _BG_Alloc                  2001c950 f   bg_misc.obj
 0001:0001b9a0       _BG_AllocUnaligned         2001c9a0 f   bg_misc.obj
 0001:0001b9e0       _BG_TempAlloc              2001c9e0 f   bg_misc.obj
 0001:0001ba20       _BG_TempFree               2001ca20 f   bg_misc.obj
 0001:0001ba40       _BG_StringAlloc            2001ca40 f   bg_misc.obj
 0001:0001ba80       _BG_OutOfMemory            2001ca80 f   bg_misc.obj
 0001:0001baa0       _BG_SaberStanceAnim        2001caa0 f   bg_panimate.obj
 0001:0001bb30       _BG_CrouchAnim             2001cb30 f   bg_panimate.obj
 0001:0001bc70       _BG_InSpecialJump          2001cc70 f   bg_panimate.obj
 0001:0001bdc0       _BG_InSaberStandAnim       2001cdc0 f   bg_panimate.obj
 0001:0001be00       _BG_InReboundJump          2001ce00 f   bg_panimate.obj
 0001:0001be30       _BG_InReboundHold          2001ce30 f   bg_panimate.obj
 0001:0001be60       _BG_InReboundRelease       2001ce60 f   bg_panimate.obj
 0001:0001be90       _BG_InBackFlip             2001ce90 f   bg_panimate.obj
 0001:0001bec0       _BG_DirectFlippingAnim     2001cec0 f   bg_panimate.obj
 0001:0001bef0       _BG_SaberInAttackPure      2001cef0 f   bg_panimate.obj
 0001:0001bf10       _BG_SaberInAttack          2001cf10 f   bg_panimate.obj
 0001:0001bf50       _BG_SaberInKata            2001cf50 f   bg_panimate.obj
 0001:0001bf80       _BG_InKataAnim             2001cf80 f   bg_panimate.obj
 0001:0001bfb0       _BG_SaberInSpecial         2001cfb0 f   bg_panimate.obj
 0001:0001c000       _BG_KickMove               2001d000 f   bg_panimate.obj
 0001:0001c030       _BG_SaberInIdle            2001d030 f   bg_panimate.obj
 0001:0001c060       _BG_InExtraDefenseSaberMove 2001d060 f   bg_panimate.obj
 0001:0001c0d0       _BG_FlippingAnim           2001d0d0 f   bg_panimate.obj
 0001:0001c1d0       _BG_SpinningSaberAnim      2001d1d0 f   bg_panimate.obj
 0001:0001c530       _BG_SaberInSpecialAttack   2001d530 f   bg_panimate.obj
 0001:0001c6b0       _BG_KickingAnim            2001d6b0 f   bg_panimate.obj
 0001:0001c730       _BG_InGrappleMove          2001d730 f   bg_panimate.obj
 0001:0001c7d0       _BG_BrokenParryForAttack   2001d7d0 f   bg_panimate.obj
 0001:0001c860       _BG_BrokenParryForParry    2001d860 f   bg_panimate.obj
 0001:0001c990       _BG_KnockawayForParry      2001d990 f   bg_panimate.obj
 0001:0001c9f0       _BG_InRoll                 2001d9f0 f   bg_panimate.obj
 0001:0001ca90       _BG_InSpecialDeathAnim     2001da90 f   bg_panimate.obj
 0001:0001cac0       _BG_InDeathAnim            2001dac0 f   bg_panimate.obj
 0001:0001cb10       _BG_InKnockDownOnly        2001db10 f   bg_panimate.obj
 0001:0001cb40       _BG_InSaberLockOld         2001db40 f   bg_panimate.obj
 0001:0001cb90       _BG_InSaberLock            2001db90 f   bg_panimate.obj
 0001:0001cc40       _PM_InCartwheel            2001dc40 f   bg_panimate.obj
 0001:0001cc80       _BG_InKnockDownOnGround    2001dc80 f   bg_panimate.obj
 0001:0001cd80       _BG_StabDownAnim           2001dd80 f   bg_panimate.obj
 0001:0001cdb0       _PM_SaberBounceForAttack   2001ddb0 f   bg_panimate.obj
 0001:0001ce30       _PM_SaberDeflectionForQuad 2001de30 f   bg_panimate.obj
 0001:0001ceb0       _PM_SaberInDeflect         2001deb0 f   bg_panimate.obj
 0001:0001ced0       _PM_SaberInParry           2001ded0 f   bg_panimate.obj
 0001:0001cef0       _PM_SaberInKnockaway       2001def0 f   bg_panimate.obj
 0001:0001cf10       _PM_SaberInReflect         2001df10 f   bg_panimate.obj
 0001:0001cf30       _PM_SaberInStart           2001df30 f   bg_panimate.obj
 0001:0001cf50       _PM_SaberInReturn          2001df50 f   bg_panimate.obj
 0001:0001cf70       _BG_SaberInReturn          2001df70 f   bg_panimate.obj
 0001:0001cf90       _PM_InSaberAnim            2001df90 f   bg_panimate.obj
 0001:0001cfb0       _PM_InRealKnockDown        2001dfb0 f   bg_panimate.obj
 0001:0001cfe0       _PM_InKnockDown            2001dfe0 f   bg_panimate.obj
 0001:0001d060       _PM_PainAnim               2001e060 f   bg_panimate.obj
 0001:0001d090       _PM_JumpingAnim            2001e090 f   bg_panimate.obj
 0001:0001d0c0       _PM_LandingAnim            2001e0c0 f   bg_panimate.obj
 0001:0001d120       _PM_SpinningAnim           2001e120 f   bg_panimate.obj
 0001:0001d140       _PM_InOnGroundAnim         2001e140 f   bg_panimate.obj
 0001:0001d1a0       _PM_InRollComplete         2001e1a0 f   bg_panimate.obj
 0001:0001d1e0       _PM_CanRollFromSoulCal     2001e1e0 f   bg_panimate.obj
 0001:0001d220       _BG_SuperBreakLoseAnim     2001e220 f   bg_panimate.obj
 0001:0001d2c0       _BG_SuperBreakWinAnim      2001e2c0 f   bg_panimate.obj
 0001:0001d360       _BG_SaberLockBreakAnim     2001e360 f   bg_panimate.obj
 0001:0001d450       _BG_FullBodyTauntAnim      2001e450 f   bg_panimate.obj
 0001:0001d4b0       _BG_AnimLength             2001e4b0 f   bg_panimate.obj
 0001:0001d520       _PM_AnimLength             2001e520 f   bg_panimate.obj
 0001:0001d5c0       _PM_DebugLegsAnim          2001e5c0 f   bg_panimate.obj
 0001:0001d640       _PM_SaberInTransition      2001e640 f   bg_panimate.obj
 0001:0001d660       _BG_SaberInTransitionAny   2001e660 f   bg_panimate.obj
 0001:0001d6b0       _BG_FlipPart               2001e6b0 f   bg_panimate.obj
 0001:0001d710       _BG_InitAnimsets           2001e710 f   bg_panimate.obj
 0001:0001d740       _BG_ClearAnimsets          2001e740 f   bg_panimate.obj
 0001:0001d750       _BG_AnimsetAlloc           2001e750 f   bg_panimate.obj
 0001:0001d780       _BG_AnimsetFree            2001e780 f   bg_panimate.obj
 0001:0001d790       _BG_ParseAnimationFile     2001e790 f   bg_panimate.obj
 0001:0001dbf0       _BG_StartLegsAnim          2001ebf0 f   bg_panimate.obj
 0001:0001dc70       _PM_ContinueLegsAnim       2001ec70 f   bg_panimate.obj
 0001:0001dcb0       _PM_ForceLegsAnim          2001ecb0 f   bg_panimate.obj
 0001:0001dd60       _BG_StartTorsoAnim         2001ed60 f   bg_panimate.obj
 0001:0001ddc0       _PM_StartTorsoAnim         2001edc0 f   bg_panimate.obj
 0001:0001dde0       _BG_SetLegsAnimTimer       2001ede0 f   bg_panimate.obj
 0001:0001de10       _PM_SetLegsAnimTimer       2001ee10 f   bg_panimate.obj
 0001:0001de30       _BG_SetTorsoAnimTimer      2001ee30 f   bg_panimate.obj
 0001:0001de60       _PM_SetTorsoAnimTimer      2001ee60 f   bg_panimate.obj
 0001:0001de80       _BG_SaberStartTransAnim    2001ee80 f   bg_panimate.obj
 0001:0001e010       _BG_SetAnimFinal           2001f010 f   bg_panimate.obj
 0001:0001e3c0       _PM_SetAnimFinal           2001f3c0 f   bg_panimate.obj
 0001:0001e400       _BG_HasAnimation           2001f400 f   bg_panimate.obj
 0001:0001e460       _BG_PickAnim               2001f460 f   bg_panimate.obj
 0001:0001e4c0       _BG_SetAnim                2001f4c0 f   bg_panimate.obj
 0001:0001e5c0       _PM_SetAnim                2001f5c0 f   bg_panimate.obj
 0001:0001e600       _PM_BGEntForNum            2001f600 f   bg_pmove.obj
 0001:0001e660       _BG_SabersOff              2001f660 f   bg_pmove.obj
 0001:0001e6b0       _BG_KnockDownable          2001f6b0 f   bg_pmove.obj
 0001:0001e6e0       _PM_GetSaberStance         2001f6e0 f   bg_pmove.obj
 0001:0001e840       _PM_DoSlowFall             2001f840 f   bg_pmove.obj
 0001:0001e880       _PM_pitch_roll_for_slope   2001f880 f   bg_pmove.obj
 0001:0001ec20       _PM_SetSpecialMoveValues   2001fc20 f   bg_pmove.obj
 0001:0001ece0       _BG_ExternThisSoICanRecompileInDebug 2001fce0 f   bg_pmove.obj
 0001:0001ecf0       _BG_VehicleTurnRateForSpeed 2001fcf0 f   bg_pmove.obj
 0001:0001ee00       _PM_HoverTrace             2001fe00 f   bg_pmove.obj
 0001:0001f920       _PM_AddEvent               20020920 f   bg_pmove.obj
 0001:0001f940       _PM_AddEventWithParm       20020940 f   bg_pmove.obj
 0001:0001f960       _PM_AddTouchEnt            20020960 f   bg_pmove.obj
 0001:0001f9e0       _PM_ClipVelocity           200209e0 f   bg_pmove.obj
 0001:0001fad0       _PM_ForceJumpingUp         20020ad0 f   bg_pmove.obj
 0001:0001fc20       _PM_SetPMViewAngle         20020c20 f   bg_pmove.obj
 0001:0001fcb0       _PM_AdjustAngleForWallRun  20020cb0 f   bg_pmove.obj
 0001:000201d0       _PM_AdjustAnglesForWallRunUpFlipAlt 200211d0 f   bg_pmove.obj
 0001:00020200       _PM_AdjustAngleForWallRunUp 20021200 f   bg_pmove.obj
 0001:000206d0       _PM_AdjustAngleForWallJump 200216d0 f   bg_pmove.obj
 0001:00020cc0       _PM_SetForceJumpZStart     20021cc0 f   bg_pmove.obj
 0001:00020d20       _PM_GrabWallForJump        20021d20 f   bg_pmove.obj
 0001:000210b0       _PM_CheckDualForwardJumpDuck 200220b0 f   bg_pmove.obj
 0001:00021170       _PM_CheckFixMins           20022170 f   bg_pmove.obj
 0001:00021450       _PM_Use                    20022450 f   bg_pmove.obj
 0001:000214e0       _PM_WalkingAnim            200224e0 f   bg_pmove.obj
 0001:00021550       _PM_RunningAnim            20022550 f   bg_pmove.obj
 0001:000215b0       _PM_SwimmingAnim           200225b0 f   bg_pmove.obj
 0001:000215e0       _PM_RollingAnim            200225e0 f   bg_pmove.obj
 0001:00021610       _PM_AnglesForSlope         20022610 f   bg_pmove.obj
 0001:00021710       _PM_FootSlopeTrace         20022710 f   bg_pmove.obj
 0001:00021a40       _BG_InSlopeAnim            20022a40 f   bg_pmove.obj
 0001:00021a70       _PM_AdjustStandAnimForSlope 20022a70 f   bg_pmove.obj
 0001:00022210       _PM_LegsSlopeBackTransition 20023210 f   bg_pmove.obj
 0001:00022300       _BG_ClearRocketLock        20023300 f   bg_pmove.obj
 0001:00022340       _PM_BeginWeaponChange      20023340 f   bg_pmove.obj
 0001:00022430       _PM_FinishWeaponChange     20023430 f   bg_pmove.obj
 0001:000224e0       _BG_VehTraceFromCamPos     200234e0 f   bg_pmove.obj
 0001:00022760       _PM_RocketLock             20023760 f   bg_pmove.obj
 0001:00022c60       _PM_ItemUsable             20023c60 f   bg_pmove.obj
 0001:00022f40       _PM_CanSetWeaponAnims      20023f40 f   bg_pmove.obj
 0001:00022f60       _PM_VehicleWeaponAnimate   20023f60 f   bg_pmove.obj
 0001:00023470       _BG_UnrestrainedPitchRoll  20024470 f   bg_pmove.obj
 0001:000234c0       _PM_UpdateViewAngles       200244c0 f   bg_pmove.obj
 0001:000235e0       _PM_AdjustAttackStates     200245e0 f   bg_pmove.obj
 0001:00023b40       _BG_CmdForRoll             20024b40 f   bg_pmove.obj
 0001:00023e10       _BG_AdjustClientSpeed      20024e10 f   bg_pmove.obj
 0001:00024350       _BG_InRollAnim             20025350 f   bg_pmove.obj
 0001:00024390       _BG_InKnockDown            20025390 f   bg_pmove.obj
 0001:00024400       _BG_InRollES               20025400 f   bg_pmove.obj
 0001:00024430       _BG_IK_MoveArm             20025430 f   bg_pmove.obj
 0001:000249f0       _BG_UpdateLookAngles       200259f0 f   bg_pmove.obj
 0001:00024c20       _BG_InRoll2                20025c20 f   bg_pmove.obj
 0001:00024cc0       _BG_G2PlayerAngles         20025cc0 f   bg_pmove.obj
 0001:000262b0       _BG_G2ATSTAngles           200272b0 f   bg_pmove.obj
 0001:000262e0       _PM_VehicleViewAngles      200272e0 f   bg_pmove.obj
 0001:00026570       _PM_WeaponOkOnVehicle      20027570 f   bg_pmove.obj
 0001:000265a0       _PM_GetOkWeaponForVehicle  200275a0 f   bg_pmove.obj
 0001:00026600       _PM_VehForcedTurning       20027600 f   bg_pmove.obj
 0001:000267c0       _PM_VehFaceHyperspacePoint 200277c0 f   bg_pmove.obj
 0001:00026b10       _BG_VehicleAdjustBBoxForOrientation 20027b10 f   bg_pmove.obj
 0001:00027250       _PM_MoveForKata            20028250 f   bg_pmove.obj
 0001:00027490       _PmoveSingle               20028490 f   bg_pmove.obj
 0001:00033ba0       _Pmove                     20034ba0 f   bg_pmove.obj
 0001:00033cb0       _AddPassenger              20034cb0 f i g_vehicles.obj
 0001:00033cb0       _PM_IsRocketTrooper        20034cb0 f i bg_pmove.obj
 0001:00033cc0       _PM_irand_timesync         20034cc0 f   bg_saber.obj
 0001:00033d30       _BG_ForcePowerDrain        20034d30 f   bg_saber.obj
 0001:00033eb0       _BG_EnoughForcePowerForMove 20034eb0 f   bg_saber.obj
 0001:00033ee0       _PM_AttackMoveForQuad      20034ee0 f   bg_saber.obj
 0001:00033f60       _PM_SaberAnimTransitionAnim 20034f60 f   bg_saber.obj
 0001:00034180       _PM_CheckStabDown          20035180 f   bg_saber.obj
 0001:000343b0       _PM_SaberMoveQuadrantForMovement 200353b0 f   bg_saber.obj
 0001:00034450       _PM_SaberInBounce          20035450 f   bg_saber.obj
 0001:00034480       _PM_SaberAttackChainAngle  20035480 f   bg_saber.obj
 0001:000344c0       _PM_SaberKataDone          200354c0 f   bg_saber.obj
 0001:00034710       _PM_SetAnimFrame           20035710 f   bg_saber.obj
 0001:00034730       _PM_SaberLockWinAnim       20035730 f   bg_saber.obj
 0001:00034900       _PM_SaberLockLoseAnim      20035900 f   bg_saber.obj
 0001:00034b20       _PM_SaberLockResultAnim    20035b20 f   bg_saber.obj
 0001:00034c90       _PM_SaberLockBreak         20035c90 f   bg_saber.obj
 0001:000350f0       _BG_CheckIncrementLockAnim 200360f0 f   bg_saber.obj
 0001:000351d0       _PM_SaberLocked            200361d0 f   bg_saber.obj
 0001:00035750       _PM_SaberInBrokenParry     20036750 f   bg_saber.obj
 0001:00035790       _PM_BrokenParryForParry    20036790 f   bg_saber.obj
 0001:000358b0       _PM_CanBackstab            200368b0 f   bg_saber.obj
 0001:00035a10       _PM_SaberFlipOverAttackMove 20036a10 f   bg_saber.obj
 0001:00035bc0       _PM_SaberBackflipAttackMove 20036bc0 f   bg_saber.obj
 0001:00035cb0       _PM_SaberDualJumpAttackMove 20036cb0 f   bg_saber.obj
 0001:00035cd0       _PM_SomeoneInFront         20036cd0 f   bg_saber.obj
 0001:00035e40       _PM_SaberLungeAttackMove   20036e40 f   bg_saber.obj
 0001:00036020       _PM_SaberJumpAttackMove2   20037020 f   bg_saber.obj
 0001:00036110       _PM_SaberJumpAttackMove    20037110 f   bg_saber.obj
 0001:000362c0       _PM_GroundDistance         200372c0 f   bg_saber.obj
 0001:000363d0       _PM_WalkableGroundDistance 200373d0 f   bg_saber.obj
 0001:000364c0       _PM_CheckPullAttack        200374c0 f   bg_saber.obj
 0001:000364d0       _PM_InSecondaryStyle       200374d0 f   bg_saber.obj
 0001:00036520       _PM_SaberAttackForMovement 20037520 f   bg_saber.obj
 0001:000374a0       _PM_KickMoveForConditions  200384a0 f   bg_saber.obj
 0001:00037520       _PM_SaberMoveOkayForKata   20038520 f   bg_saber.obj
 0001:00037560       _PM_CanDoKata              20038560 f   bg_saber.obj
 0001:00037720       _PM_CheckAltKickAttack     20038720 f   bg_saber.obj
 0001:000377d0       _PM_SaberPowerCheck        200387d0 f   bg_saber.obj
 0001:00037840       _PM_CanDoRollStab          20038840 f   bg_saber.obj
 0001:000378f0       _PM_WeaponLightsaber       200388f0 f   bg_saber.obj
 0001:00039300       _PM_SetSaberMove           2003a300 f   bg_saber.obj
 0001:00039c70       _BG_MySaber                2003ac70 f   bg_saber.obj
 0001:00039d00       _BG_SoundIndex             2003ad00 f   bg_saberLoad.obj
 0001:00039d20       _BG_ParseLiteral           2003ad20 f   bg_saberLoad.obj
 0001:00039d90       _TranslateSaberColor       2003ad90 f   bg_saberLoad.obj
 0001:00039e70       _TranslateSaberStyle       2003ae70 f   bg_saberLoad.obj
 0001:00039f50       _WP_SaberBladeUseSecondBladeStyle 2003af50 f   bg_saberLoad.obj
 0001:00039f80       _WP_SaberBladeDoTransitionDamage 2003af80 f   bg_saberLoad.obj
 0001:00039fe0       _WP_UseFirstValidSaberStyle 2003afe0 f   bg_saberLoad.obj
 0001:0003a1f0       _WP_SaberStyleValidForSaber 2003b1f0 f   bg_saberLoad.obj
 0001:0003a3e0       _WP_SaberCanTurnOffSomeBlades 2003b3e0 f   bg_saberLoad.obj
 0001:0003a450       _WP_SaberSetDefaults       2003b450 f   bg_saberLoad.obj
 0001:0003a950       _WP_SaberParseParms        2003b950 f   bg_saberLoad.obj
 0001:0003d7e0       _WP_SaberParseParm         2003e7e0 f   bg_saberLoad.obj
 0001:0003d940       _WP_SaberValidForPlayerInMP 2003e940 f   bg_saberLoad.obj
 0001:0003d990       _WP_RemoveSaber            2003e990 f   bg_saberLoad.obj
 0001:0003da10       _WP_SetSaber               2003ea10 f   bg_saberLoad.obj
 0001:0003db00       _WP_SaberSetColor          2003eb00 f   bg_saberLoad.obj
 0001:0003db40       _WP_SaberLoadParms         2003eb40 f   bg_saberLoad.obj
 0001:0003dd50       _BG_BLADE_ActivateTrail    2003ed50 f   bg_saberLoad.obj
 0001:0003dd70       _BG_BLADE_DeactivateTrail  2003ed70 f   bg_saberLoad.obj
 0001:0003dd90       _BG_SI_Activate            2003ed90 f   bg_saberLoad.obj
 0001:0003dde0       _BG_SI_Deactivate          2003ede0 f   bg_saberLoad.obj
 0001:0003de30       _BG_SI_BladeActivate       2003ee30 f   bg_saberLoad.obj
 0001:0003de70       _BG_SI_Active              2003ee70 f   bg_saberLoad.obj
 0001:0003dec0       _BG_SI_SetLength           2003eec0 f   bg_saberLoad.obj
 0001:0003df00       _BG_SI_SetDesiredLength    2003ef00 f   bg_saberLoad.obj
 0001:0003df80       _BG_SI_SetLengthGradual    2003ef80 f   bg_saberLoad.obj
 0001:0003e2c0       _BG_SI_Length              2003f2c0 f   bg_saberLoad.obj
 0001:0003e330       _BG_SI_LengthMax           2003f330 f   bg_saberLoad.obj
 0001:0003e3a0       _BG_SI_ActivateTrail       2003f3a0 f   bg_saberLoad.obj
 0001:0003e3f0       _BG_SI_DeactivateTrail     2003f3f0 f   bg_saberLoad.obj
 0001:0003e440       _BG_SiegeStripTabs         2003f440 f   bg_saga.obj
 0001:0003e4b0       _BG_SiegeGetValueGroup     2003f4b0 f   bg_saga.obj
 0001:0003eae0       _BG_SiegeGetPairedValue    2003fae0 f   bg_saga.obj
 0001:0003eff0       _BG_SiegeTranslateForcePowers 2003fff0 f   bg_saga.obj
 0001:0003f320       _BG_SiegeTranslateGenericTable 20040320 f   bg_saga.obj
 0001:0003f510       _BG_SiegeParseClassFile    20040510 f   bg_saga.obj
 0001:0003fea0       _BG_SiegeCountBaseClass    20040ea0 f   bg_saga.obj
 0001:0003ff20       _BG_GetUIPortraitFile      20040f20 f   bg_saga.obj
 0001:0003ffb0       _BG_GetUIPortrait          20040fb0 f   bg_saga.obj
 0001:00040050       _BG_GetClassOnBaseClass    20041050 f   bg_saga.obj
 0001:000400e0       _BG_SiegeLoadClasses       200410e0 f   bg_saga.obj
 0001:000401d0       _BG_SiegeFindClassByName   200411d0 f   bg_saga.obj
 0001:00040230       _BG_SiegeParseTeamFile     20041230 f   bg_saga.obj
 0001:000404b0       _BG_SiegeLoadTeams         200414b0 f   bg_saga.obj
 0001:00040570       _BG_SiegeFindThemeForTeam  20041570 f   bg_saga.obj
 0001:000405a0       _BG_PrecacheSabersForSiegeTeam 200415a0 f   bg_saga.obj
 0001:000406f0       _BG_SiegeCheckClassLegality 200416f0 f   bg_saga.obj
 0001:000407a0       _BG_SiegeFindTeamForTheme  200417a0 f   bg_saga.obj
 0001:00040810       _BG_SiegeSetTeamTheme      20041810 f   bg_saga.obj
 0001:00040850       _BG_SiegeFindClassIndexByName 20041850 f   bg_saga.obj
 0001:000408a0       _PM_VehicleImpact          200418a0 f   bg_slidemove.obj
 0001:00041bd0       _PM_GroundSlideOkay        20042bd0 f   bg_slidemove.obj
 0001:00041cb0       _PM_ClientImpact           20042cb0 f   bg_slidemove.obj
 0001:00043590       _PM_SlideMove              20044590 f   bg_slidemove.obj
 0001:00043f80       _PM_StepSlideMove          20044f80 f   bg_slidemove.obj
 0001:00044730       _BG_ClearVehicleParseParms 20045730 f   bg_vehicleLoad.obj
 0001:00044750       _VEH_LoadVehWeapon         20045750 f   bg_vehicleLoad.obj
 0001:00044d50       _VEH_VehWeaponIndexForName 20045d50 f   bg_vehicleLoad.obj
 0001:00044e20       _BG_SetSharedVehicleFunctions 20045e20 f   bg_vehicleLoad.obj
 0001:00044ea0       _BG_VehicleSetDefaults     20045ea0 f   bg_vehicleLoad.obj
 0001:00044ec0       _BG_VehicleClampData       20045ec0 f   bg_vehicleLoad.obj
 0001:00044f70       _VEH_LoadVehicle           20045f70 f   bg_vehicleLoad.obj
 0001:00045e50       _VEH_VehicleIndexForName   20046e50 f   bg_vehicleLoad.obj
 0001:00045f20       _BG_VehWeaponLoadParms     20046f20 f   bg_vehicleLoad.obj
 0001:00046140       _BG_VehicleLoadParms       20047140 f   bg_vehicleLoad.obj
 0001:000463a0       _BG_VehicleGetIndex        200473a0 f   bg_vehicleLoad.obj
 0001:000463c0       _BG_GetVehicleModelName    200473c0 f   bg_vehicleLoad.obj
 0001:00046420       _BG_GetVehicleSkinName     20047420 f   bg_vehicleLoad.obj
 0001:000464b0       _AttachRidersGeneric       200474b0 f   bg_vehicleLoad.obj
 0001:000466d0       _BG_FighterUpdate          200476d0 f   FighterNPC.obj
 0001:00046850       _FighterIsInSpace          20047850 f   FighterNPC.obj
 0001:000468a0       _FighterOverValidLandingSurface 200478a0 f   FighterNPC.obj
 0001:000468e0       _FighterIsLanded           200478e0 f   FighterNPC.obj
 0001:00046920       _FighterIsLanding          20047920 f   FighterNPC.obj
 0001:00046990       _FighterIsLaunching        20047990 f   FighterNPC.obj
 0001:000469f0       _FighterSuspended          200479f0 f   FighterNPC.obj
 0001:00046a50       _FighterYawAdjust          20047a50 f   FighterNPC.obj
 0001:00046b50       _FighterPitchAdjust        20047b50 f   FighterNPC.obj
 0001:00046c50       _FighterPitchClamp         20047c50 f   FighterNPC.obj
 0001:00046d20       _G_SetFighterVehicleFunctions 20047d20 f   FighterNPC.obj
 0001:00049440       _G_CreateFighterNPC        2004a440 f   FighterNPC.obj
 0001:00049490       _P_SetTwitchInfo           2004a490 f   g_active.obj
 0001:000494c0       _P_DamageFeedback          2004a4c0 f   g_active.obj
 0001:00049720       _P_WorldEffects            2004a720 f   g_active.obj
 0001:000499c0       _DoImpact                  2004a9c0 f   g_active.obj
 0001:00049f80       _Client_CheckImpactBBrush  2004af80 f   g_active.obj
 0001:0004a070       _G_SetClientSound          2004b070 f   g_active.obj
 0001:0004a1b0       _ClientImpacts             2004b1b0 f   g_active.obj
 0001:0004a2b0       _G_TouchTriggers           2004b2b0 f   g_active.obj
 0001:0004a5b0       _G_MoverTouchPushTriggers  2004b5b0 f   g_active.obj
 0001:0004a8b0       _SpectatorThink            2004b8b0 f   g_active.obj
 0001:0004aab0       _ClientInactivityTimer     2004bab0 f   g_active.obj
 0001:0004abf0       _ClientTimerActions        2004bbf0 f   g_active.obj
 0001:0004ac50       _ClientIntermissionThink   2004bc50 f   g_active.obj
 0001:0004ace0       _G_VehicleAttachDroidUnit  2004bce0 f   g_active.obj
 0001:0004aff0       _G_CheapWeaponFire         2004bff0 f   g_active.obj
 0001:0004b1c0       _ClientEvents              2004c1c0 f   g_active.obj
 0001:0004b580       _SendPendingPredictableEvents 2004c580 f   g_active.obj
 0001:0004b690       _G_UpdateClientBroadcasts  2004c690 f   g_active.obj
 0001:0004b9c0       _G_AddPushVecToUcmd        2004c9c0 f   g_active.obj
 0001:0004bc40       _G_StandingAnim            2004cc40 f   g_active.obj
 0001:0004bc90       _G_ActionButtonPressed     2004cc90 f   g_active.obj
 0001:0004bd30       _G_CheckClientIdle         2004cd30 f   g_active.obj
 0001:0004c480       _NPC_Accelerate            2004d480 f   g_active.obj
 0001:0004c7a0       _G_CheckMovingLoopingSounds 2004d7a0 f   g_active.obj
 0001:0004c9a0       _G_HeldByMonster           2004d9a0 f   g_active.obj
 0001:0004cb40       _G_SetTauntAnim            2004db40 f   g_active.obj
 0001:0004d530       _ClientThink_real          2004e530 f   g_active.obj
 0001:00051c30       _G_CheckClientTimeouts     20052c30 f   g_active.obj
 0001:00051c90       _ClientThink               20052c90 f   g_active.obj
 0001:00051d40       _G_RunClient               20052d40 f   g_active.obj
 0001:00051d80       _GetLevel                  20052d80 f   g_active.obj
 0001:00051e30       _SetRPGStats               20052e30 f   g_active.obj
 0001:00052240       _ShowRPGStats              20053240 f   g_active.obj
 0001:00053f20       _SpectatorClientEndFrame   20054f20 f   g_active.obj
 0001:00054110       _ClientEndFrame            20055110 f   g_active.obj
 0001:000542c0       _UpdateTournamentInfo      200552c0 f   g_arenas.obj
 0001:000546c0       _trap_Cvar_VariableValue   200556c0 f   g_bot.obj
 0001:00054700       _G_ParseInfos              20055700 f   g_bot.obj
 0001:000548d0       _G_GetMapTypeBits          200558d0 f   g_bot.obj
 0001:00054a10       _G_DoesMapSupportGametype  20055a10 f   g_bot.obj
 0001:00054b00       _G_RefreshNextMap          20055b00 f   g_bot.obj
 0001:00054d50       _G_GetArenaInfoByMap       20055d50 f   g_bot.obj
 0001:00054db0       _G_AddRandomBot            20055db0 f   g_bot.obj
 0001:00055090       _G_RemoveRandomBot         20056090 f   g_bot.obj
 0001:00055180       _G_CountHumanPlayers       20056180 f   g_bot.obj
 0001:00055210       _G_CountBotPlayers         20056210 f   g_bot.obj
 0001:00055310       _G_CheckMinimumPlayers     20056310 f   g_bot.obj
 0001:000553f0       _G_CheckBotSpawn           200563f0 f   g_bot.obj
 0001:00055460       _G_RemoveQueuedBotBegin    20056460 f   g_bot.obj
 0001:000554b0       _G_BotConnect              200564b0 f   g_bot.obj
 0001:00055580       _Svcmd_AddBot_f            20056580 f   g_bot.obj
 0001:00055f70       _Svcmd_BotList_f           20056f70 f   g_bot.obj
 0001:00056120       _G_GetBotInfoByNumber      20057120 f   g_bot.obj
 0001:00056160       _G_GetBotInfoByName        20057160 f   g_bot.obj
 0001:000561d0       _G_InitBots                200571d0 f   g_bot.obj
 0001:00056630       _SP_info_player_duel       20057630 f   g_client.obj
 0001:000566a0       _SP_info_player_duel1      200576a0 f   g_client.obj
 0001:00056710       _SP_info_player_duel2      20057710 f   g_client.obj
 0001:00056780       _SP_info_player_deathmatch 20057780 f   g_client.obj
 0001:000567f0       _SP_info_player_start      200577f0 f   g_client.obj
 0001:00056810       _SP_info_player_start_red  20057810 f   g_client.obj
 0001:00056830       _SP_info_player_start_blue 20057830 f   g_client.obj
 0001:00056850       _SiegePointUse             20057850 f   g_client.obj
 0001:00056880       _SP_info_player_siegeteam1 20057880 f   g_client.obj
 0001:00056900       _SP_info_player_siegeteam2 20057900 f   g_client.obj
 0001:00056980       _SP_info_player_intermission 20057980 f   g_client.obj
 0001:00056990       _SP_info_player_intermission_red 20057990 f   g_client.obj
 0001:000569a0       _SP_info_player_intermission_blue 200579a0 f   g_client.obj
 0001:000569b0       _ThrowSaberToAttacker      200579b0 f   g_client.obj
 0001:00056dc0       _JMSaberThink              20057dc0 f   g_client.obj
 0001:00057030       _JMSaberTouch              20058030 f   g_client.obj
 0001:000572f0       _SP_info_jedimaster_start  200582f0 f   g_client.obj
 0001:00057480       _SpotWouldTelefrag         20058480 f   g_client.obj
 0001:00057560       _SpotWouldTelefrag2        20058560 f   g_client.obj
 0001:00057660       _SelectNearestDeathmatchSpawnPoint 20058660 f   g_client.obj
 0001:00057740       _SelectRandomDeathmatchSpawnPoint 20058740 f   g_client.obj
 0001:00057800       _SelectRandomFurthestSpawnPoint 20058800 f   g_client.obj
 0001:00057dc0       _SelectDuelSpawnPoint      20058dc0 f   g_client.obj
 0001:00058220       _SelectSpawnPoint          20059220 f   g_client.obj
 0001:00058240       _SelectInitialSpawnPoint   20059240 f   g_client.obj
 0001:00058310       _SelectSpectatorSpawnPoint 20059310 f   g_client.obj
 0001:00058360       _InitBodyQue               20059360 f   g_client.obj
 0001:000583c0       _BodySink                  200593c0 f   g_client.obj
 0001:00058430       _SetClientViewAngle        20059430 f   g_client.obj
 0001:00058510       _MaintainBodyQueue         20059510 f   g_client.obj
 0001:00058b20       _respawn                   20059b20 f   g_client.obj
 0001:00058d60       _TeamCount                 20059d60 f   g_client.obj
 0001:00058e10       _TeamLeader                20059e10 f   g_client.obj
 0001:00058e90       _PickTeam                  20059e90 f   g_client.obj
 0001:00058f00       _G_SaberModelSetup         20059f00 f   g_client.obj
 0001:000591d0       _SetupGameGhoul2Model      2005a1d0 f   g_client.obj
 0001:00059e90       _ClientUserinfoChanged     2005ae90 f   g_client.obj
 0001:0005ada0       _ClientConnect             2005bda0 f   g_client.obj
 0001:0005b270       _ClientBegin               2005c270 f   g_client.obj
 0001:0005b910       _G_BreakArm                2005c910 f   g_client.obj
 0001:0005bb30       _G_UpdateClientAnims       2005cb30 f   g_client.obj
 0001:0005c7e0       _ClientSpawn               2005d7e0 f   g_client.obj
 0001:0005f090       _ReadKeys                  20060090 f   g_client.obj
 0001:0005f260       _WriteKeys                 20060260 f   g_client.obj
 0001:0005fe90       _ClientDisconnect          20060e90 f   g_client.obj
 0001:00060350       _DeathmatchScoreboardMessage 20061350 f   g_cmds.obj
 0001:000605d0       _WriteStats                200615d0 f   g_cmds.obj
 0001:00060660       _WriteBotTalk              20061660 f   g_cmds.obj
 0001:000606d0       _Cmd_Score_f               200616d0 f   g_cmds.obj
 0001:000606f0       _CheatsOk                  200616f0 f   g_cmds.obj
 0001:00060790       _ConcatArgs                20061790 f   g_cmds.obj
 0001:000608a0       _SanitizeString            200618a0 f   g_cmds.obj
 0001:00060920       _ClientNumberFromString    20061920 f   g_cmds.obj
 0001:00060ad0       _Cmd_Give_f                20061ad0 f   g_cmds.obj
 0001:000611c0       _Cmd_God_f                 200621c0 f   g_cmds.obj
 0001:00061240       _Cmd_Notarget_f            20062240 f   g_cmds.obj
 0001:000612c0       _Cmd_Noclip_f              200622c0 f   g_cmds.obj
 0001:00061350       _Cmd_LevelShot_f           20062350 f   g_cmds.obj
 0001:000613c0       _Cmd_TeamTask_f            200623c0 f   g_cmds.obj
 0001:00061490       _Cmd_Kill_f                20062490 f   g_cmds.obj
 0001:000615a0       _G_GetDuelWinner           200625a0 f   g_cmds.obj
 0001:00061620       _BroadcastTeamChange       20062620 f   g_cmds.obj
 0001:000617b0       _G_PowerDuelCheckFail      200627b0 f   g_cmds.obj
 0001:00061840       _SetTeam                   20062840 f   g_cmds.obj
 0001:00061db0       _StopFollowing             20062db0 f   g_cmds.obj
 0001:00061f20       _Cmd_Team_f                20062f20 f   g_cmds.obj
 0001:00062190       _Cmd_DuelTeam_f            20063190 f   g_cmds.obj
 0001:00062470       _G_TeamForSiegeClass       20063470 f   g_cmds.obj
 0001:00062540       _Cmd_SiegeClass_f          20063540 f   g_cmds.obj
 0001:00062800       _Cmd_ForceChanged_f        20063800 f   g_cmds.obj
 0001:000628f0       _G_SetSaber                200638f0 f   g_cmds.obj
 0001:00062bd0       _Cmd_Follow_f              20063bd0 f   g_cmds.obj
 0001:00062cd0       _Cmd_FollowCycle_f         20063cd0 f   g_cmds.obj
 0001:00062dd0       _G_SayTo                   20063dd0 f   g_cmds.obj
 0001:00062f60       _G_Say                     20063f60 f   g_cmds.obj
 0001:000635f0       _Cmd_GameCommand_f         200645f0 f   g_cmds.obj
 0001:000636c0       _Cmd_Where_f               200646c0 f   g_cmds.obj
 0001:00063700       _G_ClientNumberFromName    20064700 f   g_cmds.obj
 0001:000637a0       _SanitizeString2           200647a0 f   g_cmds.obj
 0001:00063860       _G_ClientNumberFromStrippedName 20064860 f   g_cmds.obj
 0001:00063900       _Cmd_CallVote_f            20064900 f   g_cmds.obj
 0001:00064ab0       _Cmd_Vote_f                20065ab0 f   g_cmds.obj
 0001:00064d00       _Cmd_CallTeamVote_f        20065d00 f   g_cmds.obj
 0001:00065410       _Cmd_TeamVote_f            20066410 f   g_cmds.obj
 0001:00065650       _Cmd_SetViewpos_f          20066650 f   g_cmds.obj
 0001:00065780       _Cmd_Stats_f               20066780 f   g_cmds.obj
 0001:00065790       _G_ItemUsable              20066790 f   g_cmds.obj
 0001:00065c10       _Cmd_ToggleSaber_f         20066c10 f   g_cmds.obj
 0001:00065e40       _Cmd_SaberAttackCycle_f    20066e40 f   g_cmds.obj
 0001:00066510       _G_OtherPlayersDueling     20067510 f   g_cmds.obj
 0001:00066580       _Cmd_EngageDuel_f          20067580 f   g_cmds.obj
 0001:00066a40       _Cmd_DebugSetSaberMove_f   20067a40 f   g_cmds.obj
 0001:00066ad0       _StandardSetBodyAnim       20067ad0 f   g_cmds.obj
 0001:00066af0       _TryGrapple                20067af0 f   g_cmds.obj
 0001:00066ca0       _ClientCommand             20067ca0 f   g_cmds.obj
 0001:00074f60       _ObjectDie                 20075f60 f   g_combat.obj
 0001:00074f90       _G_HeavyMelee              20075f90 f   g_combat.obj
 0001:00074ff0       _G_GetHitLocation          20075ff0 f   g_combat.obj
 0001:00075540       _ExplodeDeath              20076540 f   g_combat.obj
 0001:00075640       _ScorePlum                 20076640 f   g_combat.obj
 0001:000756a0       _AddScore                  200766a0 f   g_combat.obj
 0001:000757f0       _TossClientWeapon          200767f0 f   g_combat.obj
 0001:00075af0       _TossClientItems           20076af0 f   g_combat.obj
 0001:00075ce0       _LookAtKiller              20076ce0 f   g_combat.obj
 0001:00075dc0       _GibEntity                 20076dc0 f   g_combat.obj
 0001:00075e00       _BodyRid                   20076e00 f   g_combat.obj
 0001:00075e20       _body_die                  20076e20 f   g_combat.obj
 0001:00076030       _CheckAlmostCapture        20077030 f   g_combat.obj
 0001:00076040       _G_InKnockDown             20077040 f   g_combat.obj
 0001:000760b0       _G_PickDeathAnim           200770b0 f   g_combat.obj
 0001:00077350       _G_GetJediMaster           20078350 f   g_combat.obj
 0001:000773c0       _G_AlertTeam               200783c0 f   g_combat.obj
 0001:00077690       _G_DeathAlert              20078690 f   g_combat.obj
 0001:000776b0       _DeathFX                   200786b0 f   g_combat.obj
 0001:00077d10       _G_CheckVictoryScript      20078d10 f   g_combat.obj
 0001:00077ed0       _G_AddPowerDuelScore       20078ed0 f   g_combat.obj
 0001:00077fc0       _G_AddPowerDuelLoserScore  20078fc0 f   g_combat.obj
 0001:000780b0       _player_die                200790b0 f   g_combat.obj
 0001:0007a790       _CheckArmor                2007b790 f   g_combat.obj
 0001:0007a8b0       _G_ApplyKnockback          2007b8b0 f   g_combat.obj
 0001:0007ab10       _RaySphereIntersections    2007bb10 f   g_combat.obj
 0001:0007ad20       _G_GetDismemberLoc         2007bd20 f   g_combat.obj
 0001:0007b0b0       _G_GetDismemberBolt        2007c0b0 f   g_combat.obj
 0001:0007b4d0       _LimbTouch                 2007c4d0 f   g_combat.obj
 0001:0007b4e0       _LimbThink                 2007c4e0 f   g_combat.obj
 0001:0007b5c0       _G_Dismember               2007c5c0 f   g_combat.obj
 0001:0007c040       _DismembermentTest         2007d040 f   g_combat.obj
 0001:0007c0a0       _DismembermentByNum        2007d0a0 f   g_combat.obj
 0001:0007c160       _G_GetHitQuad              2007d160 f   g_combat.obj
 0001:0007c350       _G_GetHitLocFromSurfName   2007d350 f   g_combat.obj
 0001:0007d500       _G_CheckForDismemberment   2007e500 f   g_combat.obj
 0001:0007d8c0       _G_LocationBasedDamageModifier 2007e8c0 f   g_combat.obj
 0001:0007db20       _G_ThereIsAMaster          2007eb20 f   g_combat.obj
 0001:0007db80       _G_Knockdown               2007eb80 f   g_combat.obj
 0001:0007dc10       _G_Damage                  2007ec10 f   g_combat.obj
 0001:00081ab0       _CanDamage                 20082ab0 f   g_combat.obj
 0001:00081d40       _G_RadiusDamage            20082d40 f   g_combat.obj
 0001:00082200       _G_RunExPhys               20083200 f   g_exphysics.obj
 0001:00082be0       _Q3_TaskIDClear            20083be0 f   g_ICARUScb.obj
 0001:00082bf0       _G_DebugPrint              20083bf0 f   g_ICARUScb.obj
 0001:00082d30       _Q3_PlaySound              20083d30 f   g_ICARUScb.obj
 0001:00082f50       _Q3_Play                   20083f50 f   g_ICARUScb.obj
 0001:00083060       _anglerCallback            20084060 f   g_ICARUScb.obj
 0001:00083180       _moverCallback             20084180 f   g_ICARUScb.obj
 0001:00083220       _Blocked_Mover             20084220 f   g_ICARUScb.obj
 0001:000832c0       _moveAndRotateCallback     200842c0 f   g_ICARUScb.obj
 0001:000832e0       _Q3_Lerp2Start             200842e0 f   g_ICARUScb.obj
 0001:00083400       _Q3_Lerp2End               20084400 f   g_ICARUScb.obj
 0001:00083520       _Q3_Lerp2Pos               20084520 f   g_ICARUScb.obj
 0001:00083830       _Q3_Lerp2Angles            20084830 f   g_ICARUScb.obj
 0001:000839d0       _Q3_GetTag                 200849d0 f   g_ICARUScb.obj
 0001:00083a50       _Q3_Use                    20084a50 f   g_ICARUScb.obj
 0001:00083ac0       _Q3_Kill                   20084ac0 f   g_ICARUScb.obj
 0001:00083bc0       _Q3_RemoveEnt              20084bc0 f   g_ICARUScb.obj
 0001:00083c80       _Q3_Remove                 20084c80 f   g_ICARUScb.obj
 0001:00083da0       _Q3_GetFloat               20084da0 f   g_ICARUScb.obj
 0001:00084540       _Q3_GetVector              20085540 f   g_ICARUScb.obj
 0001:000846d0       _Q3_GetString              200856d0 f   g_ICARUScb.obj
 0001:00084d40       _MoveOwner                 20085d40 f   g_ICARUScb.obj
 0001:00084de0       _Q3_Lerp2Origin            20085de0 f   g_ICARUScb.obj
 0001:00085000       _Q3_SetLoopSound           20086000 f   g_ICARUScb.obj
 0001:000850b0       _Q3_SetICARUSFreeze        200860b0 f   g_ICARUScb.obj
 0001:00085140       _Q3_SetViewEntity          20086140 f   g_ICARUScb.obj
 0001:00085160       _Q3_SetParm                20086160 f   g_ICARUScb.obj
 0001:00085350       _SolidifyOwner             20086350 f   g_ICARUScb.obj
 0001:00085400       _Q3_Set                    20086400 f   g_ICARUScb.obj
 0001:00089b20       _adjustRespawnTime         2008ab20 f   g_items.obj
 0001:00089bf0       _ShieldRemove              2008abf0 f   g_items.obj
 0001:00089c50       _ShieldThink               2008ac50 f   g_items.obj
 0001:00089cd0       _ShieldDie                 2008acd0 f   g_items.obj
 0001:00089d00       _ShieldPain                2008ad00 f   g_items.obj
 0001:00089d50       _ShieldGoSolid             2008ad50 f   g_items.obj
 0001:00089e90       _ShieldGoNotSolid          2008ae90 f   g_items.obj
 0001:00089f20       _ShieldTouch               2008af20 f   g_items.obj
 0001:00089fb0       _CreateShield              2008afb0 f   g_items.obj
 0001:0008a4e0       _PlaceShield               2008b4e0 f   g_items.obj
 0001:0008a850       _ItemUse_Binoculars        2008b850 f   g_items.obj
 0001:0008a910       _ItemUse_Shield            2008b910 f   g_items.obj
 0001:0008a930       _SentryTouch               2008b930 f   g_items.obj
 0001:0008a940       _pas_fire                  2008b940 f   g_items.obj
 0001:0008aa60       _pas_adjust_enemy          2008ba60 f   g_items.obj
 0001:0008ac50       _sentryExpire              2008bc50 f   g_items.obj
 0001:0008ac70       _pas_think                 2008bc70 f   g_items.obj
 0001:0008b800       _turret_die                2008c800 f   g_items.obj
 0001:0008b940       _SP_PAS                    2008c940 f   g_items.obj
 0001:0008ba60       _ItemUse_Sentry            2008ca60 f   g_items.obj
 0001:0008bdb0       _ItemUse_Seeker            2008cdb0 f   g_items.obj
 0001:0008bf00       _ItemUse_MedPack_Big       2008cf00 f   g_items.obj
 0001:0008bfe0       _ItemUse_MedPack           2008cfe0 f   g_items.obj
 0001:0008c000       _Jetpack_Off               2008d000 f   g_items.obj
 0001:0008c030       _Jetpack_On                2008d030 f   g_items.obj
 0001:0008c0b0       _ItemUse_Jetpack           2008d0b0 f   g_items.obj
 0001:0008c190       _ItemUse_UseCloak          2008d190 f   g_items.obj
 0001:0008c270       _SpecialItemThink          2008d270 f   g_items.obj
 0001:0008c320       _G_SpecialSpawnItem        2008d320 f   g_items.obj
 0001:0008c470       _G_PrecacheDispensers      2008d470 f   g_items.obj
 0001:0008c4c0       _ItemUse_UseDisp           2008d4c0 f   g_items.obj
 0001:0008c6b0       _EWebDisattach             2008d6b0 f   g_items.obj
 0001:0008c730       _EWebPrecache              2008d730 f   g_items.obj
 0001:0008c770       _EWebDie                   2008d770 f   g_items.obj
 0001:0008c8e0       _EWebPain                  2008d8e0 f   g_items.obj
 0001:0008c940       _EWeb_SetBoneAngles        2008d940 f   g_items.obj
 0001:0008cb20       _EWeb_SetBoneAnim          2008db20 f   g_items.obj
 0001:0008cbc0       _EWebFire                  2008dbc0 f   g_items.obj
 0001:0008ce90       _EWebPositionUser          2008de90 f   g_items.obj
 0001:0008d220       _EWebUpdateBoneAngles      2008e220 f   g_items.obj
 0001:0008d360       _EWebThink                 2008e360 f   g_items.obj
 0001:0008d5e0       _EWeb_Create               2008e5e0 f   g_items.obj
 0001:0008dae0       _ItemUse_UseEWeb           2008eae0 f   g_items.obj
 0001:0008dbf0       _Pickup_Powerup            2008ebf0 f   g_items.obj
 0001:0008de90       _Pickup_Holdable           2008ee90 f   g_items.obj
 0001:0008df30       _Add_Ammo                  2008ef30 f   g_items.obj
 0001:0008dfc0       _Pickup_Ammo               2008efc0 f   g_items.obj
 0001:0008e150       _Pickup_Weapon             2008f150 f   g_items.obj
 0001:0008e2f0       _Pickup_Health             2008f2f0 f   g_items.obj
 0001:0008e3f0       _Pickup_Armor              2008f3f0 f   g_items.obj
 0001:0008e4a0       _RespawnItem               2008f4a0 f   g_items.obj
 0001:0008e620       _CheckItemCanBePickedUpByNPC 2008f620 f   g_items.obj
 0001:0008e6d0       _Touch_Item                2008f6d0 f   g_items.obj
 0001:0008eff0       _LaunchItem                2008fff0 f   g_items.obj
 0001:0008f2a0       _Drop_Item                 200902a0 f   g_items.obj
 0001:0008f360       _Use_Item                  20090360 f   g_items.obj
 0001:0008f380       _FinishSpawningItem        20090380 f   g_items.obj
 0001:0008f7f0       _G_CheckTeamItems          200907f0 f   g_items.obj
 0001:0008f890       _ClearRegisteredItems      20090890 f   g_items.obj
 0001:0008f920       _RegisterItem              20090920 f   g_items.obj
 0001:0008f960       _SaveRegisteredItems       20090960 f   g_items.obj
 0001:0008f9e0       _G_ItemDisabled            200909e0 f   g_items.obj
 0001:0008fa20       _G_SpawnItem               20090a20 f   g_items.obj
 0001:0008fb50       _G_BounceItem              20090b50 f   g_items.obj
 0001:0008fe70       _G_RunItem                 20090e70 f   g_items.obj
 0001:00090000       _G_LogWeaponInit           20091000 f   g_log.obj
 0001:00090010       _G_LogWeaponPickup         20091010 f   g_log.obj
 0001:00090020       _G_LogWeaponFire           20091020 f   g_log.obj
 0001:00090030       _G_LogWeaponDamage         20091030 f   g_log.obj
 0001:00090040       _G_LogWeaponKill           20091040 f   g_log.obj
 0001:00090050       _G_LogWeaponFrag           20091050 f   g_log.obj
 0001:00090060       _G_LogWeaponDeath          20091060 f   g_log.obj
 0001:00090070       _G_LogWeaponPowerup        20091070 f   g_log.obj
 0001:00090080       _G_LogWeaponItem           20091080 f   g_log.obj
 0001:00090090       _G_LogWeaponOutput         20091090 f   g_log.obj
 0001:000900a0       _CalculateEfficiency       200910a0 f   g_log.obj
 0001:000900b0       _CalculateSharpshooter     200910b0 f   g_log.obj
 0001:000900c0       _CalculateUntouchable      200910c0 f   g_log.obj
 0001:000900d0       _CalculateLogistics        200910d0 f   g_log.obj
 0001:000900e0       _CalculateTactician        200910e0 f   g_log.obj
 0001:000900f0       _CalculateDemolitionist    200910f0 f   g_log.obj
 0001:00090100       _CalculateStreak           20091100 f   g_log.obj
 0001:00090110       _CalculateTeamMVP          20091110 f   g_log.obj
 0001:000901f0       _CalculateTeamMVPByRank    200911f0 f   g_log.obj
 0001:000902f0       _CalculateTeamDefender     200912f0 f   g_log.obj
 0001:000903d0       _CalculateTeamWarrior      200913d0 f   g_log.obj
 0001:000904b0       _CalculateTeamCarrier      200914b0 f   g_log.obj
 0001:00090590       _CalculateTeamInterceptor  20091590 f   g_log.obj
 0001:00090690       _CalculateTeamRedShirt     20091690 f   g_log.obj
 0001:00090790       _CalculateTeamAward        20091790 f   g_log.obj
 0001:00090850       _CalculateSection31Award   20091850 f   g_log.obj
 0001:00090900       _CalculateAwards           20091900 f   g_log.obj
 0001:00090910       _GetMaxDeathsForClient     20091910 f   g_log.obj
 0001:00090960       _GetMaxKillsForClient      20091960 f   g_log.obj
 0001:000909b0       _GetFavoriteTargetForClient 200919b0 f   g_log.obj
 0001:00090a00       _GetWorstEnemyForClient    20091a00 f   g_log.obj
 0001:00090a50       _GetFavoriteWeaponForClient 20091a50 f   g_log.obj
 0001:00090ae0       _G_ClearClientLog          20091ae0 f   g_log.obj
 0001:00090af0       _vmMain                    20091af0 f   g_main.obj
 0001:00091100       _G_Printf                  20092100 f   g_main.obj
 0001:00091150       _G_Error                   20092150 f   g_main.obj
 0001:000911b0       _G_FindTeams               200921b0 f   g_main.obj
 0001:00091370       _G_RemapTeamShaders        20092370 f   g_main.obj
 0001:00091380       _G_RegisterCvars           20092380 f   g_main.obj
 0001:000914e0       _G_UpdateCvars             200924e0 f   g_main.obj
 0001:000915b0       _G_InitGame                200925b0 f   g_main.obj
 0001:00091a10       _G_ShutdownGame            20092a10 f   g_main.obj
 0001:00091be0       _Com_Error                 20092be0 f   g_main.obj
 0001:00091c30       _Com_Printf                20092c30 f   g_main.obj
 0001:00091c80       _AddTournamentPlayer       20092c80 f   g_main.obj
 0001:00091d90       _RemoveTournamentLoser     20092d90 f   g_main.obj
 0001:00091df0       _G_PowerDuelCount          20092df0 f   g_main.obj
 0001:00091e90       _AddPowerDuelPlayers       20092e90 f   g_main.obj
 0001:00092040       _RemovePowerDuelLosers     20093040 f   g_main.obj
 0001:00092160       _RemoveDuelDrawLoser       20093160 f   g_main.obj
 0001:00092260       _RemoveTournamentWinner    20093260 f   g_main.obj
 0001:000922c0       _AdjustTournamentScores    200932c0 f   g_main.obj
 0001:000924c0       _SortRanks                 200934c0 f   g_main.obj
 0001:00092630       _G_CanResetDuelists        20093630 f   g_main.obj
 0001:000926c0       _G_ResetDuelists           200936c0 f   g_main.obj
 0001:00092790       _CalculateRanks            20093790 f   g_main.obj
 0001:00092d60       _SendScoreboardMessageToAllClients 20093d60 f   g_main.obj
 0001:00092dc0       _MoveClientToIntermission  20093dc0 f   g_main.obj
 0001:00092f10       _FindIntermissionPoint     20093f10 f   g_main.obj
 0001:000930f0       _LoseKarma                 200940f0 f   g_main.obj
 0001:000932d0       _RoundXP                   200942d0 f   g_main.obj
 0001:00094310       _BeginIntermission         20095310 f   g_main.obj
 0001:00094680       _DuelLimitHit              20095680 f   g_main.obj
 0001:000946f0       _ReadLog                   200956f0 f   g_main.obj
 0001:00094820       _DuelResetWinsLosses       20095820 f   g_main.obj
 0001:00094890       _ExitLevel                 20095890 f   g_main.obj
 0001:00094a20       _G_LogPrintf               20095a20 f   g_main.obj
 0001:00094b10       _LogExit                   20095b10 f   g_main.obj
 0001:00094c50       _CheckIntermissionExit     20095c50 f   g_main.obj
 0001:00095430       _ScoreIsTied               20096430 f   g_main.obj
 0001:000954b0       _CheckExitRules            200964b0 f   g_main.obj
 0001:00095a70       _G_RemoveDuelist           20096a70 f   g_main.obj
 0001:00095b00       _CheckTournament           20096b00 f   g_main.obj
 0001:000961b0       _G_KickAllBots             200971b0 f   g_main.obj
 0001:00096260       _CheckVote                 20097260 f   g_main.obj
 0001:00096bd0       _PrintTeam                 20097bd0 f   g_main.obj
 0001:00096c30       _SetLeader                 20097c30 f   g_main.obj
 0001:00096dc0       _CheckTeamLeader           20097dc0 f   g_main.obj
 0001:00096ef0       _CheckTeamVote             20097ef0 f   g_main.obj
 0001:00097070       _CheckCvars                20098070 f   g_main.obj
 0001:00097150       _G_RunThink                20098150 f   g_main.obj
 0001:000971d0       _NAV_CheckCalcPaths        200981d0 f   g_main.obj
 0001:000972b0       _BG_GetTime                200982b0 f   g_main.obj
 0001:000972c0       _G_RunFrame                200982c0 f   g_main.obj
 0001:00097e60       _G_GetStringEdString       20098e60 f   g_main.obj
 0001:00097e90       _G_Alloc                   20098e90 f   g_mem.obj
 0001:00097f20       _G_InitMemory              20098f20 f   g_mem.obj
 0001:00097f30       _Svcmd_GameMem_f           20098f30 f   g_mem.obj
 0001:00097f50       _SP_info_camp              20098f50 f   g_misc.obj
 0001:00097f70       _SP_info_null              20098f70 f   g_misc.obj
 0001:00097f90       _SP_info_notnull           20098f90 f   g_misc.obj
 0001:00097fb0       _misc_dlight_use           20098fb0 f   g_misc.obj
 0001:00098220       _SP_light                  20099220 f   g_misc.obj
 0001:00098320       _TeleportPlayer            20099320 f   g_misc.obj
 0001:00098580       _SP_misc_teleporter_dest   20099580 f   g_misc.obj
 0001:00098590       _SP_misc_model             20099590 f   g_misc.obj
 0001:000985b0       _SP_misc_model_static      200995b0 f   g_misc.obj
 0001:000985d0       _SP_misc_G2model           200995d0 f   g_misc.obj
 0001:000985f0       _locateCamera              200995f0 f   g_misc.obj
 0001:00098760       _SP_misc_portal_surface    20099760 f   g_misc.obj
 0001:00098830       _SP_misc_portal_camera     20099830 f   g_misc.obj
 0001:000988d0       _SP_misc_bsp               200998d0 f   g_misc.obj
 0001:00098b40       _SP_terrain                20099b40 f   g_misc.obj
 0001:00099060       _G_PortalifyEntities       2009a060 f   g_misc.obj
 0001:00099190       _SP_misc_skyportal_orient  2009a190 f   g_misc.obj
 0001:000991b0       _SP_misc_skyportal         2009a1b0 f   g_misc.obj
 0001:000992d0       _HolocronRespawn           2009a2d0 f   g_misc.obj
 0001:000992f0       _HolocronPopOut            2009a2f0 f   g_misc.obj
 0001:000993c0       _HolocronTouch             2009a3c0 f   g_misc.obj
 0001:00099680       _HolocronThink             2009a680 f   g_misc.obj
 0001:00099cd0       _SP_misc_holocron          2009acd0 f   g_misc.obj
 0001:00099fe0       _Use_Shooter               2009afe0 f   g_misc.obj
 0001:0009a1e0       _InitShooter               2009b1e0 f   g_misc.obj
 0001:0009a300       _SP_shooter_blaster        2009b300 f   g_misc.obj
 0001:0009a320       _check_recharge            2009b320 f   g_misc.obj
 0001:0009a450       _EnergyShieldStationSettings 2009b450 f   g_misc.obj
 0001:0009a4b0       _shield_power_converter_use 2009b4b0 f   g_misc.obj
 0001:0009a790       _ammo_generic_power_converter_use 2009b790 f   g_misc.obj
 0001:0009ab30       _SP_misc_ammo_floor_unit   2009bb30 f   g_misc.obj
 0001:0009ae70       _SP_misc_shield_floor_unit 2009be70 f   g_misc.obj
 0001:0009b1e0       _SP_misc_model_shield_power_converter 2009c1e0 f   g_misc.obj
 0001:0009b3a0       _EnergyAmmoStationSettings 2009c3a0 f   g_misc.obj
 0001:0009b3c0       _ammo_power_converter_use  2009c3c0 f   g_misc.obj
 0001:0009b580       _SP_misc_model_ammo_power_converter 2009c580 f   g_misc.obj
 0001:0009b750       _EnergyHealthStationSettings 2009c750 f   g_misc.obj
 0001:0009b770       _health_power_converter_use 2009c770 f   g_misc.obj
 0001:0009b890       _SP_misc_model_health_power_converter 2009c890 f   g_misc.obj
 0001:0009ba70       _fx_runner_think           2009ca70 f   g_misc.obj
 0001:0009bc60       _fx_runner_use             2009cc60 f   g_misc.obj
 0001:0009be80       _fx_runner_link            2009ce80 f   g_misc.obj
 0001:0009c090       _SP_fx_runner              2009d090 f   g_misc.obj
 0001:0009c2d0       _SP_CreateSpaceDust        2009d2d0 f   g_misc.obj
 0001:0009c300       _SP_CreateSnow             2009d300 f   g_misc.obj
 0001:0009c330       _SP_CreateRain             2009d330 f   g_misc.obj
 0001:0009c360       _Use_Target_Screenshake    2009d360 f   g_misc.obj
 0001:0009c3b0       _SP_target_screenshake     2009d3b0 f   g_misc.obj
 0001:0009c420       _Use_Target_Escapetrig     2009d420 f   g_misc.obj
 0001:0009c570       _SP_target_escapetrig      2009d570 f   g_misc.obj
 0001:0009c5e0       _maglock_die               2009d5e0 f   g_misc.obj
 0001:0009c660       _SP_misc_maglock           2009d660 f   g_misc.obj
 0001:0009c6d0       _maglock_link              2009d6d0 f   g_misc.obj
 0001:0009c9b0       _faller_touch              2009d9b0 f   g_misc.obj
 0001:0009cab0       _faller_think              2009dab0 f   g_misc.obj
 0001:0009cbd0       _misc_faller_create        2009dbd0 f   g_misc.obj
 0001:0009cdb0       _misc_faller_think         2009ddb0 f   g_misc.obj
 0001:0009ce00       _SP_misc_faller            2009de00 f   g_misc.obj
 0001:0009cf00       _FirstFreeTagOwner         2009df00 f   g_misc.obj
 0001:0009cf60       _FirstFreeRefTag           2009df60 f   g_misc.obj
 0001:0009cfc0       _TAG_Init                  2009dfc0 f   g_misc.obj
 0001:0009d040       _TAG_FindOwner             2009e040 f   g_misc.obj
 0001:0009d0b0       _TAG_Find                  2009e0b0 f   g_misc.obj
 0001:0009d1f0       _TAG_Add                   2009e1f0 f   g_misc.obj
 0001:0009d390       _TAG_GetOrigin             2009e390 f   g_misc.obj
 0001:0009d400       _TAG_GetOrigin2            2009e400 f   g_misc.obj
 0001:0009d450       _TAG_GetAngles             2009e450 f   g_misc.obj
 0001:0009d4a0       _TAG_GetRadius             2009e4a0 f   g_misc.obj
 0001:0009d4d0       _TAG_GetFlags              2009e4d0 f   g_misc.obj
 0001:0009d500       _ref_link                  2009e500 f   g_misc.obj
 0001:0009d5f0       _SP_reference_tag          2009e5f0 f   g_misc.obj
 0001:0009d630       _G_ClientForShooter        2009e630 f   g_misc.obj
 0001:0009d6b0       _G_FreeClientForShooter    2009e6b0 f   g_misc.obj
 0001:0009d700       _misc_weapon_shooter_fire  2009e700 f   g_misc.obj
 0001:0009d760       _misc_weapon_shooter_use   2009e760 f   g_misc.obj
 0001:0009d790       _misc_weapon_shooter_aim   2009e790 f   g_misc.obj
 0001:0009d8c0       _SP_misc_weapon_shooter    2009e8c0 f   g_misc.obj
 0001:0009da70       _SP_misc_weather_zone      2009ea70 f   g_misc.obj
 0001:0009da90       _G_ReflectMissile          2009ea90 f   g_missile.obj
 0001:0009de60       _G_DeflectMissile          2009ee60 f   g_missile.obj
 0001:0009e070       _G_BounceMissile           2009f070 f   g_missile.obj
 0001:0009e3c0       _G_ExplodeMissile          2009f3c0 f   g_missile.obj
 0001:0009e5e0       _G_RunStuckMissile         2009f5e0 f   g_missile.obj
 0001:0009e6f0       _G_BounceProjectile        2009f6f0 f   g_missile.obj
 0001:0009e7d0       _CreateMissile             2009f7d0 f   g_missile.obj
 0001:0009e910       _G_MissileBounceEffect     2009f910 f   g_missile.obj
 0001:0009ea10       _G_MissileImpact           2009fa10 f   g_missile.obj
 0001:0009fba0       _G_RunMissile              200a0ba0 f   g_missile.obj
 0001:000a01f0       _G_PlayDoorLoopSound       200a11f0 f   g_mover.obj
 0001:000a0250       _G_PlayDoorSound           200a1250 f   g_mover.obj
 0001:000a02a0       _G_TestEntityPosition      200a12a0 f   g_mover.obj
 0001:000a03b0       _G_CreateRotationMatrix    200a13b0 f   g_mover.obj
 0001:000a03f0       _G_TransposeMatrix         200a13f0 f   g_mover.obj
 0001:000a0450       _G_RotatePoint             200a1450 f   g_mover.obj
 0001:000a04f0       _G_TryPushingEntity        200a14f0 f   g_mover.obj
 0001:000a0ad0       _G_MoverPush               200a1ad0 f   g_mover.obj
 0001:000a1140       _G_MoverTeam               200a2140 f   g_mover.obj
 0001:000a13d0       _G_RunMover                200a23d0 f   g_mover.obj
 0001:000a1420       _CalcTeamDoorCenter        200a2420 f   g_mover.obj
 0001:000a1590       _SetMoverState             200a2590 f   g_mover.obj
 0001:000a1820       _MatchTeam                 200a2820 f   g_mover.obj
 0001:000a1860       _ReturnToPos1              200a2860 f   g_mover.obj
 0001:000a18c0       _Reached_BinaryMover       200a28c0 f   g_mover.obj
 0001:000a1a80       _Use_BinaryMover_Go        200a2a80 f   g_mover.obj
 0001:000a1f20       _UnLockDoors               200a2f20 f   g_mover.obj
 0001:000a1f80       _LockDoors                 200a2f80 f   g_mover.obj
 0001:000a1fd0       _Use_BinaryMover           200a2fd0 f   g_mover.obj
 0001:000a20b0       _InitMoverTrData           200a30b0 f   g_mover.obj
 0001:000a21d0       _InitMover                 200a31d0 f   g_mover.obj
 0001:000a23f0       _Blocked_Door              200a33f0 f   g_mover.obj
 0001:000a2450       _Touch_DoorTrigger         200a3450 f   g_mover.obj
 0001:000a2810       _Think_SpawnNewDoorTrigger 200a3810 f   g_mover.obj
 0001:000a2a20       _Think_MatchTeam           200a3a20 f   g_mover.obj
 0001:000a2a50       _G_EntIsDoor               200a3a50 f   g_mover.obj
 0001:000a2ab0       _G_FindDoorTrigger         200a3ab0 f   g_mover.obj
 0001:000a2be0       _G_EntIsUnlockedDoor       200a3be0 f   g_mover.obj
 0001:000a2dc0       _SP_func_door              200a3dc0 f   g_mover.obj
 0001:000a31b0       _Touch_Plat                200a41b0 f   g_mover.obj
 0001:000a3200       _Touch_PlatCenterTrigger   200a4200 f   g_mover.obj
 0001:000a3240       _SpawnPlatTrigger          200a4240 f   g_mover.obj
 0001:000a33e0       _SP_func_plat              200a43e0 f   g_mover.obj
 0001:000a3590       _Touch_Button              200a4590 f   g_mover.obj
 0001:000a35d0       _SP_func_button            200a45d0 f   g_mover.obj
 0001:000a37f0       _Think_BeginMoving         200a47f0 f   g_mover.obj
 0001:000a3830       _Reached_Train             200a4830 f   g_mover.obj
 0001:000a3a40       _Think_SetupTrainTargets   200a4a40 f   g_mover.obj
 0001:000a3b80       _SP_path_corner            200a4b80 f   g_mover.obj
 0001:000a3bc0       _SP_func_train             200a4bc0 f   g_mover.obj
 0001:000a3cd0       _SP_func_static            200a4cd0 f   g_mover.obj
 0001:000a3ec0       _func_static_use           200a4ec0 f   g_mover.obj
 0001:000a3f10       _func_rotating_use         200a4f10 f   g_mover.obj
 0001:000a4010       _SP_func_rotating          200a5010 f   g_mover.obj
 0001:000a42f0       _SP_func_bobbing           200a52f0 f   g_mover.obj
 0001:000a4450       _SP_func_pendulum          200a5450 f   g_mover.obj
 0001:000a45e0       _G_MiscModelExplosion      200a55e0 f   g_mover.obj
 0001:000a46b0       _G_Chunks                  200a56b0 f   g_mover.obj
 0001:000a47b0       _funcBBrushDieGo           200a57b0 f   g_mover.obj
 0001:000a4c10       _funcBBrushDie             200a5c10 f   g_mover.obj
 0001:000a4ca0       _funcBBrushUse             200a5ca0 f   g_mover.obj
 0001:000a4d10       _funcBBrushPain            200a5d10 f   g_mover.obj
 0001:000a5030       _funcBBrushTouch           200a6030 f   g_mover.obj
 0001:000a5040       _SP_func_breakable         200a6040 f   g_mover.obj
 0001:000a55e0       _G_EntIsBreakable          200a65e0 f   g_mover.obj
 0001:000a5690       _GlassDie                  200a6690 f   g_mover.obj
 0001:000a57d0       _GlassDie_Old              200a67d0 f   g_mover.obj
 0001:000a58d0       _GlassPain                 200a68d0 f   g_mover.obj
 0001:000a58e0       _GlassUse                  200a68e0 f   g_mover.obj
 0001:000a5a80       _SP_func_glass             200a6a80 f   g_mover.obj
 0001:000a5bc0       _func_wait_return_solid    200a6bc0 f   g_mover.obj
 0001:000a5d10       _func_usable_think         200a6d10 f   g_mover.obj
 0001:000a5d60       _G_EntIsRemovableUsable    200a6d60 f   g_mover.obj
 0001:000a5dd0       _func_usable_use           200a6dd0 f   g_mover.obj
 0001:000a5fd0       _func_usable_pain          200a6fd0 f   g_mover.obj
 0001:000a5ff0       _func_usable_die           200a6ff0 f   g_mover.obj
 0001:000a6020       _SP_func_usable            200a7020 f   g_mover.obj
 0001:000a6240       _use_wall                  200a7240 f   g_mover.obj
 0001:000a6310       _SP_func_wall              200a7310 f   g_mover.obj
 0001:000a6440       _G_Line                    200a7440 f   g_nav.obj
 0001:000a6450       _G_Cube                    200a7450 f   g_nav.obj
 0001:000a6460       _G_CubeOutline             200a7460 f   g_nav.obj
 0001:000a6470       _G_DrawEdge                200a7470 f   g_nav.obj
 0001:000a6480       _G_DrawNode                200a7480 f   g_nav.obj
 0001:000a6490       _G_DrawCombatPoint         200a7490 f   g_nav.obj
 0001:000a64a0       _TAG_ShowTags              200a74a0 f   g_nav.obj
 0001:000a64b0       _FlyingCreature            200a74b0 f   g_nav.obj
 0001:000a64e0       _NPC_Blocked               200a74e0 f   g_nav.obj
 0001:000a65d0       _NPC_SetMoveGoal           200a75d0 f   g_nav.obj
 0001:000a6880       _NAV_HitNavGoal            200a7880 f   g_nav.obj
 0001:000a6af0       _NAV_ClearPathToPoint      200a7af0 f   g_nav.obj
 0001:000a70d0       _NAV_FindClosestWaypointForEnt 200a80d0 f   g_nav.obj
 0001:000a7100       _NAV_FindClosestWaypointForPoint 200a8100 f   g_nav.obj
 0001:000a71f0       _NAV_FindClosestWaypointForPoint2 200a81f0 f   g_nav.obj
 0001:000a72c0       _NAV_ClearBlockedInfo      200a82c0 f   g_nav.obj
 0001:000a7300       _NAV_SetBlockedInfo        200a8300 f   g_nav.obj
 0001:000a7340       _NAV_Steer                 200a8340 f   g_nav.obj
 0001:000a74f0       _NAV_CheckAhead            200a84f0 f   g_nav.obj
 0001:000a77a0       _NAV_Bypass                200a87a0 f   g_nav.obj
 0001:000a7c20       _NAV_MoveBlocker           200a8c20 f   g_nav.obj
 0001:000a7cc0       _NAV_ResolveBlock          200a8cc0 f   g_nav.obj
 0001:000a7d10       _NAV_TrueCollision         200a8d10 f   g_nav.obj
 0001:000a7ee0       _NAV_StackedCanyon         200a8ee0 f   g_nav.obj
 0001:000a8300       _NAV_ResolveEntityCollision 200a9300 f   g_nav.obj
 0001:000a8430       _NAV_TestForBlocked        200a9430 f   g_nav.obj
 0001:000a84d0       _NAV_AvoidCollision        200a94d0 f   g_nav.obj
 0001:000a86a0       _NAV_TestBestNode          200a96a0 f   g_nav.obj
 0001:000a8a00       _NAV_GetNearestNode        200a9a00 f   g_nav.obj
 0001:000a8a20       _NAV_MicroError            200a9a20 f   g_nav.obj
 0001:000a8a70       _NAV_MoveToGoal            200a9a70 f   g_nav.obj
 0001:000a8e10       _waypoint_testDirection    200a9e10 f   g_nav.obj
 0001:000a8f10       _waypoint_getRadius        200a9f10 f   g_nav.obj
 0001:000a8f80       _SP_waypoint               200a9f80 f   g_nav.obj
 0001:000a9100       _SP_waypoint_small         200aa100 f   g_nav.obj
 0001:000a9270       _SP_waypoint_navgoal       200aa270 f   g_nav.obj
 0001:000a93b0       _SP_waypoint_navgoal_8     200aa3b0 f   g_nav.obj
 0001:000a94a0       _SP_waypoint_navgoal_4     200aa4a0 f   g_nav.obj
 0001:000a9590       _SP_waypoint_navgoal_2     200aa590 f   g_nav.obj
 0001:000a9680       _SP_waypoint_navgoal_1     200aa680 f   g_nav.obj
 0001:000a9770       _Svcmd_Nav_f               200aa770 f   g_nav.obj
 0001:000a9a90       _NAV_WaypointsTooFar       200aaa90 f   g_nav.obj
 0001:000a9c70       _NAV_ClearStoredWaypoints  200aac70 f   g_nav.obj
 0001:000a9c80       _NAV_StoreWaypoint         200aac80 f   g_nav.obj
 0001:000a9dc0       _NAV_GetStoredWaypoint     200aadc0 f   g_nav.obj
 0001:000a9e50       _NAV_CalculatePaths        200aae50 f   g_nav.obj
 0001:000aa010       _NAV_Shutdown              200ab010 f   g_nav.obj
 0001:000aa020       _NAV_ShowDebugInfo         200ab020 f   g_nav.obj
 0001:000aa150       _NAV_FindPlayerWaypoint    200ab150 f   g_nav.obj
 0001:000aa190       _NAV_CheckNodeFailedForEnt 200ab190 f   g_navnew.obj
 0001:000aa1d0       _NPC_ClearBlocked          200ab1d0 f   g_navnew.obj
 0001:000aa200       _NPC_SetBlocked            200ab200 f   g_navnew.obj
 0001:000aa280       _NAVNEW_ClearPathBetweenPoints 200ab280 f   g_navnew.obj
 0001:000aa2d0       _NAVNEW_PushBlocker        200ab2d0 f   g_navnew.obj
 0001:000aa740       _NAVNEW_DanceWithBlocker   200ab740 f   g_navnew.obj
 0001:000aa8a0       _NAVNEW_SidestepBlocker    200ab8a0 f   g_navnew.obj
 0001:000aae00       _NAVNEW_Bypass             200abe00 f   g_navnew.obj
 0001:000aaed0       _NAVNEW_CheckDoubleBlock   200abed0 f   g_navnew.obj
 0001:000aaf00       _NAVNEW_ResolveEntityCollision 200abf00 f   g_navnew.obj
 0001:000ab070       _NAVNEW_AvoidCollision     200ac070 f   g_navnew.obj
 0001:000ab290       _NAVNEW_TestNodeConnectionBlocked 200ac290 f   g_navnew.obj
 0001:000ab410       _NAVNEW_MoveToGoal         200ac410 f   g_navnew.obj
 0001:000abb30       _G_BounceObject            200acb30 f   g_object.obj
 0001:000abe30       _G_RunObject               200ace30 f   g_object.obj
 0001:000ac3f0       _G_StopObjectMoving        200ad3f0 f   g_object.obj
 0001:000ac480       _G_StartObjectMoving       200ad480 f   g_object.obj
 0001:000ac530       _G_SiegeRegisterWeaponsAndHoldables 200ad530 f   g_saga.obj
 0001:000ac620       _SiegeSetCompleteData      200ad620 f   g_saga.obj
 0001:000ac650       _InitSiegeMode             200ad650 f   g_saga.obj
 0001:000acde0       _G_SiegeSetObjectiveComplete 200adde0 f   g_saga.obj
 0001:000aceb0       _G_SiegeGetCompletionStatus 200adeb0 f   g_saga.obj
 0001:000acf70       _UseSiegeTarget            200adf70 f   g_saga.obj
 0001:000ad030       _SiegeBroadcast_OBJECTIVECOMPLETE 200ae030 f   g_saga.obj
 0001:000ad0a0       _SiegeBroadcast_ROUNDOVER  200ae0a0 f   g_saga.obj
 0001:000ad100       _BroadcastObjectiveCompletion 200ae100 f   g_saga.obj
 0001:000ad180       _AddSiegeWinningTeamPoints 200ae180 f   g_saga.obj
 0001:000ad220       _SiegeClearSwitchData      200ae220 f   g_saga.obj
 0001:000ad250       _SiegeDoTeamAssign         200ae250 f   g_saga.obj
 0001:000ad360       _SiegeTeamSwitch           200ae360 f   g_saga.obj
 0001:000ad3c0       _SiegeRoundComplete        200ae3c0 f   g_saga.obj
 0001:000ad640       _G_ValidateSiegeClassForTeam 200ae640 f   g_saga.obj
 0001:000ad720       _SetTeamQuick              200ae720 f   g_saga.obj
 0001:000ad880       _SiegeRespawn              200ae880 f   g_saga.obj
 0001:000ad900       _SiegeBeginRound           200ae900 f   g_saga.obj
 0001:000adab0       _SiegeCheckTimers          200aeab0 f   g_saga.obj
 0001:000add60       _SiegeObjectiveCompleted   200aed60 f   g_saga.obj
 0001:000ade20       _siegeTriggerUse           200aee20 f   g_saga.obj
 0001:000ae040       _SP_info_siege_objective   200af040 f   g_saga.obj
 0001:000ae190       _SiegeIconUse              200af190 f   g_saga.obj
 0001:000ae1f0       _SP_info_siege_radaricon   200af1f0 f   g_saga.obj
 0001:000ae2d0       _decompTriggerUse          200af2d0 f   g_saga.obj
 0001:000ae440       _SP_info_siege_decomplete  200af440 f   g_saga.obj
 0001:000ae4e0       _siegeEndUse               200af4e0 f   g_saga.obj
 0001:000ae500       _SP_target_siege_end       200af500 f   g_saga.obj
 0001:000ae540       _SiegeItemRemoveOwner      200af540 f   g_saga.obj
 0001:000ae590       _SiegeItemThink            200af590 f   g_saga.obj
 0001:000aea30       _SiegeItemTouch            200afa30 f   g_saga.obj
 0001:000aec10       _SiegeItemPain             200afc10 f   g_saga.obj
 0001:000aec30       _SiegeItemDie              200afc30 f   g_saga.obj
 0001:000aecf0       _SiegeItemUse              200afcf0 f   g_saga.obj
 0001:000aee40       _SP_misc_siege_item        200afe40 f   g_saga.obj
 0001:000af410       _G_SiegeClientExData       200b0410 f   g_saga.obj
 0001:000af600       _G_WriteClientSessionData  200b0600 f   g_session.obj
 0001:000af7b0       _G_ReadSessionData         200b07b0 f   g_session.obj
 0001:000af9b0       _G_InitSessionData         200b09b0 f   g_session.obj
 0001:000afbb0       _G_InitWorldSession        200b0bb0 f   g_session.obj
 0001:000afc10       _G_WriteSessionData        200b0c10 f   g_session.obj
 0001:000afc90       _G_SpawnString             200b0c90 f   g_spawn.obj
 0001:000afd10       _G_SpawnFloat              200b0d10 f   g_spawn.obj
 0001:000afd50       _G_SpawnInt                200b0d50 f   g_spawn.obj
 0001:000afd90       _G_SpawnVector             200b0d90 f   g_spawn.obj
 0001:000afde0       _SP_item_botroam           200b0de0 f   g_spawn.obj
 0001:000afdf0       _SP_gametype_item          200b0df0 f   g_spawn.obj
 0001:000aff80       _G_CallSpawn               200b0f80 f   g_spawn.obj
 0001:000b0090       _G_NewString               200b1090 f   g_spawn.obj
 0001:000b0150       _G_SpawnGEntityFromSpawnVars 200b1150 f   g_spawn.obj
 0001:000b03b0       _G_AddSpawnVarToken        200b13b0 f   g_spawn.obj
 0001:000b0420       _AddSpawnField             200b1420 f   g_spawn.obj
 0001:000b04c0       _G_ParseSpawnVars          200b14c0 f   g_spawn.obj
 0001:000b0c00       _SP_worldspawn             200b1c00 f   g_spawn.obj
 0001:000b1040       _SP_bsp_worldspawn         200b2040 f   g_spawn.obj
 0001:000b1050       _G_PrecacheSoundsets       200b2050 f   g_spawn.obj
 0001:000b1100       _G_SpawnEntitiesFromString 200b2100 f   g_spawn.obj
 0001:000b1200       _strap_G2API_GetBoltMatrix 200b2200 f   g_strap.obj
 0001:000b1240       _strap_G2API_GetBoltMatrix_NoReconstruct 200b2240 f   g_strap.obj
 0001:000b1280       _strap_G2API_GetBoltMatrix_NoRecNoRot 200b2280 f   g_strap.obj
 0001:000b12c0       _strap_G2API_SetBoneAngles 200b22c0 f   g_strap.obj
 0001:000b1300       _strap_G2API_SetBoneAnim   200b2300 f   g_strap.obj
 0001:000b1340       _strap_G2API_GetBoneAnim   200b2340 f   g_strap.obj
 0001:000b1380       _strap_G2API_SetRagDoll    200b2380 f   g_strap.obj
 0001:000b13a0       _strap_G2API_AnimateG2Models 200b23a0 f   g_strap.obj
 0001:000b13c0       _strap_G2API_SetBoneIKState 200b23c0 f   g_strap.obj
 0001:000b13f0       _strap_G2API_IKMove        200b23f0 f   g_strap.obj
 0001:000b1410       _strap_TrueMalloc          200b2410 f   g_strap.obj
 0001:000b1430       _strap_TrueFree            200b2430 f   g_strap.obj
 0001:000b1450       _G_FilterPacket            200b2450 f   g_svcmds.obj
 0001:000b1560       _G_ProcessIPBans           200b2560 f   g_svcmds.obj
 0001:000b18c0       _Svcmd_AddIP_f             200b28c0 f   g_svcmds.obj
 0001:000b1910       _Svcmd_RemoveIP_f          200b2910 f   g_svcmds.obj
 0001:000b19e0       _Svcmd_EntityList_f        200b29e0 f   g_svcmds.obj
 0001:000b1ba0       _ClientForString           200b2ba0 f   g_svcmds.obj
 0001:000b1ca0       _Svcmd_ForceTeam_f         200b2ca0 f   g_svcmds.obj
 0001:000b1d30       _ConsoleCommand            200b2d30 f   g_svcmds.obj
 0001:000b1ee0       _dllEntry                  200b2ee0 f   g_syscalls.obj
 0001:000b1ef0       _PASSFLOAT                 200b2ef0 f   g_syscalls.obj
 0001:000b1f10       _trap_Printf               200b2f10 f   g_syscalls.obj
 0001:000b1f30       _trap_Error                200b2f30 f   g_syscalls.obj
 0001:000b1f50       _trap_Milliseconds         200b2f50 f   g_syscalls.obj
 0001:000b1f60       _trap_PrecisionTimer_Start 200b2f60 f   g_syscalls.obj
 0001:000b1f80       _trap_PrecisionTimer_End   200b2f80 f   g_syscalls.obj
 0001:000b1fa0       _trap_Cvar_Register        200b2fa0 f   g_syscalls.obj
 0001:000b1fc0       _trap_Cvar_Update          200b2fc0 f   g_syscalls.obj
 0001:000b1fe0       _trap_Cvar_Set             200b2fe0 f   g_syscalls.obj
 0001:000b2000       _trap_Cvar_VariableIntegerValue 200b3000 f   g_syscalls.obj
 0001:000b2020       _trap_Cvar_VariableStringBuffer 200b3020 f   g_syscalls.obj
 0001:000b2040       _trap_Argc                 200b3040 f   g_syscalls.obj
 0001:000b2050       _trap_Argv                 200b3050 f   g_syscalls.obj
 0001:000b2070       _trap_FS_FOpenFile         200b3070 f   g_syscalls.obj
 0001:000b2090       _trap_FS_Read              200b3090 f   g_syscalls.obj
 0001:000b20b0       _trap_FS_Write             200b30b0 f   g_syscalls.obj
 0001:000b20d0       _trap_FS_FCloseFile        200b30d0 f   g_syscalls.obj
 0001:000b20f0       _trap_SendConsoleCommand   200b30f0 f   g_syscalls.obj
 0001:000b2110       _trap_LocateGameData       200b3110 f   g_syscalls.obj
 0001:000b2140       _trap_DropClient           200b3140 f   g_syscalls.obj
 0001:000b2160       _trap_SendServerCommand    200b3160 f   g_syscalls.obj
 0001:000b2180       _trap_SetConfigstring      200b3180 f   g_syscalls.obj
 0001:000b21a0       _trap_GetConfigstring      200b31a0 f   g_syscalls.obj
 0001:000b21c0       _trap_GetUserinfo          200b31c0 f   g_syscalls.obj
 0001:000b21e0       _trap_SetUserinfo          200b31e0 f   g_syscalls.obj
 0001:000b2200       _trap_GetServerinfo        200b3200 f   g_syscalls.obj
 0001:000b2220       _trap_SetServerCull        200b3220 f   g_syscalls.obj
 0001:000b2240       _trap_SetBrushModel        200b3240 f   g_syscalls.obj
 0001:000b2260       _trap_Trace                200b3260 f   g_syscalls.obj
 0001:000b2290       _trap_G2Trace              200b3290 f   g_syscalls.obj
 0001:000b22d0       _trap_PointContents        200b32d0 f   g_syscalls.obj
 0001:000b22f0       _trap_InPVS                200b32f0 f   g_syscalls.obj
 0001:000b2310       _trap_InPVSIgnorePortals   200b3310 f   g_syscalls.obj
 0001:000b2330       _trap_AdjustAreaPortalState 200b3330 f   g_syscalls.obj
 0001:000b2350       _trap_AreasConnected       200b3350 f   g_syscalls.obj
 0001:000b2370       _trap_LinkEntity           200b3370 f   g_syscalls.obj
 0001:000b2390       _trap_UnlinkEntity         200b3390 f   g_syscalls.obj
 0001:000b23b0       _trap_EntitiesInBox        200b33b0 f   g_syscalls.obj
 0001:000b23d0       _trap_EntityContact        200b33d0 f   g_syscalls.obj
 0001:000b23f0       _trap_BotAllocateClient    200b33f0 f   g_syscalls.obj
 0001:000b2400       _trap_BotFreeClient        200b3400 f   g_syscalls.obj
 0001:000b2420       _trap_GetUsercmd           200b3420 f   g_syscalls.obj
 0001:000b2440       _trap_GetEntityToken       200b3440 f   g_syscalls.obj
 0001:000b2460       _trap_SiegePersSet         200b3460 f   g_syscalls.obj
 0001:000b2480       _trap_SiegePersGet         200b3480 f   g_syscalls.obj
 0001:000b24a0       _trap_FS_GetFileList       200b34a0 f   g_syscalls.obj
 0001:000b24c0       _trap_DebugPolygonCreate   200b34c0 f   g_syscalls.obj
 0001:000b24e0       _trap_DebugPolygonDelete   200b34e0 f   g_syscalls.obj
 0001:000b2500       _trap_RealTime             200b3500 f   g_syscalls.obj
 0001:000b2520       _trap_SnapVector           200b3520 f   g_syscalls.obj
 0001:000b2540       _trap_TraceCapsule         200b3540 f   g_syscalls.obj
 0001:000b2570       _trap_EntityContactCapsule 200b3570 f   g_syscalls.obj
 0001:000b2590       _trap_SP_GetStringTextString 200b3590 f   g_syscalls.obj
 0001:000b25b0       _trap_ROFF_Clean           200b35b0 f   g_syscalls.obj
 0001:000b25c0       _trap_ROFF_UpdateEntities  200b35c0 f   g_syscalls.obj
 0001:000b25d0       _trap_ROFF_Cache           200b35d0 f   g_syscalls.obj
 0001:000b25f0       _trap_ROFF_Play            200b35f0 f   g_syscalls.obj
 0001:000b2610       _trap_ROFF_Purge_Ent       200b3610 f   g_syscalls.obj
 0001:000b2630       _trap_TrueMalloc           200b3630 f   g_syscalls.obj
 0001:000b2650       _trap_TrueFree             200b3650 f   g_syscalls.obj
 0001:000b2670       _trap_ICARUS_RunScript     200b3670 f   g_syscalls.obj
 0001:000b2690       _trap_ICARUS_RegisterScript 200b3690 f   g_syscalls.obj
 0001:000b26b0       _trap_ICARUS_Init          200b36b0 f   g_syscalls.obj
 0001:000b26c0       _trap_ICARUS_ValidEnt      200b36c0 f   g_syscalls.obj
 0001:000b26e0       _trap_ICARUS_IsInitialized 200b36e0 f   g_syscalls.obj
 0001:000b2700       _trap_ICARUS_MaintainTaskManager 200b3700 f   g_syscalls.obj
 0001:000b2720       _trap_ICARUS_IsRunning     200b3720 f   g_syscalls.obj
 0001:000b2740       _trap_ICARUS_TaskIDPending 200b3740 f   g_syscalls.obj
 0001:000b2760       _trap_ICARUS_InitEnt       200b3760 f   g_syscalls.obj
 0001:000b2780       _trap_ICARUS_FreeEnt       200b3780 f   g_syscalls.obj
 0001:000b27a0       _trap_ICARUS_AssociateEnt  200b37a0 f   g_syscalls.obj
 0001:000b27c0       _trap_ICARUS_Shutdown      200b37c0 f   g_syscalls.obj
 0001:000b27d0       _trap_ICARUS_TaskIDSet     200b37d0 f   g_syscalls.obj
 0001:000b27f0       _trap_ICARUS_TaskIDComplete 200b37f0 f   g_syscalls.obj
 0001:000b2810       _trap_ICARUS_SetVar        200b3810 f   g_syscalls.obj
 0001:000b2830       _trap_ICARUS_VariableDeclared 200b3830 f   g_syscalls.obj
 0001:000b2850       _trap_ICARUS_GetFloatVariable 200b3850 f   g_syscalls.obj
 0001:000b2870       _trap_ICARUS_GetStringVariable 200b3870 f   g_syscalls.obj
 0001:000b2890       _trap_ICARUS_GetVectorVariable 200b3890 f   g_syscalls.obj
 0001:000b28b0       _trap_Nav_Init             200b38b0 f   g_syscalls.obj
 0001:000b28d0       _trap_Nav_Free             200b38d0 f   g_syscalls.obj
 0001:000b28f0       _trap_Nav_Load             200b38f0 f   g_syscalls.obj
 0001:000b2910       _trap_Nav_Save             200b3910 f   g_syscalls.obj
 0001:000b2930       _trap_Nav_AddRawPoint      200b3930 f   g_syscalls.obj
 0001:000b2950       _trap_Nav_CalculatePaths   200b3950 f   g_syscalls.obj
 0001:000b2970       _trap_Nav_HardConnect      200b3970 f   g_syscalls.obj
 0001:000b2990       _trap_Nav_ShowNodes        200b3990 f   g_syscalls.obj
 0001:000b29b0       _trap_Nav_ShowEdges        200b39b0 f   g_syscalls.obj
 0001:000b29d0       _trap_Nav_ShowPath         200b39d0 f   g_syscalls.obj
 0001:000b29f0       _trap_Nav_GetNearestNode   200b39f0 f   g_syscalls.obj
 0001:000b2a20       _trap_Nav_GetBestNode      200b3a20 f   g_syscalls.obj
 0001:000b2a40       _trap_Nav_GetNodePosition  200b3a40 f   g_syscalls.obj
 0001:000b2a60       _trap_Nav_GetNodeNumEdges  200b3a60 f   g_syscalls.obj
 0001:000b2a80       _trap_Nav_GetNodeEdge      200b3a80 f   g_syscalls.obj
 0001:000b2aa0       _trap_Nav_GetNumNodes      200b3aa0 f   g_syscalls.obj
 0001:000b2ac0       _trap_Nav_Connected        200b3ac0 f   g_syscalls.obj
 0001:000b2ae0       _trap_Nav_GetPathCost      200b3ae0 f   g_syscalls.obj
 0001:000b2b00       _trap_Nav_GetEdgeCost      200b3b00 f   g_syscalls.obj
 0001:000b2b20       _trap_Nav_GetProjectedNode 200b3b20 f   g_syscalls.obj
 0001:000b2b40       _trap_Nav_CheckFailedNodes 200b3b40 f   g_syscalls.obj
 0001:000b2b60       _trap_Nav_AddFailedNode    200b3b60 f   g_syscalls.obj
 0001:000b2b80       _trap_Nav_NodeFailed       200b3b80 f   g_syscalls.obj
 0001:000b2ba0       _trap_Nav_NodesAreNeighbors 200b3ba0 f   g_syscalls.obj
 0001:000b2bc0       _trap_Nav_ClearFailedEdge  200b3bc0 f   g_syscalls.obj
 0001:000b2be0       _trap_Nav_ClearAllFailedEdges 200b3be0 f   g_syscalls.obj
 0001:000b2c00       _trap_Nav_EdgeFailed       200b3c00 f   g_syscalls.obj
 0001:000b2c20       _trap_Nav_AddFailedEdge    200b3c20 f   g_syscalls.obj
 0001:000b2c40       _trap_Nav_CheckFailedEdge  200b3c40 f   g_syscalls.obj
 0001:000b2c60       _trap_Nav_CheckAllFailedEdges 200b3c60 f   g_syscalls.obj
 0001:000b2c80       _trap_Nav_RouteBlocked     200b3c80 f   g_syscalls.obj
 0001:000b2cb0       _trap_Nav_GetBestNodeAltRoute 200b3cb0 f   g_syscalls.obj
 0001:000b2ce0       _trap_Nav_GetBestNodeAltRoute2 200b3ce0 f   g_syscalls.obj
 0001:000b2d00       _trap_Nav_GetBestPathBetweenEnts 200b3d00 f   g_syscalls.obj
 0001:000b2d20       _trap_Nav_GetNodeRadius    200b3d20 f   g_syscalls.obj
 0001:000b2d40       _trap_Nav_CheckBlockedEdges 200b3d40 f   g_syscalls.obj
 0001:000b2d60       _trap_Nav_ClearCheckedNodes 200b3d60 f   g_syscalls.obj
 0001:000b2d80       _trap_Nav_CheckedNode      200b3d80 f   g_syscalls.obj
 0001:000b2da0       _trap_Nav_SetCheckedNode   200b3da0 f   g_syscalls.obj
 0001:000b2dc0       _trap_Nav_FlagAllNodes     200b3dc0 f   g_syscalls.obj
 0001:000b2de0       _trap_Nav_GetPathsCalculated 200b3de0 f   g_syscalls.obj
 0001:000b2e00       _trap_Nav_SetPathsCalculated 200b3e00 f   g_syscalls.obj
 0001:000b2e20       _trap_SV_RegisterSharedMemory 200b3e20 f   g_syscalls.obj
 0001:000b2e40       _trap_BotLibSetup          200b3e40 f   g_syscalls.obj
 0001:000b2e60       _trap_BotLibShutdown       200b3e60 f   g_syscalls.obj
 0001:000b2e80       _trap_BotLibVarSet         200b3e80 f   g_syscalls.obj
 0001:000b2ea0       _trap_BotLibVarGet         200b3ea0 f   g_syscalls.obj
 0001:000b2ec0       _trap_BotLibDefine         200b3ec0 f   g_syscalls.obj
 0001:000b2ee0       _trap_BotLibStartFrame     200b3ee0 f   g_syscalls.obj
 0001:000b2f00       _trap_BotLibLoadMap        200b3f00 f   g_syscalls.obj
 0001:000b2f20       _trap_BotLibUpdateEntity   200b3f20 f   g_syscalls.obj
 0001:000b2f40       _trap_BotLibTest           200b3f40 f   g_syscalls.obj
 0001:000b2f70       _trap_BotGetSnapshotEntity 200b3f70 f   g_syscalls.obj
 0001:000b2f90       _trap_BotGetServerCommand  200b3f90 f   g_syscalls.obj
 0001:000b2fb0       _trap_BotUserCommand       200b3fb0 f   g_syscalls.obj
 0001:000b2fd0       _trap_AAS_EntityInfo       200b3fd0 f   g_syscalls.obj
 0001:000b2ff0       _trap_AAS_Initialized      200b3ff0 f   g_syscalls.obj
 0001:000b3010       _trap_AAS_PresenceTypeBoundingBox 200b4010 f   g_syscalls.obj
 0001:000b3030       _trap_AAS_Time             200b4030 f   g_syscalls.obj
 0001:000b3050       _trap_AAS_PointAreaNum     200b4050 f   g_syscalls.obj
 0001:000b3070       _trap_AAS_PointReachabilityAreaIndex 200b4070 f   g_syscalls.obj
 0001:000b3090       _trap_AAS_TraceAreas       200b4090 f   g_syscalls.obj
 0001:000b30c0       _trap_AAS_BBoxAreas        200b40c0 f   g_syscalls.obj
 0001:000b30f0       _trap_AAS_AreaInfo         200b40f0 f   g_syscalls.obj
 0001:000b3110       _trap_AAS_PointContents    200b4110 f   g_syscalls.obj
 0001:000b3130       _trap_AAS_NextBSPEntity    200b4130 f   g_syscalls.obj
 0001:000b3150       _trap_AAS_ValueForBSPEpairKey 200b4150 f   g_syscalls.obj
 0001:000b3180       _trap_AAS_VectorForBSPEpairKey 200b4180 f   g_syscalls.obj
 0001:000b31a0       _trap_AAS_FloatForBSPEpairKey 200b41a0 f   g_syscalls.obj
 0001:000b31c0       _trap_AAS_IntForBSPEpairKey 200b41c0 f   g_syscalls.obj
 0001:000b31e0       _trap_AAS_AreaReachability 200b41e0 f   g_syscalls.obj
 0001:000b3200       _trap_AAS_AreaTravelTimeToGoalArea 200b4200 f   g_syscalls.obj
 0001:000b3230       _trap_AAS_EnableRoutingArea 200b4230 f   g_syscalls.obj
 0001:000b3250       _trap_AAS_PredictRoute     200b4250 f   g_syscalls.obj
 0001:000b3290       _trap_AAS_AlternativeRouteGoals 200b4290 f   g_syscalls.obj
 0001:000b32d0       _trap_AAS_Swimming         200b42d0 f   g_syscalls.obj
 0001:000b32f0       _trap_AAS_PredictClientMovement 200b42f0 f   g_syscalls.obj
 0001:000b3340       _trap_EA_Say               200b4340 f   g_syscalls.obj
 0001:000b3360       _trap_EA_SayTeam           200b4360 f   g_syscalls.obj
 0001:000b3380       _trap_EA_Command           200b4380 f   g_syscalls.obj
 0001:000b33a0       _trap_EA_Action            200b43a0 f   g_syscalls.obj
 0001:000b33c0       _trap_EA_Gesture           200b43c0 f   g_syscalls.obj
 0001:000b33e0       _trap_EA_Talk              200b43e0 f   g_syscalls.obj
 0001:000b3400       _trap_EA_Attack            200b4400 f   g_syscalls.obj
 0001:000b3420       _trap_EA_Alt_Attack        200b4420 f   g_syscalls.obj
 0001:000b3440       _trap_EA_ForcePower        200b4440 f   g_syscalls.obj
 0001:000b3460       _trap_EA_Use               200b4460 f   g_syscalls.obj
 0001:000b3480       _trap_EA_Respawn           200b4480 f   g_syscalls.obj
 0001:000b34a0       _trap_EA_Crouch            200b44a0 f   g_syscalls.obj
 0001:000b34c0       _trap_EA_MoveUp            200b44c0 f   g_syscalls.obj
 0001:000b34e0       _trap_EA_MoveDown          200b44e0 f   g_syscalls.obj
 0001:000b3500       _trap_EA_MoveForward       200b4500 f   g_syscalls.obj
 0001:000b3520       _trap_EA_MoveBack          200b4520 f   g_syscalls.obj
 0001:000b3540       _trap_EA_MoveLeft          200b4540 f   g_syscalls.obj
 0001:000b3560       _trap_EA_MoveRight         200b4560 f   g_syscalls.obj
 0001:000b3580       _trap_EA_SelectWeapon      200b4580 f   g_syscalls.obj
 0001:000b35a0       _trap_EA_Jump              200b45a0 f   g_syscalls.obj
 0001:000b35c0       _trap_EA_DelayedJump       200b45c0 f   g_syscalls.obj
 0001:000b35e0       _trap_EA_Move              200b45e0 f   g_syscalls.obj
 0001:000b3610       _trap_EA_View              200b4610 f   g_syscalls.obj
 0001:000b3630       _trap_EA_EndRegular        200b4630 f   g_syscalls.obj
 0001:000b3660       _trap_EA_GetInput          200b4660 f   g_syscalls.obj
 0001:000b3690       _trap_EA_ResetInput        200b4690 f   g_syscalls.obj
 0001:000b36b0       _trap_BotLoadCharacter     200b46b0 f   g_syscalls.obj
 0001:000b36e0       _trap_BotFreeCharacter     200b46e0 f   g_syscalls.obj
 0001:000b3700       _trap_Characteristic_Float 200b4700 f   g_syscalls.obj
 0001:000b3730       _trap_Characteristic_BFloat 200b4730 f   g_syscalls.obj
 0001:000b3770       _trap_Characteristic_Integer 200b4770 f   g_syscalls.obj
 0001:000b3790       _trap_Characteristic_BInteger 200b4790 f   g_syscalls.obj
 0001:000b37c0       _trap_Characteristic_String 200b47c0 f   g_syscalls.obj
 0001:000b37f0       _trap_BotAllocChatState    200b47f0 f   g_syscalls.obj
 0001:000b3810       _trap_BotFreeChatState     200b4810 f   g_syscalls.obj
 0001:000b3830       _trap_BotQueueConsoleMessage 200b4830 f   g_syscalls.obj
 0001:000b3850       _trap_BotRemoveConsoleMessage 200b4850 f   g_syscalls.obj
 0001:000b3870       _trap_BotNextConsoleMessage 200b4870 f   g_syscalls.obj
 0001:000b3890       _trap_BotNumConsoleMessages 200b4890 f   g_syscalls.obj
 0001:000b38b0       _trap_BotInitialChat       200b48b0 f   g_syscalls.obj
 0001:000b38f0       _trap_BotNumInitialChats   200b48f0 f   g_syscalls.obj
 0001:000b3910       _trap_BotReplyChat         200b4910 f   g_syscalls.obj
 0001:000b3960       _trap_BotChatLength        200b4960 f   g_syscalls.obj
 0001:000b3980       _trap_BotEnterChat         200b4980 f   g_syscalls.obj
 0001:000b39a0       _trap_BotGetChatMessage    200b49a0 f   g_syscalls.obj
 0001:000b39c0       _trap_StringContains       200b49c0 f   g_syscalls.obj
 0001:000b39e0       _trap_BotFindMatch         200b49e0 f   g_syscalls.obj
 0001:000b3a00       _trap_BotMatchVariable     200b4a00 f   g_syscalls.obj
 0001:000b3a30       _trap_UnifyWhiteSpaces     200b4a30 f   g_syscalls.obj
 0001:000b3a50       _trap_BotReplaceSynonyms   200b4a50 f   g_syscalls.obj
 0001:000b3a70       _trap_BotLoadChatFile      200b4a70 f   g_syscalls.obj
 0001:000b3a90       _trap_BotSetChatGender     200b4a90 f   g_syscalls.obj
 0001:000b3ab0       _trap_BotSetChatName       200b4ab0 f   g_syscalls.obj
 0001:000b3ad0       _trap_BotResetGoalState    200b4ad0 f   g_syscalls.obj
 0001:000b3af0       _trap_BotResetAvoidGoals   200b4af0 f   g_syscalls.obj
 0001:000b3b10       _trap_BotRemoveFromAvoidGoals 200b4b10 f   g_syscalls.obj
 0001:000b3b30       _trap_BotPushGoal          200b4b30 f   g_syscalls.obj
 0001:000b3b50       _trap_BotPopGoal           200b4b50 f   g_syscalls.obj
 0001:000b3b70       _trap_BotEmptyGoalStack    200b4b70 f   g_syscalls.obj
 0001:000b3b90       _trap_BotDumpAvoidGoals    200b4b90 f   g_syscalls.obj
 0001:000b3bb0       _trap_BotDumpGoalStack     200b4bb0 f   g_syscalls.obj
 0001:000b3bd0       _trap_BotGoalName          200b4bd0 f   g_syscalls.obj
 0001:000b3bf0       _trap_BotGetTopGoal        200b4bf0 f   g_syscalls.obj
 0001:000b3c10       _trap_BotGetSecondGoal     200b4c10 f   g_syscalls.obj
 0001:000b3c30       _trap_BotChooseLTGItem     200b4c30 f   g_syscalls.obj
 0001:000b3c60       _trap_BotChooseNBGItem     200b4c60 f   g_syscalls.obj
 0001:000b3ca0       _trap_BotTouchingGoal      200b4ca0 f   g_syscalls.obj
 0001:000b3cc0       _trap_BotItemGoalInVisButNotVisible 200b4cc0 f   g_syscalls.obj
 0001:000b3cf0       _trap_BotGetLevelItemGoal  200b4cf0 f   g_syscalls.obj
 0001:000b3d10       _trap_BotGetNextCampSpotGoal 200b4d10 f   g_syscalls.obj
 0001:000b3d30       _trap_BotGetMapLocationGoal 200b4d30 f   g_syscalls.obj
 0001:000b3d50       _trap_BotAvoidGoalTime     200b4d50 f   g_syscalls.obj
 0001:000b3d80       _trap_BotSetAvoidGoalTime  200b4d80 f   g_syscalls.obj
 0001:000b3db0       _trap_BotInitLevelItems    200b4db0 f   g_syscalls.obj
 0001:000b3dd0       _trap_BotUpdateEntityItems 200b4dd0 f   g_syscalls.obj
 0001:000b3df0       _trap_BotLoadItemWeights   200b4df0 f   g_syscalls.obj
 0001:000b3e10       _trap_BotFreeItemWeights   200b4e10 f   g_syscalls.obj
 0001:000b3e30       _trap_BotInterbreedGoalFuzzyLogic 200b4e30 f   g_syscalls.obj
 0001:000b3e50       _trap_BotSaveGoalFuzzyLogic 200b4e50 f   g_syscalls.obj
 0001:000b3e70       _trap_BotMutateGoalFuzzyLogic 200b4e70 f   g_syscalls.obj
 0001:000b3e90       _trap_BotAllocGoalState    200b4e90 f   g_syscalls.obj
 0001:000b3eb0       _trap_BotFreeGoalState     200b4eb0 f   g_syscalls.obj
 0001:000b3ed0       _trap_BotResetMoveState    200b4ed0 f   g_syscalls.obj
 0001:000b3ef0       _trap_BotAddAvoidSpot      200b4ef0 f   g_syscalls.obj
 0001:000b3f20       _trap_BotMoveToGoal        200b4f20 f   g_syscalls.obj
 0001:000b3f50       _trap_BotMoveInDirection   200b4f50 f   g_syscalls.obj
 0001:000b3f80       _trap_BotResetAvoidReach   200b4f80 f   g_syscalls.obj
 0001:000b3fa0       _trap_BotResetLastAvoidReach 200b4fa0 f   g_syscalls.obj
 0001:000b3fc0       _trap_BotReachabilityArea  200b4fc0 f   g_syscalls.obj
 0001:000b3fe0       _trap_BotMovementViewTarget 200b4fe0 f   g_syscalls.obj
 0001:000b4010       _trap_BotPredictVisiblePosition 200b5010 f   g_syscalls.obj
 0001:000b4040       _trap_BotAllocMoveState    200b5040 f   g_syscalls.obj
 0001:000b4060       _trap_BotFreeMoveState     200b5060 f   g_syscalls.obj
 0001:000b4080       _trap_BotInitMoveState     200b5080 f   g_syscalls.obj
 0001:000b40a0       _trap_BotChooseBestFightWeapon 200b50a0 f   g_syscalls.obj
 0001:000b40c0       _trap_BotGetWeaponInfo     200b50c0 f   g_syscalls.obj
 0001:000b40e0       _trap_BotLoadWeaponWeights 200b50e0 f   g_syscalls.obj
 0001:000b4100       _trap_BotAllocWeaponState  200b5100 f   g_syscalls.obj
 0001:000b4120       _trap_BotFreeWeaponState   200b5120 f   g_syscalls.obj
 0001:000b4140       _trap_BotResetWeaponState  200b5140 f   g_syscalls.obj
 0001:000b4160       _trap_GeneticParentsAndChildSelection 200b5160 f   g_syscalls.obj
 0001:000b4190       _trap_PC_LoadSource        200b5190 f   g_syscalls.obj
 0001:000b41b0       _trap_PC_FreeSource        200b51b0 f   g_syscalls.obj
 0001:000b41d0       _trap_PC_ReadToken         200b51d0 f   g_syscalls.obj
 0001:000b41f0       _trap_PC_SourceFileAndLine 200b51f0 f   g_syscalls.obj
 0001:000b4210       _trap_R_RegisterSkin       200b5210 f   g_syscalls.obj
 0001:000b4230       _trap_G2_ListModelBones    200b5230 f   g_syscalls.obj
 0001:000b4250       _trap_G2_ListModelSurfaces 200b5250 f   g_syscalls.obj
 0001:000b4270       _trap_G2_HaveWeGhoul2Models 200b5270 f   g_syscalls.obj
 0001:000b4290       _trap_G2_SetGhoul2ModelIndexes 200b5290 f   g_syscalls.obj
 0001:000b42b0       _trap_G2API_GetBoltMatrix  200b52b0 f   g_syscalls.obj
 0001:000b42f0       _trap_G2API_GetBoltMatrix_NoReconstruct 200b52f0 f   g_syscalls.obj
 0001:000b4330       _trap_G2API_GetBoltMatrix_NoRecNoRot 200b5330 f   g_syscalls.obj
 0001:000b4370       _trap_G2API_InitGhoul2Model 200b5370 f   g_syscalls.obj
 0001:000b43a0       _trap_G2API_SetSkin        200b53a0 f   g_syscalls.obj
 0001:000b43d0       _trap_G2API_Ghoul2Size     200b53d0 f   g_syscalls.obj
 0001:000b43f0       _trap_G2API_AddBolt        200b53f0 f   g_syscalls.obj
 0001:000b4410       _trap_G2API_SetBoltInfo    200b5410 f   g_syscalls.obj
 0001:000b4430       _trap_G2API_SetBoneAngles  200b5430 f   g_syscalls.obj
 0001:000b4470       _trap_G2API_SetBoneAnim    200b5470 f   g_syscalls.obj
 0001:000b44c0       _trap_G2API_GetBoneAnim    200b54c0 f   g_syscalls.obj
 0001:000b4500       _trap_G2API_GetGLAName     200b5500 f   g_syscalls.obj
 0001:000b4520       _trap_G2API_CopyGhoul2Instance 200b5520 f   g_syscalls.obj
 0001:000b4540       _trap_G2API_CopySpecificGhoul2Model 200b5540 f   g_syscalls.obj
 0001:000b4570       _trap_G2API_DuplicateGhoul2Instance 200b5570 f   g_syscalls.obj
 0001:000b4590       _trap_G2API_HasGhoul2ModelOnIndex 200b5590 f   g_syscalls.obj
 0001:000b45b0       _trap_G2API_RemoveGhoul2Model 200b55b0 f   g_syscalls.obj
 0001:000b45d0       _trap_G2API_RemoveGhoul2Models 200b55d0 f   g_syscalls.obj
 0001:000b45f0       _trap_G2API_CleanGhoul2Models 200b55f0 f   g_syscalls.obj
 0001:000b4610       _trap_G2API_CollisionDetect 200b5610 f   g_syscalls.obj
 0001:000b4660       _trap_G2API_CollisionDetectCache 200b5660 f   g_syscalls.obj
 0001:000b46b0       _trap_G2API_GetSurfaceName 200b56b0 f   g_syscalls.obj
 0001:000b46e0       _trap_G2API_SetRootSurface 200b56e0 f   g_syscalls.obj
 0001:000b4700       _trap_G2API_SetSurfaceOnOff 200b5700 f   g_syscalls.obj
 0001:000b4720       _trap_G2API_SetNewOrigin   200b5720 f   g_syscalls.obj
 0001:000b4740       _trap_G2API_DoesBoneExist  200b5740 f   g_syscalls.obj
 0001:000b4760       _trap_G2API_GetSurfaceRenderStatus 200b5760 f   g_syscalls.obj
 0001:000b4780       _trap_G2API_AbsurdSmoothing 200b5780 f   g_syscalls.obj
 0001:000b47a0       _trap_G2API_SetRagDoll     200b57a0 f   g_syscalls.obj
 0001:000b47c0       _trap_G2API_AnimateG2Models 200b57c0 f   g_syscalls.obj
 0001:000b47e0       _trap_G2API_RagPCJConstraint 200b57e0 f   g_syscalls.obj
 0001:000b4810       _trap_G2API_RagPCJGradientSpeed 200b5810 f   g_syscalls.obj
 0001:000b4840       _trap_G2API_RagEffectorGoal 200b5840 f   g_syscalls.obj
 0001:000b4860       _trap_G2API_GetRagBonePos  200b5860 f   g_syscalls.obj
 0001:000b4890       _trap_G2API_RagEffectorKick 200b5890 f   g_syscalls.obj
 0001:000b48b0       _trap_G2API_RagForceSolve  200b58b0 f   g_syscalls.obj
 0001:000b48d0       _trap_G2API_SetBoneIKState 200b58d0 f   g_syscalls.obj
 0001:000b4900       _trap_G2API_IKMove         200b5900 f   g_syscalls.obj
 0001:000b4920       _trap_G2API_RemoveBone     200b5920 f   g_syscalls.obj
 0001:000b4940       _trap_G2API_AttachInstanceToEntNum 200b5940 f   g_syscalls.obj
 0001:000b4960       _trap_G2API_ClearAttachedInstance 200b5960 f   g_syscalls.obj
 0001:000b4980       _trap_G2API_CleanEntAttachments 200b5980 f   g_syscalls.obj
 0001:000b49a0       _trap_G2API_OverrideServer 200b59a0 f   g_syscalls.obj
 0001:000b49c0       _trap_SetActiveSubBSP      200b59c0 f   g_syscalls.obj
 0001:000b49e0       _trap_CM_RegisterTerrain   200b59e0 f   g_syscalls.obj
 0001:000b4a00       _trap_RMG_Init             200b5a00 f   g_syscalls.obj
 0001:000b4a20       _trap_Bot_UpdateWaypoints  200b5a20 f   g_syscalls.obj
 0001:000b4a40       _trap_Bot_CalculatePaths   200b5a40 f   g_syscalls.obj
 0001:000b4a60       _Use_Target_Give           200b5a60 f   g_target.obj
 0001:000b4b10       _SP_target_give            200b5b10 f   g_target.obj
 0001:000b4b30       _Use_target_remove_powerups 200b5b30 f   g_target.obj
 0001:000b4bc0       _SP_target_remove_powerups 200b5bc0 f   g_target.obj
 0001:000b4be0       _Think_Target_Delay        200b5be0 f   g_target.obj
 0001:000b4c00       _Use_Target_Delay          200b5c00 f   g_target.obj
 0001:000b4cc0       _SP_target_delay           200b5cc0 f   g_target.obj
 0001:000b4d40       _Use_Target_Score          200b5d40 f   g_target.obj
 0001:000b4d70       _SP_target_score           200b5d70 f   g_target.obj
 0001:000b4da0       _Use_Target_Print          200b5da0 f   g_target.obj
 0001:000b5180       _SP_target_print           200b6180 f   g_target.obj
 0001:000b51a0       _Use_Target_Speaker        200b61a0 f   g_target.obj
 0001:000b5290       _SP_target_speaker         200b6290 f   g_target.obj
 0001:000b54a0       _target_laser_think        200b64a0 f   g_target.obj
 0001:000b56c0       _target_laser_on           200b66c0 f   g_target.obj
 0001:000b56f0       _target_laser_off          200b66f0 f   g_target.obj
 0001:000b5710       _target_laser_use          200b6710 f   g_target.obj
 0001:000b5750       _target_laser_start        200b6750 f   g_target.obj
 0001:000b5850       _SP_target_laser           200b6850 f   g_target.obj
 0001:000b5880       _target_teleporter_use     200b6880 f   g_target.obj
 0001:000b58f0       _SP_target_teleporter      200b68f0 f   g_target.obj
 0001:000b5940       _target_relay_use          200b6940 f   g_target.obj
 0001:000b5a90       _SP_target_relay           200b6a90 f   g_target.obj
 0001:000b5ad0       _target_kill_use           200b6ad0 f   g_target.obj
 0001:000b5b00       _SP_target_kill            200b6b00 f   g_target.obj
 0001:000b5b20       _SP_target_position        200b6b20 f   g_target.obj
 0001:000b5b40       _SP_target_location        200b6b40 f   g_target.obj
 0001:000b5c70       _target_counter_use        200b6c70 f   g_target.obj
 0001:000b5dc0       _SP_target_counter         200b6dc0 f   g_target.obj
 0001:000b5e10       _target_random_use         200b6e10 f   g_target.obj
 0001:000b5f60       _SP_target_random          200b6f60 f   g_target.obj
 0001:000b5f80       _scriptrunner_run          200b6f80 f   g_target.obj
 0001:000b61c0       _target_scriptrunner_use   200b71c0 f   g_target.obj
 0001:000b6230       _SP_target_scriptrunner    200b7230 f   g_target.obj
 0001:000b62f0       _G_SetActiveState          200b72f0 f   g_target.obj
 0001:000b6360       _target_activate_use       200b7360 f   g_target.obj
 0001:000b6390       _target_deactivate_use     200b7390 f   g_target.obj
 0001:000b63c0       _SP_target_activate        200b73c0 f   g_target.obj
 0001:000b63f0       _SP_target_deactivate      200b73f0 f   g_target.obj
 0001:000b6420       _target_level_change_use   200b7420 f   g_target.obj
 0001:000b6460       _SP_target_level_change    200b7460 f   g_target.obj
 0001:000b64e0       _target_play_music_use     200b74e0 f   g_target.obj
 0001:000b6510       _SP_target_play_music      200b7510 f   g_target.obj
 0001:000b6590       _Team_InitGame             200b7590 f   g_team.obj
 0001:000b65f0       _OtherTeam                 200b75f0 f   g_team.obj
 0001:000b6620       _TeamName                  200b7620 f   g_team.obj
 0001:000b6660       _OtherTeamName             200b7660 f   g_team.obj
 0001:000b66a0       _TeamColorString           200b76a0 f   g_team.obj
 0001:000b66e0       _PrintCTFMessage           200b76e0 f   g_team.obj
 0001:000b6780       _AddTeamScore              200b7780 f   g_team.obj
 0001:000b6890       _OnSameTeam                200b7890 f   g_team.obj
 0001:000b6ad0       _Team_SetFlagStatus        200b7ad0 f   g_team.obj
 0001:000b6ba0       _Team_CheckDroppedItem     200b7ba0 f   g_team.obj
 0001:000b6c00       _Team_ForceGesture         200b7c00 f   g_team.obj
 0001:000b6c80       _Team_FragBonuses          200b7c80 f   g_team.obj
 0001:000b7510       _Team_CheckHurtCarrier     200b8510 f   g_team.obj
 0001:000b75f0       _Team_ResetFlag            200b85f0 f   g_team.obj
 0001:000b76b0       _Team_ResetFlags           200b86b0 f   g_team.obj
 0001:000b76e0       _Team_ReturnFlagSound      200b86e0 f   g_team.obj
 0001:000b7750       _Team_TakeFlagSound        200b8750 f   g_team.obj
 0001:000b7830       _Team_CaptureFlagSound     200b8830 f   g_team.obj
 0001:000b78a0       _Team_ReturnFlag           200b88a0 f   g_team.obj
 0001:000b78e0       _Team_FreeEntity           200b88e0 f   g_team.obj
 0001:000b7940       _Team_DroppedFlagThink     200b8940 f   g_team.obj
 0001:000b79b0       _Team_TouchOurFlag         200b89b0 f   g_team.obj
 0001:000b7d70       _Team_TouchEnemyFlag       200b8d70 f   g_team.obj
 0001:000b7e10       _Pickup_Team               200b8e10 f   g_team.obj
 0001:000b7ed0       _Team_GetLocation          200b8ed0 f   g_team.obj
 0001:000b7fc0       _Team_GetLocationMsg       200b8fc0 f   g_team.obj
 0001:000b8080       _SelectRandomTeamSpawnPoint 200b9080 f   g_team.obj
 0001:000b8320       _SelectCTFSpawnPoint       200b9320 f   g_team.obj
 0001:000b83c0       _SelectSiegeSpawnPoint     200b93c0 f   g_team.obj
 0001:000b8460       _TeamplayInfoMessage       200b9460 f   g_team.obj
 0001:000b8740       _CheckTeamStatus           200b9740 f   g_team.obj
 0001:000b88c0       _SP_team_CTF_redplayer     200b98c0 f   g_team.obj
 0001:000b88d0       _SP_team_CTF_blueplayer    200b98d0 f   g_team.obj
 0001:000b88e0       _SP_team_CTF_redspawn      200b98e0 f   g_team.obj
 0001:000b88f0       _SP_team_CTF_bluespawn     200b98f0 f   g_team.obj
 0001:000b8900       _TIMER_Clear               200b9900 f   g_timer.obj
 0001:000b8980       _TIMER_Clear2              200b9980 f   g_timer.obj
 0001:000b8a00       _TIMER_GetNew              200b9a00 f   g_timer.obj
 0001:000b8a90       _TIMER_GetExisting         200b9a90 f   g_timer.obj
 0001:000b8ae0       _TIMER_Set                 200b9ae0 f   g_timer.obj
 0001:000b8b20       _TIMER_Get                 200b9b20 f   g_timer.obj
 0001:000b8b50       _TIMER_Done                200b9b50 f   g_timer.obj
 0001:000b8b90       _TIMER_RemoveHelper        200b9b90 f   g_timer.obj
 0001:000b8c20       _TIMER_Done2               200b9c20 f   g_timer.obj
 0001:000b8c80       _TIMER_Exists              200b9c80 f   g_timer.obj
 0001:000b8cb0       _TIMER_Remove              200b9cb0 f   g_timer.obj
 0001:000b8cf0       _TIMER_Start               200b9cf0 f   g_timer.obj
 0001:000b8d30       _InitTrigger               200b9d30 f   g_trigger.obj
 0001:000b8dc0       _multi_wait                200b9dc0 f   g_trigger.obj
 0001:000b8de0       _multi_trigger_run         200b9de0 f   g_trigger.obj
 0001:000b90e0       _G_NameInTriggerClassList  200ba0e0 f   g_trigger.obj
 0001:000b91a0       _multi_trigger             200ba1a0 f   g_trigger.obj
 0001:000b9780       _Use_Multi                 200ba780 f   g_trigger.obj
 0001:000b97a0       _Touch_Multi               200ba7a0 f   g_trigger.obj
 0001:000b9d40       _trigger_cleared_fire      200bad40 f   g_trigger.obj
 0001:000b9df0       _SP_trigger_multiple       200badf0 f   g_trigger.obj
 0001:000ba000       _SP_trigger_once           200bb000 f   g_trigger.obj
 0001:000ba150       _Do_Strike                 200bb150 f   g_trigger.obj
 0001:000ba2f0       _Think_Strike              200bb2f0 f   g_trigger.obj
 0001:000ba360       _Use_Strike                200bb360 f   g_trigger.obj
 0001:000ba3a0       _SP_trigger_lightningstrike 200bb3a0 f   g_trigger.obj
 0001:000ba4c0       _trigger_always_think      200bb4c0 f   g_trigger.obj
 0001:000ba4f0       _SP_trigger_always         200bb4f0 f   g_trigger.obj
 0001:000ba520       _trigger_push_touch        200bb520 f   g_trigger.obj
 0001:000ba8a0       _AimAtTarget               200bb8a0 f   g_trigger.obj
 0001:000babb0       _SP_trigger_push           200bbbb0 f   g_trigger.obj
 0001:000bac50       _Use_target_push           200bbc50 f   g_trigger.obj
 0001:000bad20       _SP_target_push            200bbd20 f   g_trigger.obj
 0001:000bae70       _trigger_teleporter_touch  200bbe70 f   g_trigger.obj
 0001:000baf20       _SP_trigger_teleport       200bbf20 f   g_trigger.obj
 0001:000bafa0       _hurt_use                  200bbfa0 f   g_trigger.obj
 0001:000bb020       _hurt_touch                200bc020 f   g_trigger.obj
 0001:000bb3f0       _SP_trigger_hurt           200bc3f0 f   g_trigger.obj
 0001:000bb4b0       _space_touch               200bc4b0 f   g_trigger.obj
 0001:000bb620       _SP_trigger_space          200bc620 f   g_trigger.obj
 0001:000bb660       _shipboundary_touch        200bc660 f   g_trigger.obj
 0001:000bb7d0       _shipboundary_think        200bc7d0 f   g_trigger.obj
 0001:000bb8f0       _SP_trigger_shipboundary   200bc8f0 f   g_trigger.obj
 0001:000bb9b0       _hyperspace_touch          200bc9b0 f   g_trigger.obj
 0001:000bbe20       _SP_trigger_hyperspace     200bce20 f   g_trigger.obj
 0001:000bbf70       _func_timer_think          200bcf70 f   g_trigger.obj
 0001:000bbff0       _func_timer_use            200bcff0 f   g_trigger.obj
 0001:000bc040       _SP_func_timer             200bd040 f   g_trigger.obj
 0001:000bc120       _asteroid_pick_random_asteroid 200bd120 f   g_trigger.obj
 0001:000bc1f0       _asteroid_count_num_asteroids 200bd1f0 f   g_trigger.obj
 0001:000bc260       _asteroid_field_think      200bd260 f   g_trigger.obj
 0001:000bc6a0       _SP_trigger_asteroid_field 200bd6a0 f   g_trigger.obj
 0001:000bc730       _TurretPain                200bd730 f   g_turret.obj
 0001:000bc810       _TurretBasePain            200bd810 f   g_turret.obj
 0001:000bc880       _auto_turret_die           200bd880 f   g_turret.obj
 0001:000bcad0       _bottom_die                200bdad0 f   g_turret.obj
 0001:000bcb60       _turret_head_think         200bdb60 f   g_turret.obj
 0001:000bd000       _turret_base_think         200be000 f   g_turret.obj
 0001:000bdd40       _turret_base_use           200bed40 f   g_turret.obj
 0001:000bdd60       _SP_misc_turret            200bed60 f   g_turret.obj
 0001:000bdeb0       _turret_base_spawn_top     200beeb0 f   g_turret.obj
 0001:000be3e0       _G2Tur_SetBoneAngles       200bf3e0 f   g_turret_G2.obj
 0001:000be5c0       _turretG2_set_models       200bf5c0 f   g_turret_G2.obj
 0001:000be7b0       _TurretG2Pain              200bf7b0 f   g_turret_G2.obj
 0001:000be8b0       _turretG2_die              200bf8b0 f   g_turret_G2.obj
 0001:000beb00       _TurboLaser_SetBoneAnim    200bfb00 f   g_turret_G2.obj
 0001:000beba0       _turretG2_respawn          200bfba0 f   g_turret_G2.obj
 0001:000bec70       _turretG2_head_think       200bfc70 f   g_turret_G2.obj
 0001:000bf380       _turretG2_base_think       200c0380 f   g_turret_G2.obj
 0001:000c03b0       _turretG2_base_use         200c13b0 f   g_turret_G2.obj
 0001:000c0400       _SP_misc_turretG2          200c1400 f   g_turret_G2.obj
 0001:000c0580       _finish_spawning_turretG2  200c1580 f   g_turret_G2.obj
 0001:000c0c50       _AddRemap                  200c1c50 f   g_utils.obj
 0001:000c0d40       _BuildShaderStateConfig    200c1d40 f   g_utils.obj
 0001:000c0df0       _G_BoneIndex               200c1df0 f   g_utils.obj
 0001:000c0ec0       _G_ModelIndex              200c1ec0 f   g_utils.obj
 0001:000c0ee0       _G_IconIndex               200c1ee0 f   g_utils.obj
 0001:000c0f10       _G_SoundIndex              200c1f10 f   g_utils.obj
 0001:000c0f40       _G_SoundSetIndex           200c1f40 f   g_utils.obj
 0001:000c0f60       _G_EffectIndex             200c1f60 f   g_utils.obj
 0001:000c0f80       _G_BSPIndex                200c1f80 f   g_utils.obj
 0001:000c0fa0       _G_PlayerHasCustomSkeleton 200c1fa0 f   g_utils.obj
 0001:000c0fb0       _G_TeamCommand             200c1fb0 f   g_utils.obj
 0001:000c1030       _G_Find                    200c2030 f   g_utils.obj
 0001:000c10c0       _G_RadiusList              200c20c0 f   g_utils.obj
 0001:000c1300       _G_Throw                   200c2300 f   g_utils.obj
 0001:000c1550       _G_FreeFakeClient          200c2550 f   g_utils.obj
 0001:000c1560       _G_AllocateVehicleObject   200c2560 f   g_utils.obj
 0001:000c1610       _G_FreeVehicleObject       200c2610 f   g_utils.obj
 0001:000c1670       _G_CreateFakeClient        200c2670 f   g_utils.obj
 0001:000c16b0       _G_CleanAllFakeClients     200c26b0 f   g_utils.obj
 0001:000c1720       _G_SetAnim                 200c2720 f   g_utils.obj
 0001:000c1760       _G_PickTarget              200c2760 f   g_utils.obj
 0001:000c1820       _GlobalUse                 200c2820 f   g_utils.obj
 0001:000c1870       _G_UseTargets2             200c2870 f   g_utils.obj
 0001:000c1970       _G_UseTargets              200c2970 f   g_utils.obj
 0001:000c19a0       _tv                        200c29a0 f   g_utils.obj
 0001:000c19f0       _vtos                      200c29f0 f   g_utils.obj
 0001:000c1a60       _G_SetMovedir              200c2a60 f   g_utils.obj
 0001:000c1b60       _G_InitGentity             200c2b60 f   g_utils.obj
 0001:000c1bc0       _G_Spawn                   200c2bc0 f   g_utils.obj
 0001:000c1cb0       _G_EntitiesFree            200c2cb0 f   g_utils.obj
 0001:000c1d10       _G_SendG2KillQueue         200c2d10 f   g_utils.obj
 0001:000c1dc0       _G_KillG2Queue             200c2dc0 f   g_utils.obj
 0001:000c1e10       _G_FreeEntity              200c2e10 f   g_utils.obj
 0001:000c20f0       _G_TempEntity              200c30f0 f   g_utils.obj
 0001:000c2200       _G_SoundTempEntity         200c3200 f   g_utils.obj
 0001:000c22a0       _G_ScaleNetHealth          200c32a0 f   g_utils.obj
 0001:000c2370       _G_KillBox                 200c3370 f   g_utils.obj
 0001:000c24c0       _G_AddPredictableEvent     200c34c0 f   g_utils.obj
 0001:000c24f0       _G_AddEvent                200c34f0 f   g_utils.obj
 0001:000c25e0       _G_PlayEffect              200c35e0 f   g_utils.obj
 0001:000c2660       _G_PlayEffectID            200c3660 f   g_utils.obj
 0001:000c2720       _G_ScreenShake             200c3720 f   g_utils.obj
 0001:000c27c0       _G_MuteSound               200c37c0 f   g_utils.obj
 0001:000c2840       _G_Sound                   200c3840 f   g_utils.obj
 0001:000c29b0       _G_SoundAtLoc              200c39b0 f   g_utils.obj
 0001:000c29f0       _G_EntitySound             200c39f0 f   g_utils.obj
 0001:000c2a40       _G_SoundOnEnt              200c3a40 f   g_utils.obj
 0001:000c2a90       _ValidUseTarget            200c3a90 f   g_utils.obj
 0001:000c2ae0       _G_UseDispenserOn          200c3ae0 f   g_utils.obj
 0001:000c2cf0       _G_CanUseDispOn            200c3cf0 f   g_utils.obj
 0001:000c2df0       _TryHeal                   200c3df0 f   g_utils.obj
 0001:000c3050       _TryUse                    200c4050 f   g_utils.obj
 0001:000c39a0       _G_PointInBounds           200c49a0 f   g_utils.obj
 0001:000c3a10       _G_BoxInBounds             200c4a10 f   g_utils.obj
 0001:000c3af0       _G_SetAngles               200c4af0 f   g_utils.obj
 0001:000c3b70       _G_ClearTrace              200c4b70 f   g_utils.obj
 0001:000c3bd0       _G_SetOrigin               200c4bd0 f   g_utils.obj
 0001:000c3c60       _G_CheckInSolid            200c4c60 f   g_utils.obj
 0001:000c3d90       _DebugLine                 200c4d90 f   g_utils.obj
 0001:000c3fd0       _G_ROFF_NotetrackCallback  200c4fd0 f   g_utils.obj
 0001:000c4170       _G_SpeechEvent             200c5170 f   g_utils.obj
 0001:000c4190       _G_ExpandPointToBBox       200c5190 f   g_utils.obj
 0001:000c4340       _ShortestLineSegBewteen2LineSegs 200c5340 f   g_utils.obj
 0001:000c49a0       _GetAnglesForDirection     200c59a0 f   g_utils.obj
 0001:000c49f0       _Vehicle_SetAnim           200c59f0 f   g_vehicles.obj
 0001:000c4a40       _G_VehicleTrace            200c5a40 f   g_vehicles.obj
 0001:000c4a70       _G_IsRidingVehicle         200c5a70 f   g_vehicles.obj
 0001:000c4ad0       _G_CanJumpToEnemyVeh       200c5ad0 f   g_vehicles.obj
 0001:000c4ae0       _G_VehicleSpawn            200c5ae0 f   g_vehicles.obj
 0001:000c4c00       _G_AttachToVehicle         200c5c00 f   g_vehicles.obj
 0001:000c4d00       _Animate                   200c5d00 f   g_vehicles.obj
 0001:000c4d50       _ValidateBoard             200c5d50 f   g_vehicles.obj
 0001:000c4f50       _Board                     200c5f50 f   g_vehicles.obj
 0001:000c5560       _VEH_TryEject              200c6560 f   g_vehicles.obj
 0001:000c5840       _G_EjectDroidUnit          200c6840 f   g_vehicles.obj
 0001:000c5900       _Eject                     200c6900 f   g_vehicles.obj
 0001:000c5f70       _EjectAll                  200c6f70 f   g_vehicles.obj
 0001:000c6190       _RegisterAssets            200c7190 f   g_vehicles.obj
 0001:000c61a0       _Initialize                200c71a0 f   g_vehicles.obj
 0001:000c66a0       _G_VehicleDamageBoxSizing  200c76a0 f   g_vehicles.obj
 0001:000c6920       _G_FlyVehicleImpactDir     200c7920 f   g_vehicles.obj
 0001:000c6cd0       _G_ShipSurfaceForSurfName  200c7cd0 f   g_vehicles.obj
 0001:000c6df0       _G_SetVehDamageFlags       200c7df0 f   g_vehicles.obj
 0001:000c7110       _G_VehicleSetDamageLocFlags 200c8110 f   g_vehicles.obj
 0001:000c7350       _G_FlyVehicleDestroySurface 200c8350 f   g_vehicles.obj
 0001:000c7520       _G_FlyVehicleSurfaceDestruction 200c8520 f   g_vehicles.obj
 0001:000c76d0       _G_VehUpdateShields        200c86d0 f   g_vehicles.obj
 0001:000c7770       _G_SetSharedVehicleFunctions 200c8770 f   g_vehicles.obj
 0001:000c97e0       _SetParent                 200ca7e0 f i g_vehicles.obj
 0001:000c97f0       _SetPilot                  200ca7f0 f i g_vehicles.obj
 0001:000c9800       _Inhabited                 200ca800 f i g_vehicles.obj
 0001:000c9830       _VEH_TurretCheckFire       200ca830 f   g_vehicleTurret.obj
 0001:000c99c0       _VEH_TurretAnglesToEnemy   200ca9c0 f   g_vehicleTurret.obj
 0001:000c9b20       _VEH_TurretAim             200cab20 f   g_vehicleTurret.obj
 0001:000c9ee0       _VEH_TurretObeyPassengerControl 200caee0 f   g_vehicleTurret.obj
 0001:000ca000       _VEH_TurretThink           200cb000 f   g_vehicleTurret.obj
 0001:000ca860       _touch_NULL                200cb860 f   g_weapon.obj
 0001:000ca870       _WP_SpeedOfMissileForWeapon 200cb870 f   g_weapon.obj
 0001:000ca880       _W_TraceSetStart           200cb880 f   g_weapon.obj
 0001:000ca9e0       _WP_FireTurretMissile      200cb9e0 f   g_weapon.obj
 0001:000caa80       _WP_FireHadokenBlasterMissile 200cba80 f   g_weapon.obj
 0001:000cae70       _WP_FireGenericBlasterMissile 200cbe70 f   g_weapon.obj
 0001:000caf00       _WP_FireBlasterMissile     200cbf00 f   g_weapon.obj
 0001:000cafb0       _WP_FireTurboLaserMissile  200cbfb0 f   g_weapon.obj
 0001:000cb0e0       _WP_FireEmplacedMissile    200cc0e0 f   g_weapon.obj
 0001:000cb1a0       _G_CanDisruptify           200cc1a0 f   g_weapon.obj
 0001:000cb210       _WP_DisruptorAltFire       200cc210 f   g_weapon.obj
 0001:000cbb90       _WP_BowcasterMainFire      200ccb90 f   g_weapon.obj
 0001:000cbe10       _WP_RepeaterAltFire        200cce10 f   g_weapon.obj
 0001:000cbf70       _DEMP2_AltRadiusDamage     200ccf70 f   g_weapon.obj
 0001:000cc5a0       _DEMP2_AltDetonate         200cd5a0 f   g_weapon.obj
 0001:000cc690       _prox_mine_think           200cd690 f   g_weapon.obj
 0001:000cc7a0       _WP_ExplosiveDie           200cd7a0 f   g_weapon.obj
 0001:000cc7c0       _WP_flechette_alt_blow     200cd7c0 f   g_weapon.obj
 0001:000cc7f0       _rocketThink               200cd7f0 f   g_weapon.obj
 0001:000ccfc0       _RocketDie                 200cdfc0 f   g_weapon.obj
 0001:000cd010       _thermalDetonatorExplode   200ce010 f   g_weapon.obj
 0001:000cd1c0       _thermalThinkStandard      200ce1c0 f   g_weapon.obj
 0001:000cd210       _WP_FireThermalDetonator   200ce210 f   g_weapon.obj
 0001:000cd550       _WP_DropThermal            200ce550 f   g_weapon.obj
 0001:000cd590       _WP_LobFire                200ce590 f   g_weapon.obj
 0001:000cdb00       _laserTrapExplode          200ceb00 f   g_weapon.obj
 0001:000cdc20       _laserTrapDelayedExplode   200cec20 f   g_weapon.obj
 0001:000cdca0       _touchLaserTrap            200ceca0 f   g_weapon.obj
 0001:000cdd70       _proxMineThink             200ced70 f   g_weapon.obj
 0001:000cdf60       _laserTrapThink            200cef60 f   g_weapon.obj
 0001:000ce0a0       _laserTrapStick            200cf0a0 f   g_weapon.obj
 0001:000ce400       _TrapThink                 200cf400 f   g_weapon.obj
 0001:000ce430       _CreateLaserTrap           200cf430 f   g_weapon.obj
 0001:000ce730       _WP_PlaceLaserTrap         200cf730 f   g_weapon.obj
 0001:000ce9f0       _VectorNPos                200cf9f0 f   g_weapon.obj
 0001:000cea80       _charge_stick              200cfa80 f   g_weapon.obj
 0001:000cefb0       _DetPackBlow               200cffb0 f   g_weapon.obj
 0001:000cf0f0       _DetPackPain               200d00f0 f   g_weapon.obj
 0001:000cf130       _DetPackDie                200d0130 f   g_weapon.obj
 0001:000cf170       _drop_charge               200d0170 f   g_weapon.obj
 0001:000cf4c0       _BlowDetpacks              200d04c0 f   g_weapon.obj
 0001:000cf5d0       _CheatsOn                  200d05d0 f   g_weapon.obj
 0001:000cf5f0       _WP_DropDetPack            200d05f0 f   g_weapon.obj
 0001:000cf880       _WP_FireStunBaton          200d0880 f   g_weapon.obj
 0001:000cfb50       _WP_FireMelee              200d0b50 f   g_weapon.obj
 0001:000d02f0       _SnapVectorTowards         200d12f0 f   g_weapon.obj
 0001:000d0370       _LogAccuracyHit            200d1370 f   g_weapon.obj
 0001:000d03f0       _CalcMuzzlePoint           200d13f0 f   g_weapon.obj
 0001:000d0510       _CalcMuzzlePointOrigin     200d1510 f   g_weapon.obj
 0001:000d05b0       _WP_TouchVehMissile        200d15b0 f   g_weapon.obj
 0001:000d05f0       _WP_CalcVehMuzzle          200d15f0 f   g_weapon.obj
 0001:000d08a0       _WP_VehWeapSetSolidToOwner 200d18a0 f   g_weapon.obj
 0001:000d0910       _WP_FireVehicleWeapon      200d1910 f   g_weapon.obj
 0001:000d10b0       _G_VehMuzzleFireFX         200d20b0 f   g_weapon.obj
 0001:000d1130       _G_EstimateCamPos          200d2130 f   g_weapon.obj
 0001:000d14c0       _WP_GetVehicleCamPos       200d24c0 f   g_weapon.obj
 0001:000d1720       _WP_VehLeadCrosshairVeh    200d2720 f   g_weapon.obj
 0001:000d1810       _WP_VehCheckTraceFromCamPos 200d2810 f   g_weapon.obj
 0001:000d1b10       _FireVehicleWeapon         200d2b10 f   g_weapon.obj
 0001:000d2440       _FireWeapon                200d3440 f   g_weapon.obj
 0001:000d5170       _emplaced_gun_use          200d6170 f   g_weapon.obj
 0001:000d54b0       _emplaced_gun_realuse      200d64b0 f   g_weapon.obj
 0001:000d54d0       _emplaced_gun_pain         200d64d0 f   g_weapon.obj
 0001:000d5510       _emplaced_gun_update       200d6510 f   g_weapon.obj
 0001:000d5a70       _emplaced_gun_die          200d6a70 f   g_weapon.obj
 0001:000d5ab0       _SP_emplaced_gun           200d6ab0 f   g_weapon.obj
 0001:000d5e10       _CorpsePhysics             200d6e10 f   NPC.obj
 0001:000d5f70       _NPC_RemoveBody            200d6f70 f   NPC.obj
 0001:000d6270       _BodyRemovalPadTime        200d7270 f   NPC.obj
 0001:000d6300       _pitch_roll_for_slope      200d7300 f   NPC.obj
 0001:000d6660       _SetNPCGlobals             200d7660 f   NPC.obj
 0001:000d66a0       _SaveNPCGlobals            200d76a0 f   NPC.obj
 0001:000d66e0       _RestoreNPCGlobals         200d76e0 f   NPC.obj
 0001:000d6720       _ClearNPCGlobals           200d7720 f   NPC.obj
 0001:000d6750       _NPC_ShowDebugInfo         200d7750 f   NPC.obj
 0001:000d6850       _NPC_ApplyScriptFlags      200d7850 f   NPC.obj
 0001:000d69a0       _NPC_HandleAIFlags         200d79a0 f   NPC.obj
 0001:000d6ae0       _NPC_AvoidWallsAndCliffs   200d7ae0 f   NPC.obj
 0001:000d6af0       _NPC_CheckAttackScript     200d7af0 f   NPC.obj
 0001:000d6b20       _NPC_CheckAttackHold       200d7b20 f   NPC.obj
 0001:000d6c80       _NPC_KeepCurrentFacing     200d7c80 f   NPC.obj
 0001:000d6d00       _NPC_BehaviorSet_Charmed   200d7d00 f   NPC.obj
 0001:000d6d80       _NPC_BehaviorSet_Default   200d7d80 f   NPC.obj
 0001:000d6e40       _NPC_BehaviorSet_Interrogator 200d7e40 f   NPC.obj
 0001:000d6e90       _NPC_BehaviorSet_ImperialProbe 200d7e90 f   NPC.obj
 0001:000d6ee0       _NPC_BehaviorSet_Seeker    200d7ee0 f   NPC.obj
 0001:000d6f30       _NPC_BehaviorSet_Remote    200d7f30 f   NPC.obj
 0001:000d6f40       _NPC_BehaviorSet_Sentry    200d7f40 f   NPC.obj
 0001:000d6f90       _NPC_BehaviorSet_Grenadier 200d7f90 f   NPC.obj
 0001:000d6fe0       _NPC_BehaviorSet_Sniper    200d7fe0 f   NPC.obj
 0001:000d7030       _NPC_BehaviorSet_Stormtrooper 200d8030 f   NPC.obj
 0001:000d70a0       _NPC_BehaviorSet_Jedi      200d80a0 f   NPC.obj
 0001:000d7100       _NPC_BehaviorSet_Droid     200d8100 f   NPC.obj
 0001:000d7140       _NPC_BehaviorSet_Mark1     200d8140 f   NPC.obj
 0001:000d7180       _NPC_BehaviorSet_Mark2     200d8180 f   NPC.obj
 0001:000d71d0       _NPC_BehaviorSet_ATST      200d81d0 f   NPC.obj
 0001:000d7220       _NPC_BehaviorSet_MineMonster 200d8220 f   NPC.obj
 0001:000d7270       _NPC_BehaviorSet_Howler    200d8270 f   NPC.obj
 0001:000d72c0       _NPC_BehaviorSet_Rancor    200d82c0 f   NPC.obj
 0001:000d7310       _NPC_RunBehavior           200d8310 f   NPC.obj
 0001:000d7800       _NPC_ExecuteBState         200d8800 f   NPC.obj
 0001:000d7c30       _NPC_CheckInSolid          200d8c30 f   NPC.obj
 0001:000d7d60       _G_DroidSounds             200d8d60 f   NPC.obj
 0001:000d7f10       _NPC_Think                 200d8f10 f   NPC.obj
 0001:000d89f0       _NPC_InitAI                200d99f0 f   NPC.obj
 0001:000d8a00       _NPC_InitGame              200d9a00 f   NPC.obj
 0001:000d8a10       _NPC_SetAnim               200d9a10 f   NPC.obj
 0001:000d8a40       _NPC_ATST_Precache         200d9a40 f   NPC_AI_Atst.obj
 0001:000d8ab0       _G_ATSTCheckPain           200d9ab0 f   NPC_AI_Atst.obj
 0001:000d8af0       _NPC_ATST_Pain             200d9af0 f   NPC_AI_Atst.obj
 0001:000d8b20       _ATST_Hunt                 200d9b20 f   NPC_AI_Atst.obj
 0001:000d8b70       _ATST_Ranged               200d9b70 f   NPC_AI_Atst.obj
 0001:000d8c10       _ATST_Attack               200d9c10 f   NPC_AI_Atst.obj
 0001:000d8e10       _ATST_Patrol               200d9e10 f   NPC_AI_Atst.obj
 0001:000d8e70       _ATST_Idle                 200d9e70 f   NPC_AI_Atst.obj
 0001:000d8ea0       _NPC_BSATST_Default        200d9ea0 f   NPC_AI_Atst.obj
 0001:000d8f10       _NPC_LostEnemyDecideChase  200d9f10 f   NPC_AI_Default.obj
 0001:000d8f90       _NPC_StandIdle             200d9f90 f   NPC_AI_Default.obj
 0001:000d8fa0       _NPC_StandTrackAndShoot    200d9fa0 f   NPC_AI_Default.obj
 0001:000d90f0       _NPC_BSIdle                200da0f0 f   NPC_AI_Default.obj
 0001:000d9130       _NPC_BSRun                 200da130 f   NPC_AI_Default.obj
 0001:000d9160       _NPC_BSStandGuard          200da160 f   NPC_AI_Default.obj
 0001:000d9280       _NPC_BSHuntAndKill         200da280 f   NPC_AI_Default.obj
 0001:000d9580       _NPC_BSStandAndShoot       200da580 f   NPC_AI_Default.obj
 0001:000d9690       _NPC_BSRunAndShoot         200da690 f   NPC_AI_Default.obj
 0001:000d98b0       _NPC_BSFace                200da8b0 f   NPC_AI_Default.obj
 0001:000d9910       _NPC_BSPointShoot          200da910 f   NPC_AI_Default.obj
 0001:000d9c20       _NPC_BSMove                200dac20 f   NPC_AI_Default.obj
 0001:000d9c80       _NPC_BSShoot               200dac80 f   NPC_AI_Default.obj
 0001:000d9cd0       _NPC_BSPatrol              200dacd0 f   NPC_AI_Default.obj
 0001:000d9d80       _NPC_BSDefault             200dad80 f   NPC_AI_Default.obj
 0001:000da1f0       _R2D2_PartsMove            200db1f0 f   NPC_AI_Droid.obj
 0001:000da2e0       _Droid_Idle                200db2e0 f   NPC_AI_Droid.obj
 0001:000da2f0       _R2D2_TurnAnims            200db2f0 f   NPC_AI_Droid.obj
 0001:000da3f0       _Droid_Patrol              200db3f0 f   NPC_AI_Droid.obj
 0001:000da710       _Droid_Run                 200db710 f   NPC_AI_Droid.obj
 0001:000da7c0       _Droid_Spin                200db7c0 f   NPC_AI_Droid.obj
 0001:000daa20       _NPC_Droid_Pain            200dba20 f   NPC_AI_Droid.obj
 0001:000db0c0       _Droid_Pain                200dc0c0 f   NPC_AI_Droid.obj
 0001:000db0f0       _NPC_Mouse_Precache        200dc0f0 f   NPC_AI_Droid.obj
 0001:000db160       _NPC_R5D2_Precache         200dc160 f   NPC_AI_Droid.obj
 0001:000db200       _NPC_R2D2_Precache         200dc200 f   NPC_AI_Droid.obj
 0001:000db2a0       _NPC_Gonk_Precache         200dc2a0 f   NPC_AI_Droid.obj
 0001:000db300       _NPC_Protocol_Precache     200dc300 f   NPC_AI_Droid.obj
 0001:000db320       _NPC_BSDroid_Default       200dc320 f   NPC_AI_Droid.obj
 0001:000db3c0       _NPC_GalakMech_Precache    200dc3c0 f   NPC_AI_GalakMech.obj
 0001:000db450       _NPC_GalakMech_Init        200dc450 f   NPC_AI_GalakMech.obj
 0001:000db6a0       _GM_Dying                  200dc6a0 f   NPC_AI_GalakMech.obj
 0001:000dbd70       _NPC_GM_Pain               200dcd70 f   NPC_AI_GalakMech.obj
 0001:000dc080       _NPC_BSGM_Patrol           200dd080 f   NPC_AI_GalakMech.obj
 0001:000dc0d0       _NPC_GM_StartLaser         200dd0d0 f   NPC_AI_GalakMech.obj
 0001:000dc190       _GM_StartGloat             200dd190 f   NPC_AI_GalakMech.obj
 0001:000dc270       _NPC_BSGM_Attack           200dd270 f   NPC_AI_GalakMech.obj
 0001:000de290       _NPC_BSGM_Default          200df290 f   NPC_AI_GalakMech.obj
 0001:000de580       _Grenadier_ClearTimers     200df580 f   NPC_AI_Grenadier.obj
 0001:000de670       _NPC_Grenadier_PlayConfusionSound 200df670 f   NPC_AI_Grenadier.obj
 0001:000de710       _NPC_Grenadier_Pain        200df710 f   NPC_AI_Grenadier.obj
 0001:000de7a0       _NPC_BSGrenadier_Patrol    200df7a0 f   NPC_AI_Grenadier.obj
 0001:000deaf0       _Grenadier_EvaluateShot    200dfaf0 f   NPC_AI_Grenadier.obj
 0001:000deb50       _NPC_BSGrenadier_Attack    200dfb50 f   NPC_AI_Grenadier.obj
 0001:000df8d0       _NPC_BSGrenadier_Default   200e08d0 f   NPC_AI_Grenadier.obj
 0001:000df910       _NPC_Howler_Precache       200e0910 f   NPC_AI_Howler.obj
 0001:000df920       _Howler_Idle               200e0920 f   NPC_AI_Howler.obj
 0001:000df930       _Howler_Patrol             200e0930 f   NPC_AI_Howler.obj
 0001:000dfa50       _Howler_Move               200e0a50 f   NPC_AI_Howler.obj
 0001:000dfaa0       _Howler_TryDamage          200e0aa0 f   NPC_AI_Howler.obj
 0001:000dfbd0       _Howler_Attack             200e0bd0 f   NPC_AI_Howler.obj
 0001:000dfca0       _Howler_Combat             200e0ca0 f   NPC_AI_Howler.obj
 0001:000dfdd0       _NPC_Howler_Pain           200e0dd0 f   NPC_AI_Howler.obj
 0001:000dfe80       _NPC_BSHowler_Default      200e0e80 f   NPC_AI_Howler.obj
 0001:000dfed0       _NPC_Probe_Precache        200e0ed0 f   NPC_AI_ImperialProbe.obj
 0001:000dff90       _ImperialProbe_MaintainHeight 200e0f90 f   NPC_AI_ImperialProbe.obj
 0001:000e02f0       _ImperialProbe_Strafe      200e12f0 f   NPC_AI_ImperialProbe.obj
 0001:000e04c0       _ImperialProbe_Hunt        200e14c0 f   NPC_AI_ImperialProbe.obj
 0001:000e0650       _ImperialProbe_FireBlaster 200e1650 f   NPC_AI_ImperialProbe.obj
 0001:000e09d0       _ImperialProbe_Ranged      200e19d0 f   NPC_AI_ImperialProbe.obj
 0001:000e0a80       _ImperialProbe_AttackDecision 200e1a80 f   NPC_AI_ImperialProbe.obj
 0001:000e0c00       _NPC_Probe_Pain            200e1c00 f   NPC_AI_ImperialProbe.obj
 0001:000e0e60       _ImperialProbe_Idle        200e1e60 f   NPC_AI_ImperialProbe.obj
 0001:000e0e70       _ImperialProbe_Patrol      200e1e70 f   NPC_AI_ImperialProbe.obj
 0001:000e0fb0       _ImperialProbe_Wait        200e1fb0 f   NPC_AI_ImperialProbe.obj
 0001:000e10a0       _NPC_BSImperialProbe_Default 200e20a0 f   NPC_AI_ImperialProbe.obj
 0001:000e1110       _NPC_Interrogator_Precache 200e2110 f   NPC_AI_Interrogator.obj
 0001:000e1170       _Interrogator_die          200e2170 f   NPC_AI_Interrogator.obj
 0001:000e1200       _Interrogator_PartsMove    200e2200 f   NPC_AI_Interrogator.obj
 0001:000e14f0       _Interrogator_MaintainHeight 200e24f0 f   NPC_AI_Interrogator.obj
 0001:000e1880       _Interrogator_Strafe       200e2880 f   NPC_AI_Interrogator.obj
 0001:000e1ad0       _Interrogator_Hunt         200e2ad0 f   NPC_AI_Interrogator.obj
 0001:000e1c60       _Interrogator_Melee        200e2c60 f   NPC_AI_Interrogator.obj
 0001:000e1da0       _Interrogator_Attack       200e2da0 f   NPC_AI_Interrogator.obj
 0001:000e1f10       _Interrogator_Idle         200e2f10 f   NPC_AI_Interrogator.obj
 0001:000e1f50       _NPC_BSInterrogator_Default 200e2f50 f   NPC_AI_Interrogator.obj
 0001:000e1f70       _G_StartMatrixEffect       200e2f70 f   NPC_AI_Jedi.obj
 0001:000e1f80       _NPC_ShadowTrooper_Precache 200e2f80 f   NPC_AI_Jedi.obj
 0001:000e1fc0       _Jedi_ClearTimers          200e2fc0 f   NPC_AI_Jedi.obj
 0001:000e2180       _Jedi_PlayBlockedPushSound 200e3180 f   NPC_AI_Jedi.obj
 0001:000e2210       _Jedi_PlayDeflectSound     200e3210 f   NPC_AI_Jedi.obj
 0001:000e22c0       _NPC_Jedi_PlayConfusionSound 200e32c0 f   NPC_AI_Jedi.obj
 0001:000e2380       _Boba_Precache             200e3380 f   NPC_AI_Jedi.obj
 0001:000e23d0       _Boba_ChangeWeapon         200e33d0 f   NPC_AI_Jedi.obj
 0001:000e2420       _WP_ResistForcePush        200e3420 f   NPC_AI_Jedi.obj
 0001:000e27a0       _Boba_StopKnockdown        200e37a0 f   NPC_AI_Jedi.obj
 0001:000e29e0       _Boba_FlyStart             200e39e0 f   NPC_AI_Jedi.obj
 0001:000e2ad0       _Boba_FlyStop              200e3ad0 f   NPC_AI_Jedi.obj
 0001:000e2bc0       _Boba_Flying               200e3bc0 f   NPC_AI_Jedi.obj
 0001:000e2be0       _Boba_FireFlameThrower     200e3be0 f   NPC_AI_Jedi.obj
 0001:000e2ef0       _Boba_StartFlameThrower    200e3ef0 f   NPC_AI_Jedi.obj
 0001:000e3010       _Boba_DoFlameThrower       200e4010 f   NPC_AI_Jedi.obj
 0001:000e3070       _Boba_FireDecide           200e4070 f   NPC_AI_Jedi.obj
 0001:000e3bd0       _Jedi_Cloak                200e4bd0 f   NPC_AI_Jedi.obj
 0001:000e3c30       _Jedi_Decloak              200e4c30 f   NPC_AI_Jedi.obj
 0001:000e3c90       _Jedi_CheckCloak           200e4c90 f   NPC_AI_Jedi.obj
 0001:000e3d70       _NPC_Jedi_RateNewEnemy     200e4d70 f   NPC_AI_Jedi.obj
 0001:000e3f90       _Jedi_RageStop             200e4f90 f   NPC_AI_Jedi.obj
 0001:000e3fd0       _NPC_MoveDirClear          200e4fd0 f   NPC_AI_Jedi.obj
 0001:000e4400       _Jedi_CheckFlipEvasions    200e5400 f   NPC_AI_Jedi.obj
 0001:000e5320       _Jedi_ReCalcParryTime      200e6320 f   NPC_AI_Jedi.obj
 0001:000e55f0       _Jedi_QuickReactions       200e65f0 f   NPC_AI_Jedi.obj
 0001:000e5670       _Jedi_SaberBusy            200e6670 f   NPC_AI_Jedi.obj
 0001:000e5750       _Jedi_SaberBlockGo         200e6750 f   NPC_AI_Jedi.obj
 0001:000e6ca0       _Jedi_FindEnemyInCone      200e7ca0 f   NPC_AI_Jedi.obj
 0001:000e6f80       _NPC_Jedi_Pain             200e7f80 f   NPC_AI_Jedi.obj
 0001:000e74a0       _Jedi_CheckDanger          200e84a0 f   NPC_AI_Jedi.obj
 0001:000e75a0       _Jedi_CheckAmbushPlayer    200e85a0 f   NPC_AI_Jedi.obj
 0001:000e77c0       _Jedi_Ambush               200e87c0 f   NPC_AI_Jedi.obj
 0001:000e7850       _Jedi_WaitingAmbush        200e8850 f   NPC_AI_Jedi.obj
 0001:000e7880       _Jedi_CanPullBackSaber     200e8880 f   NPC_AI_Jedi.obj
 0001:000e7940       _NPC_BSJedi_FollowLeader   200e8940 f   NPC_AI_Jedi.obj
 0001:000e8cb0       _NPC_BSJedi_Default        200e9cb0 f   NPC_AI_Jedi.obj
 0001:000f0610       _NPC_Mark1_Precache        200f1610 f   NPC_AI_Mark1.obj
 0001:000f0730       _NPC_Mark1_Part_Explode    200f1730 f   NPC_AI_Mark1.obj
 0001:000f07f0       _Mark1_Idle                200f17f0 f   NPC_AI_Mark1.obj
 0001:000f0820       _Mark1Dead_FireRocket      200f1820 f   NPC_AI_Mark1.obj
 0001:000f0a10       _Mark1Dead_FireBlaster     200f1a10 f   NPC_AI_Mark1.obj
 0001:000f0b60       _Mark1_die                 200f1b60 f   NPC_AI_Mark1.obj
 0001:000f0bd0       _Mark1_dying               200f1bd0 f   NPC_AI_Mark1.obj
 0001:000f0ef0       _NPC_Mark1_Pain            200f1ef0 f   NPC_AI_Mark1.obj
 0001:000f1180       _Mark1_Hunt                200f2180 f   NPC_AI_Mark1.obj
 0001:000f11d0       _Mark1_FireBlaster         200f21d0 f   NPC_AI_Mark1.obj
 0001:000f1480       _Mark1_BlasterAttack       200f2480 f   NPC_AI_Mark1.obj
 0001:000f1600       _Mark1_FireRocket          200f2600 f   NPC_AI_Mark1.obj
 0001:000f1820       _Mark1_RocketAttack        200f2820 f   NPC_AI_Mark1.obj
 0001:000f1890       _Mark1_AttackDecision      200f2890 f   NPC_AI_Mark1.obj
 0001:000f1ae0       _Mark1_Patrol              200f2ae0 f   NPC_AI_Mark1.obj
 0001:000f1b60       _NPC_BSMark1_Default       200f2b60 f   NPC_AI_Mark1.obj
 0001:000f1bc0       _NPC_Mark2_Precache        200f2bc0 f   NPC_AI_Mark2.obj
 0001:000f1c80       _NPC_Mark2_Part_Explode    200f2c80 f   NPC_AI_Mark2.obj
 0001:000f1d50       _NPC_Mark2_Pain            200f2d50 f   NPC_AI_Mark2.obj
 0001:000f1e80       _Mark2_Hunt                200f2e80 f   NPC_AI_Mark2.obj
 0001:000f1ed0       _Mark2_FireBlaster         200f2ed0 f   NPC_AI_Mark2.obj
 0001:000f20a0       _Mark2_BlasterAttack       200f30a0 f   NPC_AI_Mark2.obj
 0001:000f2130       _Mark2_AttackDecision      200f3130 f   NPC_AI_Mark2.obj
 0001:000f25e0       _Mark2_Patrol              200f35e0 f   NPC_AI_Mark2.obj
 0001:000f2680       _Mark2_Idle                200f3680 f   NPC_AI_Mark2.obj
 0001:000f2690       _NPC_BSMark2_Default       200f3690 f   NPC_AI_Mark2.obj
 0001:000f26f0       _NPC_MineMonster_Precache  200f36f0 f   NPC_AI_MineMonster.obj
 0001:000f2750       _MineMonster_Idle          200f3750 f   NPC_AI_MineMonster.obj
 0001:000f2780       _MineMonster_Patrol        200f3780 f   NPC_AI_MineMonster.obj
 0001:000f28a0       _MineMonster_Move          200f38a0 f   NPC_AI_MineMonster.obj
 0001:000f28f0       _MineMonster_TryDamage     200f38f0 f   NPC_AI_MineMonster.obj
 0001:000f2a60       _MineMonster_Attack        200f3a60 f   NPC_AI_MineMonster.obj
 0001:000f2d50       _MineMonster_Combat        200f3d50 f   NPC_AI_MineMonster.obj
 0001:000f2e80       _NPC_MineMonster_Pain      200f3e80 f   NPC_AI_MineMonster.obj
 0001:000f2f90       _NPC_BSMineMonster_Default 200f3f90 f   NPC_AI_MineMonster.obj
 0001:000f2fe0       _Rancor_SetBolts           200f3fe0 f   NPC_AI_Rancor.obj
 0001:000f30a0       _NPC_Rancor_Precache       200f40a0 f   NPC_AI_Rancor.obj
 0001:000f3100       _Rancor_Idle               200f4100 f   NPC_AI_Rancor.obj
 0001:000f3140       _Rancor_CheckRoar          200f4140 f   NPC_AI_Rancor.obj
 0001:000f31d0       _Rancor_Patrol             200f41d0 f   NPC_AI_Rancor.obj
 0001:000f32c0       _Rancor_Move               200f42c0 f   NPC_AI_Rancor.obj
 0001:000f3340       _Rancor_DropVictim         200f4340 f   NPC_AI_Rancor.obj
 0001:000f3590       _Rancor_Swing              200f4590 f   NPC_AI_Rancor.obj
 0001:000f3b70       _Rancor_Smash              200f4b70 f   NPC_AI_Rancor.obj
 0001:000f3dc0       _Rancor_Bite               200f4dc0 f   NPC_AI_Rancor.obj
 0001:000f4000       _Rancor_Attack             200f5000 f   NPC_AI_Rancor.obj
 0001:000f4a50       _Rancor_Combat             200f5a50 f   NPC_AI_Rancor.obj
 0001:000f4d70       _NPC_Rancor_Pain           200f5d70 f   NPC_AI_Rancor.obj
 0001:000f50e0       _Rancor_CheckDropVictim    200f60e0 f   NPC_AI_Rancor.obj
 0001:000f5250       _Rancor_Crush              200f6250 f   NPC_AI_Rancor.obj
 0001:000f5300       _NPC_BSRancor_Default      200f6300 f   NPC_AI_Rancor.obj
 0001:000f5850       _NPC_Remote_Precache       200f6850 f   NPC_AI_Remote.obj
 0001:000f5880       _NPC_Remote_Pain           200f6880 f   NPC_AI_Remote.obj
 0001:000f58c0       _Remote_MaintainHeight     200f68c0 f   NPC_AI_Remote.obj
 0001:000f5c70       _Remote_Strafe             200f6c70 f   NPC_AI_Remote.obj
 0001:000f5e60       _Remote_Hunt               200f6e60 f   NPC_AI_Remote.obj
 0001:000f5ff0       _Remote_Fire               200f6ff0 f   NPC_AI_Remote.obj
 0001:000f6130       _Remote_Ranged             200f7130 f   NPC_AI_Remote.obj
 0001:000f61a0       _Remote_Attack             200f71a0 f   NPC_AI_Remote.obj
 0001:000f6340       _Remote_Idle               200f7340 f   NPC_AI_Remote.obj
 0001:000f6350       _Remote_Patrol             200f7350 f   NPC_AI_Remote.obj
 0001:000f63a0       _NPC_BSRemote_Default      200f73a0 f   NPC_AI_Remote.obj
 0001:000f63e0       _NPC_Seeker_Precache       200f73e0 f   NPC_AI_Seeker.obj
 0001:000f6410       _NPC_Seeker_Pain           200f7410 f   NPC_AI_Seeker.obj
 0001:000f6480       _Seeker_MaintainHeight     200f7480 f   NPC_AI_Seeker.obj
 0001:000f6880       _Seeker_Strafe             200f7880 f   NPC_AI_Seeker.obj
 0001:000f6e50       _Seeker_Hunt               200f7e50 f   NPC_AI_Seeker.obj
 0001:000f6fd0       _Seeker_Fire               200f7fd0 f   NPC_AI_Seeker.obj
 0001:000f7140       _Seeker_Ranged             200f8140 f   NPC_AI_Seeker.obj
 0001:000f7220       _Seeker_Attack             200f8220 f   NPC_AI_Seeker.obj
 0001:000f7310       _Seeker_FindEnemy          200f8310 f   NPC_AI_Seeker.obj
 0001:000f7510       _Seeker_FollowOwner        200f8510 f   NPC_AI_Seeker.obj
 0001:000f7900       _NPC_BSSeeker_Default      200f8900 f   NPC_AI_Seeker.obj
 0001:000f7a90       _NPC_Sentry_Precache       200f8a90 f   NPC_AI_Sentry.obj
 0001:000f7b50       _sentry_use                200f8b50 f   NPC_AI_Sentry.obj
 0001:000f7bb0       _NPC_Sentry_Pain           200f8bb0 f   NPC_AI_Sentry.obj
 0001:000f7c80       _Sentry_Fire               200f8c80 f   NPC_AI_Sentry.obj
 0001:000f7fc0       _Sentry_MaintainHeight     200f8fc0 f   NPC_AI_Sentry.obj
 0001:000f84b0       _Sentry_Idle               200f94b0 f   NPC_AI_Sentry.obj
 0001:000f8540       _Sentry_Strafe             200f9540 f   NPC_AI_Sentry.obj
 0001:000f8710       _Sentry_Hunt               200f9710 f   NPC_AI_Sentry.obj
 0001:000f8890       _Sentry_RangedAttack       200f9890 f   NPC_AI_Sentry.obj
 0001:000f8a00       _Sentry_AttackDecision     200f9a00 f   NPC_AI_Sentry.obj
 0001:000f8bb0       _NPC_Sentry_Patrol         200f9bb0 f   NPC_AI_Sentry.obj
 0001:000f8c80       _NPC_BSSentry_Default      200f9c80 f   NPC_AI_Sentry.obj
 0001:000f8cf0       _Sniper_ClearTimers        200f9cf0 f   NPC_AI_Sniper.obj
 0001:000f8de0       _NPC_Sniper_PlayConfusionSound 200f9de0 f   NPC_AI_Sniper.obj
 0001:000f8e80       _NPC_Sniper_Pain           200f9e80 f   NPC_AI_Sniper.obj
 0001:000f8f10       _NPC_BSSniper_Patrol       200f9f10 f   NPC_AI_Sniper.obj
 0001:000f92a0       _Sniper_EvaluateShot       200fa2a0 f   NPC_AI_Sniper.obj
 0001:000f9360       _Sniper_FaceEnemy          200fa360 f   NPC_AI_Sniper.obj
 0001:000f98f0       _Sniper_UpdateEnemyPos     200fa8f0 f   NPC_AI_Sniper.obj
 0001:000f9a10       _Sniper_StartHide          200faa10 f   NPC_AI_Sniper.obj
 0001:000f9a90       _NPC_BSSniper_Attack       200faa90 f   NPC_AI_Sniper.obj
 0001:000faa00       _NPC_BSSniper_Default      200fba00 f   NPC_AI_Sniper.obj
 0001:000faa20       _ST_AggressionAdjust       200fba20 f   NPC_AI_Stormtrooper.obj
 0001:000faad0       _ST_ClearTimers            200fbad0 f   NPC_AI_Stormtrooper.obj
 0001:000fabe0       _ST_MarkToCover            200fbbe0 f   NPC_AI_Stormtrooper.obj
 0001:000fb060       _ST_StartFlee              200fc060 f   NPC_AI_Stormtrooper.obj
 0001:000fb0d0       _NPC_ST_Pain               200fc0d0 f   NPC_AI_Stormtrooper.obj
 0001:000fb170       _NPC_ST_SayMovementSpeech  200fc170 f   NPC_AI_Stormtrooper.obj
 0001:000fb270       _NPC_ST_StoreMovementSpeech 200fc270 f   NPC_AI_Stormtrooper.obj
 0001:000fb2a0       _NPC_BSST_Sleep            200fc2a0 f   NPC_AI_Stormtrooper.obj
 0001:000fb3c0       _NPC_CheckEnemyStealth     200fc3c0 f   NPC_AI_Stormtrooper.obj
 0001:000fbc50       _NPC_CheckPlayerTeamStealth 200fcc50 f   NPC_AI_Stormtrooper.obj
 0001:000fbd00       _NPC_BSST_Investigate      200fcd00 f   NPC_AI_Stormtrooper.obj
 0001:000fc7d0       _NPC_BSST_Patrol           200fd7d0 f   NPC_AI_Stormtrooper.obj
 0001:000fcaf0       _ST_ResolveBlockedShot     200fdaf0 f   NPC_AI_Stormtrooper.obj
 0001:000fcc90       _ST_TrackEnemy             200fdc90 f   NPC_AI_Stormtrooper.obj
 0001:000fcd70       _ST_ApproachEnemy          200fdd70 f   NPC_AI_Stormtrooper.obj
 0001:000fce30       _ST_HuntEnemy              200fde30 f   NPC_AI_Stormtrooper.obj
 0001:000fcf00       _ST_TransferTimers         200fdf00 f   NPC_AI_Stormtrooper.obj
 0001:000fd070       _ST_TransferMoveGoal       200fe070 f   NPC_AI_Stormtrooper.obj
 0001:000fd210       _ST_GetCPFlags             200fe210 f   NPC_AI_Stormtrooper.obj
 0001:000fd450       _ST_Commander              200fe450 f   NPC_AI_Stormtrooper.obj
 0001:000fe7a0       _NPC_BSST_Attack           200ff7a0 f   NPC_AI_Stormtrooper.obj
 0001:000ffbd0       _NPC_BSST_Default          20100bd0 f   NPC_AI_Stormtrooper.obj
 0001:000ffc20       _AI_GetGroupSize           20100c20 f   NPC_AI_Utils.obj
 0001:000ffd40       _AI_GetGroupSize2          20100d40 f   NPC_AI_Utils.obj
 0001:000ffd90       _AI_ClosestGroupEntityNumToPoint 20100d90 f   NPC_AI_Utils.obj
 0001:000ffe60       _AI_SetClosestBuddy        20100e60 f   NPC_AI_Utils.obj
 0001:000fff90       _AI_SortGroupByPathCostToEnemy 20100f90 f   NPC_AI_Utils.obj
 0001:00100270       _AI_FindSelfInPreviousGroup 20101270 f   NPC_AI_Utils.obj
 0001:00100320       _AI_InsertGroupMember      20101320 f   NPC_AI_Utils.obj
 0001:00100400       _AI_TryJoinPreviousGroup   20101400 f   NPC_AI_Utils.obj
 0001:001004b0       _AI_GetNextEmptyGroup      201014b0 f   NPC_AI_Utils.obj
 0001:00100550       _AI_ValidateNoEnemyGroupMember 20101550 f   NPC_AI_Utils.obj
 0001:00100650       _AI_ValidateGroupMember    20101650 f   NPC_AI_Utils.obj
 0001:001008f0       _AI_GetGroup               201018f0 f   NPC_AI_Utils.obj
 0001:00100c60       _AI_SetNewGroupCommander   20101c60 f   NPC_AI_Utils.obj
 0001:00100d10       _AI_DeleteGroupMember      20101d10 f   NPC_AI_Utils.obj
 0001:00100e30       _AI_DeleteSelfFromGroup    20101e30 f   NPC_AI_Utils.obj
 0001:00100ea0       _AI_GroupMemberKilled      20101ea0 f   NPC_AI_Utils.obj
 0001:001011c0       _AI_GroupUpdateEnemyLastSeen 201021c0 f   NPC_AI_Utils.obj
 0001:00101200       _AI_GroupUpdateClearShotTime 20102200 f   NPC_AI_Utils.obj
 0001:00101220       _AI_GroupUpdateSquadstates 20102220 f   NPC_AI_Utils.obj
 0001:001012f0       _AI_RefreshGroup           201022f0 f   NPC_AI_Utils.obj
 0001:00101870       _AI_UpdateGroups           20102870 f   NPC_AI_Utils.obj
 0001:001018f0       _AI_GroupContainsEntNum    201028f0 f   NPC_AI_Utils.obj
 0001:00101940       _AI_CheckEnemyCollision    20102940 f   NPC_AI_Utils.obj
 0001:001019c0       _AI_DistributeAttack       201029c0 f   NPC_AI_Utils.obj
 0001:00101b80       _Wampa_SetBolts            20102b80 f   NPC_AI_Wampa.obj
 0001:00101cb0       _NPC_Wampa_Precache        20102cb0 f   NPC_AI_Wampa.obj
 0001:00101cd0       _Wampa_Idle                20102cd0 f   NPC_AI_Wampa.obj
 0001:00101d10       _Wampa_CheckRoar           20102d10 f   NPC_AI_Wampa.obj
 0001:00101da0       _Wampa_Patrol              20102da0 f   NPC_AI_Wampa.obj
 0001:00101e90       _Wampa_Move                20102e90 f   NPC_AI_Wampa.obj
 0001:001020b0       _Wampa_Slash               201030b0 f   NPC_AI_Wampa.obj
 0001:001025d0       _Wampa_Attack              201035d0 f   NPC_AI_Wampa.obj
 0001:001029c0       _Wampa_Combat              201039c0 f   NPC_AI_Wampa.obj
 0001:00102d10       _NPC_Wampa_Pain            20103d10 f   NPC_AI_Wampa.obj
 0001:00103090       _NPC_BSWampa_Default       20104090 f   NPC_AI_Wampa.obj
 0001:001035c0       _NPC_BSAdvanceFight        201045c0 f   NPC_behavior.obj
 0001:00103bf0       _Disappear                 20104bf0 f   NPC_behavior.obj
 0001:00103c30       _BeamOut                   20104c30 f   NPC_behavior.obj
 0001:00103c90       _NPC_BSCinematic           20104c90 f   NPC_behavior.obj
 0001:00103d80       _NPC_BSWait                20104d80 f   NPC_behavior.obj
 0001:00103da0       _NPC_BSInvestigate         20104da0 f   NPC_behavior.obj
 0001:00103db0       _NPC_CheckInvestigate      20104db0 f   NPC_behavior.obj
 0001:00104080       _NPC_BSSleep               20105080 f   NPC_behavior.obj
 0001:001040c0       _NPC_BSFollowLeader        201050c0 f   NPC_behavior.obj
 0001:00104b00       _NPC_BSJump                20105b00 f   NPC_behavior.obj
 0001:001052c0       _NPC_BSRemove              201062c0 f   NPC_behavior.obj
 0001:00105390       _NPC_BSSearch              20106390 f   NPC_behavior.obj
 0001:001058c0       _NPC_BSSearchStart         201068c0 f   NPC_behavior.obj
 0001:00105980       _NPC_BSNoClip              20106980 f   NPC_behavior.obj
 0001:00105b50       _NPC_BSWander              20106b50 f   NPC_behavior.obj
 0001:00105ee0       _NPC_Surrender             20106ee0 f   NPC_behavior.obj
 0001:00105f80       _NPC_CheckSurrender        20106f80 f   NPC_behavior.obj
 0001:00106250       _NPC_BSFlee                20107250 f   NPC_behavior.obj
 0001:00106610       _NPC_StartFlee             20107610 f   NPC_behavior.obj
 0001:00106910       _G_StartFlee               20107910 f   NPC_behavior.obj
 0001:00106960       _NPC_BSEmplaced            20107960 f   NPC_behavior.obj
 0001:00106bf0       _G_ClearEnemy              20107bf0 f   NPC_combat.obj
 0001:00106c90       _G_AngerAlert              20107c90 f   NPC_combat.obj
 0001:00106d00       _G_TeamEnemy               20107d00 f   NPC_combat.obj
 0001:00106e30       _G_AttackDelay             20107e30 f   NPC_combat.obj
 0001:001072c0       _G_ForceSaberOn            201082c0 f   NPC_combat.obj
 0001:00107380       _G_SetEnemy                20108380 f   NPC_combat.obj
 0001:00107780       _ChangeWeapon              20108780 f   NPC_combat.obj
 0001:00107f30       _NPC_ChangeWeapon          20108f30 f   NPC_combat.obj
 0001:00107f40       _NPC_ApplyWeaponFireDelay  20108f40 f   NPC_combat.obj
 0001:00107fc0       _ShootThink                20108fc0 f   NPC_combat.obj
 0001:001081f0       _WeaponThink               201091f0 f   NPC_combat.obj
 0001:001082a0       _HaveWeapon                201092a0 f   NPC_combat.obj
 0001:001082c0       _EntIsGlass                201092c0 f   NPC_combat.obj
 0001:00108310       _ShotThroughGlass          20109310 f   NPC_combat.obj
 0001:001083a0       _CanShoot                  201093a0 f   NPC_combat.obj
 0001:001085c0       _NPC_CheckPossibleEnemy    201095c0 f   NPC_combat.obj
 0001:00108770       _NPC_AttackDebounceForWeapon 20109770 f   NPC_combat.obj
 0001:001087a0       _NPC_MaxDistSquaredForWeapon 201097a0 f   NPC_combat.obj
 0001:001088f0       _ValidEnemy                201098f0 f   NPC_combat.obj
 0001:00108a30       _NPC_EnemyTooFar           20109a30 f   NPC_combat.obj
 0001:00108b10       _NPC_PickEnemy             20109b10 f   NPC_combat.obj
 0001:001093e0       _NPC_PickAlly              2010a3e0 f   NPC_combat.obj
 0001:00109710       _NPC_CheckEnemy            2010a710 f   NPC_combat.obj
 0001:00109ae0       _NPC_ClearShot             2010aae0 f   NPC_combat.obj
 0001:00109be0       _NPC_ShotEntity            2010abe0 f   NPC_combat.obj
 0001:00109dc0       _NPC_EvaluateShot          2010adc0 f   NPC_combat.obj
 0001:00109e20       _NPC_CheckAttack           2010ae20 f   NPC_combat.obj
 0001:00109e80       _NPC_CheckDefend           2010ae80 f   NPC_combat.obj
 0001:00109ef0       _NPC_CheckCanAttack        2010aef0 f   NPC_combat.obj
 0001:0010a500       _IdealDistance             2010b500 f   NPC_combat.obj
 0001:0010a570       _SP_point_combat           2010b570 f   NPC_combat.obj
 0001:0010a6a0       _CP_FindCombatPointWaypoints 2010b6a0 f   NPC_combat.obj
 0001:0010a720       _NPC_FindCombatPoint       2010b720 f   NPC_combat.obj
 0001:0010af90       _NPC_FindSquadPoint        2010bf90 f   NPC_combat.obj
 0001:0010b020       _NPC_ReserveCombatPoint    2010c020 f   NPC_combat.obj
 0001:0010b060       _NPC_FreeCombatPoint       2010c060 f   NPC_combat.obj
 0001:0010b0b0       _NPC_SetCombatPoint        2010c0b0 f   NPC_combat.obj
 0001:0010b110       _NPC_SearchForWeapons      2010c110 f   NPC_combat.obj
 0001:0010b2c0       _NPC_SetPickUpGoal         2010c2c0 f   NPC_combat.obj
 0001:0010b380       _NPC_CheckGetNewWeapon     2010c380 f   NPC_combat.obj
 0001:0010b460       _NPC_AimAdjust             2010c460 f   NPC_combat.obj
 0001:0010b590       _G_AimSet                  2010c590 f   NPC_combat.obj
 0001:0010b600       _SetGoal                   2010c600 f   NPC_goal.obj
 0001:0010b630       _NPC_SetGoal               2010c630 f   NPC_goal.obj
 0001:0010b6a0       _NPC_ClearGoal             2010c6a0 f   NPC_goal.obj
 0001:0010b720       _G_BoundsOverlap           2010c720 f   NPC_goal.obj
 0001:0010b7b0       _NPC_ReachedGoal           2010c7b0 f   NPC_goal.obj
 0001:0010b800       _ReachedGoal               2010c800 f   NPC_goal.obj
 0001:0010b890       _UpdateGoal                2010c890 f   NPC_goal.obj
 0001:0010b900       _Debug_Printf              2010c900 f   NPC_misc.obj
 0001:0010b9b0       _Debug_NPCPrintf           2010c9b0 f   NPC_misc.obj
 0001:0010ba70       _NPC_ClearPathToGoal       2010ca70 f   NPC_move.obj
 0001:0010bc90       _NAV_GetLastMove           2010cc90 f   NPC_move.obj
 0001:0010bcb0       _NPC_GetMoveDirection      2010ccb0 f   NPC_move.obj
 0001:0010bf40       _NPC_GetMoveDirectionAltRoute 2010cf40 f   NPC_move.obj
 0001:0010c1d0       _G_UcmdMoveForDir          2010d1d0 f   NPC_move.obj
 0001:0010c330       _NPC_MoveToGoal            2010d330 f   NPC_move.obj
 0001:0010c4f0       _NPC_SlideMoveToGoal       2010d4f0 f   NPC_move.obj
 0001:0010c540       _NPC_ApplyRoff             2010d540 f   NPC_move.obj
 0001:0010c570       _NPC_GetMoveInformation    2010d570 f i NPC_move.obj
 0001:0010c670       _NPC_CheckCombatMove       2010d670 f i NPC_move.obj
 0001:0010c700       _NPC_SetPainEvent          2010d700 f   NPC_reactions.obj
 0001:0010c790       _NPC_GetPainChance         2010d790 f   NPC_reactions.obj
 0001:0010c880       _NPC_ChoosePainAnimation   2010d880 f   NPC_reactions.obj
 0001:0010ccc0       _NPC_Pain                  2010dcc0 f   NPC_reactions.obj
 0001:0010d300       _NPC_Touch                 2010e300 f   NPC_reactions.obj
 0001:0010d440       _NPC_TempLookTarget        2010e440 f   NPC_reactions.obj
 0001:0010d4c0       _NPC_Respond               2010e4c0 f   NPC_reactions.obj
 0001:0010dbc0       _NPC_UseResponse           2010ebc0 f   NPC_reactions.obj
 0001:0010dca0       _NPC_Use                   2010eca0 f   NPC_reactions.obj
 0001:0010de10       _NPC_CheckPlayerAim        2010ee10 f   NPC_reactions.obj
 0001:0010de20       _NPC_CheckAllClear         2010ee20 f   NPC_reactions.obj
 0001:0010de30       _G_ClearLineOfSight        2010ee30 f   NPC_senses.obj
 0001:0010def0       _CanSee                    2010eef0 f   NPC_senses.obj
 0001:0010e060       _InFront                   2010f060 f   NPC_senses.obj
 0001:0010e120       _InFOV3                    2010f120 f   NPC_senses.obj
 0001:0010e1e0       _InFOV2                    2010f1e0 f   NPC_senses.obj
 0001:0010e280       _InFOV                     2010f280 f   NPC_senses.obj
 0001:0010e5a0       _InVisrange                2010f5a0 f   NPC_senses.obj
 0001:0010e660       _NPC_CheckVisibility       2010f660 f   NPC_senses.obj
 0001:0010e790       _G_GetLightLevel           2010f790 f   NPC_senses.obj
 0001:0010e7b0       _G_CheckAlertEvents        2010f7b0 f   NPC_senses.obj
 0001:0010ecc0       _NPC_CheckAlertEvents      2010fcc0 f   NPC_senses.obj
 0001:0010ed00       _G_CheckForDanger          2010fd00 f   NPC_senses.obj
 0001:0010ee00       _NPC_CheckForDanger        2010fe00 f   NPC_senses.obj
 0001:0010ee20       _AddSoundEvent             2010fe20 f   NPC_senses.obj
 0001:0010ef50       _AddSightEvent             2010ff50 f   NPC_senses.obj
 0001:0010f060       _ClearPlayerAlertEvents    20110060 f   NPC_senses.obj
 0001:0010f160       _RemoveOldestAlert         20110160 f   NPC_senses.obj
 0001:0010f250       _G_ClearLOS                20110250 f   NPC_senses.obj
 0001:0010f320       _G_ClearLOS2               20110320 f   NPC_senses.obj
 0001:0010f350       _G_ClearLOS3               20110350 f   NPC_senses.obj
 0001:0010f3c0       _G_ClearLOS4               201103c0 f   NPC_senses.obj
 0001:0010f3f0       _G_ClearLOS5               201103f0 f   NPC_senses.obj
 0001:0010f420       _NPC_GetHFOVPercentage     20110420 f   NPC_senses.obj
 0001:0010f4a0       _NPC_GetVFOVPercentage     201104a0 f   NPC_senses.obj
 0001:0010f520       _G_FindLocalInterestPoint  20110520 f   NPC_senses.obj
 0001:0010f6f0       _SP_target_interest        201106f0 f   NPC_senses.obj
 0001:0010f7c0       _G_AddVoiceEvent           201107c0 f   NPC_sounds.obj
 0001:0010f8d0       _NPC_PlayConfusionSound    201108d0 f   NPC_sounds.obj
 0001:0010f9f0       _WP_SetSaberModel          201109f0 f   NPC_spawn.obj
 0001:0010fa00       _NPC_PainFunc              20110a00 f   NPC_spawn.obj
 0001:0010fb60       _NPC_TouchFunc             20110b60 f   NPC_spawn.obj
 0001:0010fb80       _NPC_SetMiscDefaultData    20110b80 f   NPC_spawn.obj
 0001:00110370       _NPC_WeaponsForTeam        20111370 f   NPC_spawn.obj
 0001:00110910       _NPC_SetWeapons            20111910 f   NPC_spawn.obj
 0001:00110a40       _NPC_SpawnEffect           20111a40 f   NPC_spawn.obj
 0001:00110a50       _NPC_SetFX_SpawnStates     20111a50 f   NPC_spawn.obj
 0001:00110a90       _NPC_SpotWouldTelefrag     20111a90 f   NPC_spawn.obj
 0001:00110be0       _NPC_Begin                 20111be0 f   NPC_spawn.obj
 0001:00111a40       _New_NPC_t                 20112a40 f   NPC_spawn.obj
 0001:00111aa0       _NPC_DefaultScriptFlags    20112aa0 f   NPC_spawn.obj
 0001:00111ad0       _NPC_Spawn_Do              20112ad0 f   NPC_spawn.obj
 0001:00112a60       _NPC_Spawn_Go              20113a60 f   NPC_spawn.obj
 0001:00112a80       _NPC_ShySpawn              20113a80 f   NPC_spawn.obj
 0001:00112b80       _NPC_Spawn                 20113b80 f   NPC_spawn.obj
 0001:00112c10       _NPC_PrecacheType          20113c10 f   NPC_spawn.obj
 0001:00112c50       _SP_NPC_spawner            20113c50 f   NPC_spawn.obj
 0001:00112e60       _NPC_VehiclePrecache       20113e60 f   NPC_spawn.obj
 0001:001130c0       _NPC_VehicleSpawnUse       201140c0 f   NPC_spawn.obj
 0001:00113110       _SP_NPC_Vehicle            20114110 f   NPC_spawn.obj
 0001:001132e0       _SP_NPC_Kyle               201142e0 f   NPC_spawn.obj
 0001:00113310       _SP_NPC_Lando              20114310 f   NPC_spawn.obj
 0001:00113330       _SP_NPC_Jan                20114330 f   NPC_spawn.obj
 0001:00113350       _SP_NPC_Luke               20114350 f   NPC_spawn.obj
 0001:00113380       _SP_NPC_MonMothma          20114380 f   NPC_spawn.obj
 0001:001133a0       _SP_NPC_Tavion             201143a0 f   NPC_spawn.obj
 0001:001133d0       _SP_NPC_Tavion_New         201143d0 f   NPC_spawn.obj
 0001:00113430       _SP_NPC_Alora              20114430 f   NPC_spawn.obj
 0001:00113470       _SP_NPC_Reborn_New         20114470 f   NPC_spawn.obj
 0001:00113530       _SP_NPC_Cultist_Saber      20114530 f   NPC_spawn.obj
 0001:00113630       _SP_NPC_Cultist_Saber_Powers 20114630 f   NPC_spawn.obj
 0001:00113730       _SP_NPC_Cultist            20114730 f   NPC_spawn.obj
 0001:00113880       _SP_NPC_Cultist_Commando   20114880 f   NPC_spawn.obj
 0001:001138b0       _SP_NPC_Cultist_Destroyer  201148b0 f   NPC_spawn.obj
 0001:001138d0       _SP_NPC_Reelo              201148d0 f   NPC_spawn.obj
 0001:001138f0       _SP_NPC_Galak              201148f0 f   NPC_spawn.obj
 0001:00113930       _SP_NPC_Desann             20114930 f   NPC_spawn.obj
 0001:00113960       _SP_NPC_Bartender          20114960 f   NPC_spawn.obj
 0001:00113980       _SP_NPC_MorganKatarn       20114980 f   NPC_spawn.obj
 0001:001139a0       _SP_NPC_Jedi               201149a0 f   NPC_spawn.obj
 0001:00113a20       _SP_NPC_Prisoner           20114a20 f   NPC_spawn.obj
 0001:00113a70       _SP_NPC_Rebel              20114a70 f   NPC_spawn.obj
 0001:00113ac0       _SP_NPC_Stormtrooper       20114ac0 f   NPC_spawn.obj
 0001:00113b80       _SP_NPC_StormtrooperOfficer 20114b80 f   NPC_spawn.obj
 0001:00113bb0       _SP_NPC_Snowtrooper        20114bb0 f   NPC_spawn.obj
 0001:00113bd0       _SP_NPC_Tie_Pilot          20114bd0 f   NPC_spawn.obj
 0001:00113bf0       _SP_NPC_Ugnaught           20114bf0 f   NPC_spawn.obj
 0001:00113c40       _SP_NPC_Jawa               20114c40 f   NPC_spawn.obj
 0001:00113c90       _SP_NPC_Gran               20114c90 f   NPC_spawn.obj
 0001:00113d20       _SP_NPC_Rodian             20114d20 f   NPC_spawn.obj
 0001:00113d70       _SP_NPC_Weequay            20114d70 f   NPC_spawn.obj
 0001:00113e00       _SP_NPC_Trandoshan         20114e00 f   NPC_spawn.obj
 0001:00113e30       _SP_NPC_Tusken             20114e30 f   NPC_spawn.obj
 0001:00113e80       _SP_NPC_Noghri             20114e80 f   NPC_spawn.obj
 0001:00113eb0       _SP_NPC_SwampTrooper       20114eb0 f   NPC_spawn.obj
 0001:00113f00       _SP_NPC_Imperial           20114f00 f   NPC_spawn.obj
 0001:00113f70       _SP_NPC_ImpWorker          20114f70 f   NPC_spawn.obj
 0001:00113fe0       _SP_NPC_BespinCop          20114fe0 f   NPC_spawn.obj
 0001:00114030       _SP_NPC_Reborn             20115030 f   NPC_spawn.obj
 0001:001140e0       _SP_NPC_ShadowTrooper      201150e0 f   NPC_spawn.obj
 0001:00114140       _SP_NPC_Monster_Murjj      20115140 f   NPC_spawn.obj
 0001:00114160       _SP_NPC_Monster_Swamp      20115160 f   NPC_spawn.obj
 0001:00114180       _SP_NPC_Monster_Howler     20115180 f   NPC_spawn.obj
 0001:001141a0       _SP_NPC_MineMonster        201151a0 f   NPC_spawn.obj
 0001:001141d0       _SP_NPC_Monster_Claw       201151d0 f   NPC_spawn.obj
 0001:001141f0       _SP_NPC_Monster_Glider     201151f0 f   NPC_spawn.obj
 0001:00114210       _SP_NPC_Monster_Flier2     20115210 f   NPC_spawn.obj
 0001:00114230       _SP_NPC_Monster_Lizard     20115230 f   NPC_spawn.obj
 0001:00114250       _SP_NPC_Monster_Fish       20115250 f   NPC_spawn.obj
 0001:00114270       _SP_NPC_Monster_Wampa      20115270 f   NPC_spawn.obj
 0001:001142a0       _SP_NPC_Monster_Rancor     201152a0 f   NPC_spawn.obj
 0001:001142c0       _SP_NPC_Droid_Interrogator 201152c0 f   NPC_spawn.obj
 0001:001142f0       _SP_NPC_Droid_Probe        201152f0 f   NPC_spawn.obj
 0001:00114320       _SP_NPC_Droid_Mark1        20115320 f   NPC_spawn.obj
 0001:00114350       _SP_NPC_Droid_Mark2        20115350 f   NPC_spawn.obj
 0001:00114380       _SP_NPC_Droid_ATST         20115380 f   NPC_spawn.obj
 0001:001143c0       _SP_NPC_Droid_Remote       201153c0 f   NPC_spawn.obj
 0001:001143f0       _SP_NPC_Droid_Seeker       201153f0 f   NPC_spawn.obj
 0001:00114420       _SP_NPC_Droid_Sentry       20115420 f   NPC_spawn.obj
 0001:00114450       _SP_NPC_Droid_Gonk         20115450 f   NPC_spawn.obj
 0001:00114480       _SP_NPC_Droid_Mouse        20115480 f   NPC_spawn.obj
 0001:001144b0       _SP_NPC_Droid_R2D2         201154b0 f   NPC_spawn.obj
 0001:001144f0       _SP_NPC_Droid_R5D2         201154f0 f   NPC_spawn.obj
 0001:00114530       _SP_NPC_Droid_Protocol     20115530 f   NPC_spawn.obj
 0001:00114570       _NPC_SpawnType             20115570 f   NPC_spawn.obj
 0001:00114ab0       _GetPrices                 20115ab0 f   NPC_spawn.obj
 0001:00114b40       _NPC_Spawn_f               20115b40 f   NPC_spawn.obj
 0001:00118310       _NPC_Kill_f                20119310 f   NPC_spawn.obj
 0001:001187a0       _NPC_PrintScore            201197a0 f   NPC_spawn.obj
 0001:001187d0       _Cmd_NPC_f                 201197d0 f   NPC_spawn.obj
 0001:00118a70       _NPC_ReactionTime          20119a70 f   NPC_stats.obj
 0001:00118a90       _G_ParseAnimFileSet        20119a90 f   NPC_stats.obj
 0001:00118ac0       _NPC_PrecacheAnimationCFG  20119ac0 f   NPC_stats.obj
 0001:00118ad0       _NPC_PrecacheWeapons       20119ad0 f   NPC_stats.obj
 0001:00118b30       _NPC_Precache              20119b30 f   NPC_stats.obj
 0001:001191e0       _NPC_ParseParms            2011a1e0 f   NPC_stats.obj
 0001:0011cc90       _NPC_LoadParms             2011dc90 f   NPC_stats.obj
 0001:0011ce00       _CalcEntitySpot            2011de00 f   NPC_utils.obj
 0001:0011d490       _NPC_UpdateAngles          2011e490 f   NPC_utils.obj
 0001:0011d820       _NPC_AimWiggle             2011e820 f   NPC_utils.obj
 0001:0011d950       _NPC_UpdateFiringAngles    2011e950 f   NPC_utils.obj
 0001:0011dcc0       _NPC_UpdateShootAngles     2011ecc0 f   NPC_utils.obj
 0001:0011de60       _SetTeamNumbers            2011ee60 f   NPC_utils.obj
 0001:0011dfa0       _G_ActivateBehavior        2011efa0 f   NPC_utils.obj
 0001:0011e0a0       _NPC_SetBoneAngles         2011f0a0 f   NPC_utils.obj
 0001:0011e280       _NPC_SetSurfaceOnOff       2011f280 f   NPC_utils.obj
 0001:0011e3a0       _NPC_SomeoneLookingAtMe    2011f3a0 f   NPC_utils.obj
 0001:0011e470       _NPC_ClearLOS              2011f470 f   NPC_utils.obj
 0001:0011e490       _NPC_ClearLOS5             2011f490 f   NPC_utils.obj
 0001:0011e4b0       _NPC_ClearLOS4             2011f4b0 f   NPC_utils.obj
 0001:0011e4d0       _NPC_ClearLOS3             2011f4d0 f   NPC_utils.obj
 0001:0011e4f0       _NPC_ClearLOS2             2011f4f0 f   NPC_utils.obj
 0001:0011e510       _NPC_ValidEnemy            2011f510 f   NPC_utils.obj
 0001:0011e560       _NPC_TargetVisible         2011f560 f   NPC_utils.obj
 0001:0011e650       _NPC_FindNearestEnemy      2011f650 f   NPC_utils.obj
 0001:0011e800       _NPC_PickEnemyExt          2011f800 f   NPC_utils.obj
 0001:0011e8e0       _NPC_FindPlayer            2011f8e0 f   NPC_utils.obj
 0001:0011e900       _NPC_FindEnemy             2011f900 f   NPC_utils.obj
 0001:0011ea00       _NPC_CheckEnemyExt         2011fa00 f   NPC_utils.obj
 0001:0011ea20       _NPC_FacePosition          2011fa20 f   NPC_utils.obj
 0001:0011eca0       _NPC_FaceEntity            2011fca0 f   NPC_utils.obj
 0001:0011ecd0       _NPC_FaceEnemy             2011fcd0 f   NPC_utils.obj
 0001:0011ed10       _NPC_CheckCanAttackExt     2011fd10 f   NPC_utils.obj
 0001:0011ed60       _NPC_ClearLookTarget       2011fd60 f   NPC_utils.obj
 0001:0011edb0       _NPC_SetLookTarget         2011fdb0 f   NPC_utils.obj
 0001:0011ee00       _NPC_CheckLookTarget       2011fe00 f   NPC_utils.obj
 0001:0011ef30       _NPC_CheckCharmed          2011ff30 f   NPC_utils.obj
 0001:0011f040       _G_GetBoltPosition         20120040 f   NPC_utils.obj
 0001:0011f290       _NPC_EntRangeFromBolt      20120290 f   NPC_utils.obj
 0001:0011f370       _NPC_EnemyRangeFromBolt    20120370 f   NPC_utils.obj
 0001:0011f390       _NPC_GetEntsNearBolt       20120390 f   NPC_utils.obj
 0001:0011f430       _Q_rand                    20120430 f   q_math.obj
 0001:0011f450       _Q_random                  20120450 f   q_math.obj
 0001:0011f480       _Q_crandom                 20120480 f   q_math.obj
 0001:0011f4a0       _ClampChar                 201204a0 f   q_math.obj
 0001:0011f4c0       _ClampShort                201204c0 f   q_math.obj
 0001:0011f4f0       _DirToByte                 201204f0 f   q_math.obj
 0001:0011f590       _ByteToDir                 20120590 f   q_math.obj
 0001:0011f600       _ColorBytes3               20120600 f   q_math.obj
 0001:0011f640       _ColorBytes4               20120640 f   q_math.obj
 0001:0011f690       _NormalizeColor            20120690 f   q_math.obj
 0001:0011f740       _PlaneFromPoints           20120740 f   q_math.obj
 0001:0011f870       _RotatePointAroundVector   20120870 f   q_math.obj
 0001:0011fab0       _RotateAroundDirection     20120ab0 f   q_math.obj
 0001:0011fb30       _vectoangles               20120b30 f   q_math.obj
 0001:0011fca0       _AnglesToAxis              20120ca0 f   q_math.obj
 0001:0011fd00       _AxisClear                 20120d00 f   q_math.obj
 0001:0011fd60       _AxisCopy                  20120d60 f   q_math.obj
 0001:0011fdd0       _ProjectPointOnPlane       20120dd0 f   q_math.obj
 0001:0011fea0       _MakeNormalVectors         20120ea0 f   q_math.obj
 0001:0011ff60       _VectorRotate              20120f60 f   q_math.obj
 0001:0011fff0       _Q_rsqrt                   20120ff0 f   q_math.obj
 0001:00120040       _Q_fabs                    20121040 f   q_math.obj
 0001:00120060       _LerpAngle                 20121060 f   q_math.obj
 0001:001200c0       _AngleSubtract             201210c0 f   q_math.obj
 0001:00120130       _AnglesSubtract            20121130 f   q_math.obj
 0001:00120190       _AngleMod                  20121190 f   q_math.obj
 0001:001201c0       _AngleNormalize360         201211c0 f   q_math.obj
 0001:001201f0       _AngleNormalize180         201211f0 f   q_math.obj
 0001:00120220       _AngleDelta                20121220 f   q_math.obj
 0001:00120240       _SetPlaneSignbits          20121240 f   q_math.obj
 0001:001202a0       _BoxOnPlaneSide            201212a0 f   q_math.obj
 0001:001204e0       _RadiusFromBounds          201214e0 f   q_math.obj
 0001:001205b0       _ClearBounds               201215b0 f   q_math.obj
 0001:001205f0       _DistanceHorizontal        201215f0 f   q_math.obj
 0001:00120650       _DistanceHorizontalSquared 20121650 f   q_math.obj
 0001:001206a0       _AddPointToBounds          201216a0 f   q_math.obj
 0001:00120760       _VectorNormalize           20121760 f   q_math.obj
 0001:00120820       _VectorNormalize2          20121820 f   q_math.obj
 0001:001208d0       __VectorMA                 201218d0 f   q_math.obj
 0001:00120920       __DotProduct               20121920 f   q_math.obj
 0001:00120950       __VectorSubtract           20121950 f   q_math.obj
 0001:00120990       __VectorAdd                20121990 f   q_math.obj
 0001:001209d0       __VectorCopy               201219d0 f   q_math.obj
 0001:00120a00       __VectorScale              20121a00 f   q_math.obj
 0001:00120a30       _Vector4Scale              20121a30 f   q_math.obj
 0001:00120a70       _Q_log2                    20121a70 f   q_math.obj
 0001:00120aa0       _MatrixMultiply            20121aa0 f   q_math.obj
 0001:00120c40       _AngleVectors              20121c40 f   q_math.obj
 0001:00120e20       _PerpendicularVector       20121e20 f   q_math.obj
 0001:00120ee0       _NormalToLatLong           20121ee0 f   q_math.obj
 0001:00120fe0       _Rand_Init                 20121fe0 f   q_math.obj
 0001:00120ff0       _flrand                    20121ff0 f   q_math.obj
 0001:00121040       _Q_flrand                  20122040 f   q_math.obj
 0001:00121060       _irand                     20122060 f   q_math.obj
 0001:001210b0       _Q_irand                   201220b0 f   q_math.obj
 0001:001210d0       _powf                      201220d0 f   q_math.obj
 0001:00121110       _DotProductNormalize       20122110 f   q_math.obj
 0001:00121160       _G_FindClosestPointOnLineSegment 20122160 f   q_math.obj
 0001:00121460       _G_PointDistFromLineSegment 20122460 f   q_math.obj
 0001:001216c0       _GetIDForString            201226c0 f   q_shared.obj
 0001:00121720       _GetStringForID            20122720 f   q_shared.obj
 0001:00121780       _Com_Clampi                20122780 f   q_shared.obj
 0001:001217b0       _Com_Clamp                 201227b0 f   q_shared.obj
 0001:001217e0       _COM_SkipPath              201227e0 f   q_shared.obj
 0001:00121820       _COM_StripExtension        20122820 f   q_shared.obj
 0001:00121860       _COM_DefaultExtension      20122860 f   q_shared.obj
 0001:001218e0       _ShortSwap                 201228e0 f   q_shared.obj
 0001:00121920       _ShortNoSwap               20122920 f   q_shared.obj
 0001:00121930       _LongSwap                  20122930 f   q_shared.obj
 0001:00121990       _LongNoSwap                20122990 f   q_shared.obj
 0001:001219a0       _Long64Swap                201229a0 f   q_shared.obj
 0001:001219e0       _Long64NoSwap              201229e0 f   q_shared.obj
 0001:001219f0       _FloatSwap                 201229f0 f   q_shared.obj
 0001:00121a20       _FloatNoSwap               20122a20 f   q_shared.obj
 0001:00121a30       _COM_BeginParseSession     20122a30 f   q_shared.obj
 0001:00121a60       _COM_GetCurrentParseLine   20122a60 f   q_shared.obj
 0001:00121a70       _COM_Parse                 20122a70 f   q_shared.obj
 0001:00121a90       _COM_ParseError            20122a90 f   q_shared.obj
 0001:00121ae0       _COM_ParseWarning          20122ae0 f   q_shared.obj
 0001:00121b30       _SkipWhitespace            20122b30 f   q_shared.obj
 0001:00121b80       _COM_Compress              20122b80 f   q_shared.obj
 0001:00121d80       _COM_ParseExt              20122d80 f   q_shared.obj
 0001:00121fb0       _COM_ParseString           20122fb0 f   q_shared.obj
 0001:00121ff0       _COM_ParseInt              20122ff0 f   q_shared.obj
 0001:00122040       _COM_ParseFloat            20123040 f   q_shared.obj
 0001:00122090       _COM_ParseVec4             20123090 f   q_shared.obj
 0001:001220e0       _COM_MatchToken            201230e0 f   q_shared.obj
 0001:00122110       _SkipBracedSection         20123110 f   q_shared.obj
 0001:00122180       _SkipRestOfLine            20123180 f   q_shared.obj
 0001:001221d0       _Parse1DMatrix             201231d0 f   q_shared.obj
 0001:00122240       _Parse2DMatrix             20123240 f   q_shared.obj
 0001:001222b0       _Parse3DMatrix             201232b0 f   q_shared.obj
 0001:00122320       _Q_isprint                 20123320 f   q_shared.obj
 0001:00122340       _Q_islower                 20123340 f   q_shared.obj
 0001:00122360       _Q_isupper                 20123360 f   q_shared.obj
 0001:00122380       _Q_isalpha                 20123380 f   q_shared.obj
 0001:001223b0       _Q_strrchr                 201233b0 f   q_shared.obj
 0001:00122410       _Q_strncpyz                20123410 f   q_shared.obj
 0001:00122440       _Q_stricmpn                20123440 f   q_shared.obj
 0001:00122510       _Q_strncmp                 20123510 f   q_shared.obj
 0001:00122580       _Q_stricmp                 20123580 f   q_shared.obj
 0001:001225c0       _Q_strlwr                  201235c0 f   q_shared.obj
 0001:00122600       _Q_strupr                  20123600 f   q_shared.obj
 0001:00122640       _Q_strcat                  20123640 f   q_shared.obj
 0001:00122680       _Q_PrintStrlen             20123680 f   q_shared.obj
 0001:00122710       _Q_CleanStr                20123710 f   q_shared.obj
 0001:001227c0       _Com_sprintf               201237c0 f   q_shared.obj
 0001:00122840       _va                        20123840 f   q_shared.obj
 0001:001228a0       _Info_ValueForKey          201238a0 f   q_shared.obj
 0001:00122a10       _Info_NextPair             20123a10 f   q_shared.obj
 0001:00122af0       _Info_RemoveKey            20123af0 f   q_shared.obj
 0001:00122c50       _Info_RemoveKey_Big        20123c50 f   q_shared.obj
 0001:00122dc0       _Info_Validate             20123dc0 f   q_shared.obj
 0001:00122e00       _Info_SetValueForKey       20123e00 f   q_shared.obj
 0001:00122f70       _Info_SetValueForKey_Big   20123f70 f   q_shared.obj
 0001:001230d0       _VEH_StartStrafeRam        201240d0 f   SpeederNPC.obj
 0001:001230e0       _Update                    201240e0 f   SpeederNPC.obj
 0001:00123130       _ProcessOrientCommands     20124130 f   SpeederNPC.obj
 0001:001232c0       _AnimateVehicle            201242c0 f   SpeederNPC.obj
 0001:001232d0       _AnimateRiders             201242d0 f   SpeederNPC.obj
 0001:00123a30       _G_SetSpeederVehicleFunctions 20124a30 f   SpeederNPC.obj
 0001:001241c0       _G_CreateSpeederNPC        201251c0 f   SpeederNPC.obj
 0001:00124210       _coplanar_tri_tri          20125210 f   tri_coll_test.obj
 0001:001252d0       _tri_tri_intersect         201262d0 f   tri_coll_test.obj
 0001:00125b70       _G_PreDefSound             20126b70 f   w_force.obj
 0001:00125bc0       _WP_InitForcePowers        20126bc0 f   w_force.obj
 0001:00126930       _WP_SpawnInitForcePowers   20127930 f   w_force.obj
 0001:00126dd0       _ForcePowerUsableOn        20127dd0 f   w_force.obj
 0001:00126fd0       _WP_ForcePowerAvailable    20127fd0 f   w_force.obj
 0001:001270a0       _WP_ForcePowerInUse        201280a0 f   w_force.obj
 0001:001270d0       _WP_ForcePowerUsable       201280d0 f   w_force.obj
 0001:001273b0       _WP_AbsorbConversion       201283b0 f   w_force.obj
 0001:00127510       _WP_ForcePowerRegenerate   20128510 f   w_force.obj
 0001:001275b0       _WP_ForcePowerStart        201285b0 f   w_force.obj
 0001:00127c60       _ForceHeal                 20128c60 f   w_force.obj
 0001:00127e10       _WP_AddToClientBitflags    20128e10 f   w_force.obj
 0001:00127ec0       _ForceTeamHeal             20128ec0 f   w_force.obj
 0001:00128330       _ForceTeamForceReplenish   20129330 f   w_force.obj
 0001:00128690       _ForceGrip                 20129690 f   w_force.obj
 0001:00128a00       _ForceSpeed                20129a00 f   w_force.obj
 0001:00128b10       _ForceSeeing               20129b10 f   w_force.obj
 0001:00128be0       _ForceProtect              20129be0 f   w_force.obj
 0001:00128cf0       _ForceAbsorb               20129cf0 f   w_force.obj
 0001:00128e00       _ForceRage                 20129e00 f   w_force.obj
 0001:00128f40       _ForceLightning            20129f40 f   w_force.obj
 0001:00129020       _ForceLightningDamage      2012a020 f   w_force.obj
 0001:00129320       _ForceShootLightning       2012a320 f   w_force.obj
 0001:00129880       _ForceDrain                2012a880 f   w_force.obj
 0001:00129960       _ForceDrainDamage          2012a960 f   w_force.obj
 0001:00129cd0       _ForceShootDrain           2012acd0 f   w_force.obj
 0001:0012a2d0       _ForceJumpCharge           2012b2d0 f   w_force.obj
 0001:0012a550       _WP_GetVelocityForForceJump 2012b550 f   w_force.obj
 0001:0012a870       _ForceJump                 2012b870 f   w_force.obj
 0001:0012a9d0       _WP_AddAsMindtricked       2012b9d0 f   w_force.obj
 0001:0012aa80       _ForceTelepathyCheckDirectNPCTarget 2012ba80 f   w_force.obj
 0001:0012b100       _ForceTelepathy            2012c100 f   w_force.obj
 0001:0012b7b0       _GEntity_UseFunc           2012c7b0 f   w_force.obj
 0001:0012b7d0       _CanCounterThrow           2012c7d0 f   w_force.obj
 0001:0012b990       _G_InGetUpAnim             2012c990 f   w_force.obj
 0001:0012ba40       _G_LetGoOfWall             2012ca40 f   w_force.obj
 0001:0012bb00       _ForceThrow                2012cb00 f   w_force.obj
 0001:0012dd90       _WP_ForcePowerStop         2012ed90 f   w_force.obj
 0001:0012e270       _DoGripAction              2012f270 f   w_force.obj
 0001:0012ec60       _G_IsMindTricked           2012fc60 f   w_force.obj
 0001:0012ed10       _WP_DoSpecificPower        2012fd10 f   w_force.obj
 0001:0012f170       _FindGenericEnemyIndex     20130170 f   w_force.obj
 0001:0012f330       _SeekerDroneUpdate         20130330 f   w_force.obj
 0001:0012fb30       _HolocronUpdate            20130b30 f   w_force.obj
 0001:0012fe10       _JediMasterUpdate          20130e10 f   w_force.obj
 0001:0012ffd0       _WP_HasForcePowers         20130fd0 f   w_force.obj
 0001:00130030       _G_SpecialRollGetup        20131030 f   w_force.obj
 0001:00130230       _WP_ForcePowersUpdate      20131230 f   w_force.obj
 0001:001320c0       _Jedi_DodgeEvasion         201330c0 f   w_force.obj
 0001:00132340       _RandFloat                 20133340 f   w_saber.obj
 0001:00132370       _G_DebugBoxLines           20133370 f   w_saber.obj
 0001:00132520       _G_CanBeEnemy              20133520 f   w_saber.obj
 0001:00132600       _WP_DeactivateSaber        20133600 f   w_saber.obj
 0001:001326c0       _WP_ActivateSaber          201336c0 f   w_saber.obj
 0001:001327e0       _SaberUpdateSelf           201337e0 f   w_saber.obj
 0001:00132ab0       _SaberGotHit               20133ab0 f   w_saber.obj
 0001:00132ad0       _WP_SaberInitBladeData     20133ad0 f   w_saber.obj
 0001:001336c0       _G_SaberLockAnim           201346c0 f   w_saber.obj
 0001:00133850       _WP_SabersCheckLock        20134850 f   w_saber.obj
 0001:00135720       _G_KnockawayForParry       20136720 f   w_saber.obj
 0001:00135780       _WP_SaberBladeLength       20136780 f   w_saber.obj
 0001:001357f0       _WP_SaberLength            201367f0 f   w_saber.obj
 0001:00135870       _WPDEBUG_SaberColor        20136870 f   w_saber.obj
 0001:001358e0       _WP_SabersIntersect        201368e0 f   w_saber.obj
 0001:001367c0       _WP_SaberClearDamage       201377c0 f   w_saber.obj
 0001:00136870       _WP_SaberDamageAdd         20137870 f   w_saber.obj
 0001:00136a60       _WP_SaberApplyDamage       20137a60 f   w_saber.obj
 0001:00136b60       _WP_SaberDoHit             20137b60 f   w_saber.obj
 0001:00136f00       _WP_SaberRadiusDamage      20137f00 f   w_saber.obj
 0001:00137290       _WP_SaberDoClash           20138290 f   w_saber.obj
 0001:00137340       _WP_SaberBounceSound       20138340 f   w_saber.obj
 0001:001375c0       _G_SPSaberDamageTraceLerped 201385c0 f   w_saber.obj
 0001:0013f4e0       _WP_SaberStartMissileBlockCheck 201404e0 f   w_saber.obj
 0001:00140650       _SaberBounceSound          20141650 f   w_saber.obj
 0001:00140690       _DeadSaberThink            20141690 f   w_saber.obj
 0001:001406e0       _MakeDeadSaber             201416e0 f   w_saber.obj
 0001:00141850       _DownedSaberThink          20142850 f   w_saber.obj
 0001:00141c70       _saberReactivate           20142c70 f   w_saber.obj
 0001:00141d30       _saberKnockDown            20142d30 f   w_saber.obj
 0001:00142070       _WP_SaberRemoveG2Model     20143070 f   w_saber.obj
 0001:001420a0       _WP_SaberAddG2Model        201430a0 f   w_saber.obj
 0001:00142120       _saberKnockOutOfHand       20143120 f   w_saber.obj
 0001:001423a0       _saberCheckKnockdown_DuelLoss 201433a0 f   w_saber.obj
 0001:00142730       _saberCheckKnockdown_BrokenParry 20143730 f   w_saber.obj
 0001:00142a50       _saberCheckKnockdown_Smashed 20143a50 f   w_saber.obj
 0001:00142b70       _saberCheckKnockdown_Thrown 20143b70 f   w_saber.obj
 0001:00142c90       _saberBackToOwner          20143c90 f   w_saber.obj
 0001:001432d0       _thrownSaberTouch          201442d0 f   w_saber.obj
 0001:00143440       _saberFirstThrown          20144440 f   w_saber.obj
 0001:00143a10       _UpdateClientRenderBolts   20144a10 f   w_saber.obj
 0001:00143eb0       _UpdateClientRenderinfo    20144eb0 f   w_saber.obj
 0001:001447c0       _G_KickSomeMofos           201457c0 f   w_saber.obj
 0001:00145ba0       _G_GrabSomeMofos           20146ba0 f   w_saber.obj
 0001:00146370       _G_InstaGrabSomeMofos      20147370 f   w_saber.obj
 0001:001467b0       _WP_SaberPositionUpdate    201477b0 f   w_saber.obj
 0001:0014afc0       _WP_MissileBlockForBlock   2014bfc0 f   w_saber.obj
 0001:0014b030       _WP_SaberBlockNonRandom    2014c030 f   w_saber.obj
 0001:0014b360       _WP_SaberBlock             2014c360 f   w_saber.obj
 0001:0014b5d0       _WP_SaberCanBlock          2014c5d0 f   w_saber.obj
 0001:0014b9c0       _HasSetSaberOnly           2014c9c0 f   w_saber.obj
 0001:0014ba40       _VectorCompare2            2014ca40 f i w_saber.obj
 0001:0014bae0       _WalkerYawAdjust           2014cae0 f   WalkerNPC.obj
 0001:0014bbe0       _G_SetWalkerVehicleFunctions 2014cbe0 f   WalkerNPC.obj
 0001:0014c2a0       _G_CreateWalkerNPC         2014d2a0 f   WalkerNPC.obj
 0001:0014c2e8       __fpclear                  2014d2e8 f   LIBC:fpinit.obj
 0001:0014c2e9       __cfltcvt_init             2014d2e9 f   LIBC:fpinit.obj
 0001:0014c321       __fpmath                   2014d321 f   LIBC:fpinit.obj
 0001:0014c340       _memcpy                    2014d340 f   LIBC:memcpy.obj
 0001:0014c680       _memset                    2014d680 f   LIBC:memset.obj
 0001:0014c6e0       _abs                       2014d6e0 f   LIBC:abs.obj
 0001:0014c6ec       __ftol2                    2014d6ec f   LIBC:ftol2.obj
 0001:0014c780       _strchr                    2014d780 f   LIBC:strchr.obj
 0001:0014c786       ___from_strstr_to_strchr   2014d786     LIBC:strchr.obj
 0001:0014c840       _strstr                    2014d840 f   LIBC:strstr.obj
 0001:0014c8d0       __CIsqrt                   2014d8d0 f   LIBC:sqrt.obj
 0001:0014c8e4       _sqrt                      2014d8e4     LIBC:sqrt.obj
 0001:0014c98a       _rand                      2014d98a f   LIBC:rand.obj
 0001:0014c9b0       _strcmp                    2014d9b0 f   LIBC:strcmp.obj
 0001:0014ca40       _strlen                    2014da40 f   LIBC:strlen.obj
 0001:0014cad0       _strcpy                    2014dad0 f   LIBC:strcat.obj
 0001:0014cae0       _strcat                    2014dae0 f   LIBC:strcat.obj
 0001:0014cbc8       __heap_alloc               2014dbc8 f   LIBC:malloc.obj
 0001:0014cc0e       __nh_malloc                2014dc0e f   LIBC:malloc.obj
 0001:0014cc3a       _malloc                    2014dc3a f   LIBC:malloc.obj
 0001:0014cc4c       _atol                      2014dc4c f   LIBC:atox.obj
 0001:0014cca4       _atoi                      2014dca4 f   LIBC:atox.obj
 0001:0014cca9       _atof                      2014dca9 f   LIBC:atof.obj
 0001:0014cd00       __chkstk                   2014dd00 f   LIBC:chkstk.obj
 0001:0014cd00       __alloca_probe             2014dd00     LIBC:chkstk.obj
 0001:0014cd3d       _sscanf                    2014dd3d f   LIBC:sscanf.obj
 0001:0014cd80       _atan2                     2014dd80 f   LIBC:87ctriga.obj
 0001:0014cd8a       __CIatan2                  2014dd8a f   LIBC:87ctriga.obj
 0001:0014cda0       __CIcos                    2014dda0 f   LIBC:cos.obj
 0001:0014cdb4       _cos                       2014ddb4     LIBC:cos.obj
 0001:0014ce50       __CIsin                    2014de50 f   LIBC:sin.obj
 0001:0014ce64       _sin                       2014de64     LIBC:sin.obj
 0001:0014cefe       _fabs                      2014defe f   LIBC:fabs.obj
 0001:0014cfb0       _ceil                      2014dfb0 f   LIBC:ceil_pentium4.obj
 0001:0014cff0       __ceil_pentium4            2014dff0 f   LIBC:ceil_pentium4.obj
 0001:0014d0d0       _floor                     2014e0d0 f   LIBC:floor_pentium4.obj
 0001:0014d110       __floor_pentium4           2014e110 f   LIBC:floor_pentium4.obj
 0001:0014d200       _strncpy                   2014e200 f   LIBC:strncpy.obj
 0001:0014d324       _tolower                   2014e324 f   LIBC:tolower.obj
 0001:0014d400       _pow                       2014e400 f   LIBC:pow.obj
 0001:0014d440       __CIpow                    2014e440 f   LIBC:pow.obj
 0001:0014d47b       __CIpow_default            2014e47b f   LIBC:pow.obj
 0001:0014d494       __pow_default              2014e494     LIBC:pow.obj
 0001:0014d68a       _time                      2014e68a f   LIBC:time.obj
 0001:0014d6c3       _vsprintf                  2014e6c3 f   LIBC:vsprintf.obj
 0001:0014d790       _qsort                     2014e790 f   LIBC:qsort.obj
 0001:0014da20       __CIacos                   2014ea20 f   LIBC:acos.obj
 0001:0014da34       _acos                      2014ea34     LIBC:acos.obj
 0001:0014daf0       _fmod                      2014eaf0 f   LIBC:87fmod.obj
 0001:0014dafa       __CIfmod                   2014eafa f   LIBC:87fmod.obj
 0001:0014db30       __CItan                    2014eb30 f   LIBC:tan.obj
 0001:0014db44       _tan                       2014eb44     LIBC:tan.obj
 0001:0014dbf0       _memmove                   2014ebf0 f   LIBC:memmove.obj
 0001:0014df2d       _toupper                   2014ef2d f   LIBC:toupper.obj
 0001:0014e004       __CRT_INIT@12              2014f004 f   LIBC:dllcrt0.obj
 0001:0014e10f       __DllMainCRTStartup@12     2014f10f f   LIBC:dllcrt0.obj
 0001:0014e1f3       __amsg_exit                2014f1f3 f   LIBC:dllcrt0.obj
 0001:0014e226       __forcdecpt                2014f226 f   LIBC:cvt.obj
 0001:0014e27e       __cropzeros                2014f27e f   LIBC:cvt.obj
 0001:0014e2c9       __positive                 2014f2c9 f   LIBC:cvt.obj
 0001:0014e2e3       __fassign                  2014f2e3 f   LIBC:cvt.obj
 0001:0014e33e       __cftoe                    2014f33e f   LIBC:cvt.obj
 0001:0014e42f       __cftof                    2014f42f f   LIBC:cvt.obj
 0001:0014e50c       __cftog                    2014f50c f   LIBC:cvt.obj
 0001:0014e5b6       __cfltcvt                  2014f5b6 f   LIBC:cvt.obj
 0001:0014e607       __setdefaultprecision      2014f607 f   LIBC:fp8.obj
 0001:0014e619       __ms_p5_test_fdiv          2014f619 f   LIBC:testfdiv.obj
 0001:0014e659       __ms_p5_mp_test_fdiv       2014f659 f   LIBC:testfdiv.obj
 0001:0014e690       __trandisp1                2014f690 f   LIBC:87disp.obj
 0001:0014e6f7       __trandisp2                2014f6f7 f   LIBC:87disp.obj
 0001:0014e783       __rttospopde               2014f783     LIBC:87disp.obj
 0001:0014e788       __rttospop                 2014f788     LIBC:87disp.obj
 0001:0014e78a       __rtnospop                 2014f78a     LIBC:87disp.obj
 0001:0014e78c       __rttosnpop                2014f78c     LIBC:87disp.obj
 0001:0014e78d       __rtnospopde               2014f78d     LIBC:87disp.obj
 0001:0014e794       __rtzeropop                2014f794     LIBC:87disp.obj
 0001:0014e796       __rtzeronpop               2014f796     LIBC:87disp.obj
 0001:0014e79b       __rtonepop                 2014f79b     LIBC:87disp.obj
 0001:0014e79d       __rtonenpop                2014f79d     LIBC:87disp.obj
 0001:0014e7a2       __tosnan1                  2014f7a2     LIBC:87disp.obj
 0001:0014e7cd       __nosnan2                  2014f7cd     LIBC:87disp.obj
 0001:0014e7cf       __tosnan2                  2014f7cf     LIBC:87disp.obj
 0001:0014e7f7       __nan2                     2014f7f7     LIBC:87disp.obj
 0001:0014e836       __rtindfpop                2014f836     LIBC:87disp.obj
 0001:0014e838       __rtindfnpop               2014f838     LIBC:87disp.obj
 0001:0014e849       __rttosnpopde              2014f849     LIBC:87disp.obj
 0001:0014e853       __rtchsifneg               2014f853     LIBC:87disp.obj
 0001:0014e860       __startTwoArgErrorHandling 2014f860 f   LIBC:genexcep.obj
 0001:0014e877       __startOneArgErrorHandling 2014f877 f   LIBC:genexcep.obj
 0001:0014e8c0       __twoToTOS                 2014f8c0 f   LIBC:common.obj
 0001:0014e8d5       __load_CW                  2014f8d5 f   LIBC:common.obj
 0001:0014e8ec       __convertTOStoQNaN         2014f8ec f   LIBC:common.obj
 0001:0014e905       __fload_withFB             2014f905 f   LIBC:common.obj
 0001:0014e948       __checkTOS_withFB          2014f948 f   LIBC:common.obj
 0001:0014e95e       __fast_exit                2014f95e f   LIBC:common.obj
 0001:0014e96b       __math_exit                2014f96b f   LIBC:common.obj
 0001:0014e995       __check_overflow_exit      2014f995 f   LIBC:common.obj
 0001:0014e9a9       __check_range_exit         2014f9a9 f   LIBC:common.obj
 0001:0014ea4c       ___heap_select             2014fa4c f   LIBC:heapinit.obj
 0001:0014ea66       __heap_init                2014fa66 f   LIBC:heapinit.obj
 0001:0014eab7       __heap_term                2014fab7 f   LIBC:heapinit.obj
 0001:0014eb36       ___sbh_heap_init           2014fb36 f   LIBC:sbheap.obj
 0001:0014eb7e       ___sbh_find_block          2014fb7e f   LIBC:sbheap.obj
 0001:0014eba9       ___sbh_free_block          2014fba9 f   LIBC:sbheap.obj
 0001:0014eec1       ___sbh_alloc_new_region    2014fec1 f   LIBC:sbheap.obj
 0001:0014ef78       ___sbh_alloc_new_group     2014ff78 f   LIBC:sbheap.obj
 0001:0014f07e       ___sbh_resize_block        2015007e f   LIBC:sbheap.obj
 0001:0014f35d       ___sbh_alloc_block         2015035d f   LIBC:sbheap.obj
 0001:0014f659       __callnewh                 20150659 f   LIBC:handler.obj
 0001:0014f674       __ismbcspace               20150674 f   LIBC:ismbspc.obj
 0001:0014f710       __allmul                   20150710 f   LIBC:llmul.obj
 0001:0014f744       __fltin                    20150744 f   LIBC:cfin.obj
 0001:0014f7db       __isctype                  201507db f   LIBC:isctype.obj
 0001:0014f8a1       __input                    201508a1 f   LIBC:input.obj
 0001:0015072c       __fFATN2                   2015172c     LIBC:87triga.obj
 0001:0015077c       __rtpiby2                  2015177c     LIBC:87triga.obj
 0001:001507c0       __cintrindisp2             201517c0 f   LIBC:87cdisp.obj
 0001:001507fe       __cintrindisp1             201517fe f   LIBC:87cdisp.obj
 0001:00150834       __ctrandisp2               20151834 f   LIBC:87cdisp.obj
 0001:001509ba       __ctrandisp1               201519ba f   LIBC:87cdisp.obj
 0001:001509e6       __fload                    201519e6 f   LIBC:87cdisp.obj
 0001:00150a22       __raise_exc                20151a22 f   LIBC:fpexcept.obj
 0001:00150cc7       __handle_exc               20151cc7 f   LIBC:fpexcept.obj
 0001:00150eeb       __set_errno                20151eeb f   LIBC:fpexcept.obj
 0001:00150f11       __errcode                  20151f11 f   LIBC:fpexcept.obj
 0001:00150f3e       __umatherr                 20151f3e f   LIBC:fpexcept.obj
 0001:00150fde       __handle_qnan1             20151fde f   LIBC:fpexcept.obj
 0001:00151030       __except1                  20152030 f   LIBC:fpexcept.obj
 0001:001510e8       __set_exp                  201520e8 f   LIBC:util.obj
 0001:00151112       __sptype                   20152112 f   LIBC:util.obj
 0001:0015116d       __decomp                   2015216d f   LIBC:util.obj
 0001:00151229       __statfp                   20152229 f   LIBC:fpctrl.obj
 0001:00151234       __clrfp                    20152234 f   LIBC:fpctrl.obj
 0001:00151240       __ctrlfp                   20152240 f   LIBC:fpctrl.obj
 0001:00151264       __set_statfp               20152264 f   LIBC:fpctrl.obj
 0001:001512ba       ___libm_error_support      201522ba f   LIBC:libm_error.obj
 0001:0015157b       ___sse2_available_init     2015257b f   LIBC:cpu_disp.obj
 0001:00151649       __ceil_default             20152649 f   LIBC:ceil.obj
 0001:0015171c       __floor_default            2015271c f   LIBC:floor.obj
 0001:001517ef       ___crtLCMapStringA         201527ef f   LIBC:a_map.obj
 0001:00151bb0       __CIpow_pentium4           20152bb0 f   LIBC:pow_pentium4.obj
 0001:00151bc9       __pow_pentium4             20152bc9     LIBC:pow_pentium4.obj
 0001:00152711       __fFEXP                    20153711     LIBC:87tran.obj
 0001:00152778       __rtinfpopse               20153778     LIBC:87tran.obj
 0001:0015277a       __rtinfnpopse              2015377a     LIBC:87tran.obj
 0001:0015278a       __fFLN                     2015378a     LIBC:87tran.obj
 0001:0015283f       __rtinfpop                 2015383f     LIBC:87tran.obj
 0001:00152841       __rtinfnpop                20153841     LIBC:87tran.obj
 0001:0015285e       __ffexpm1                  2015385e     LIBC:87tran.obj
 0001:00152907       __d_inttype                20153907 f   LIBC:powhlp.obj
 0001:00152975       __powhlp                   20153975 f   LIBC:powhlp.obj
 0001:00152ae0       __aulldiv                  20153ae0 f   LIBC:ulldiv.obj
 0001:00152b48       __flsbuf                   20153b48 f   LIBC:_flsbuf.obj
 0001:00152cec       __output                   20153cec f   LIBC:output.obj
 0001:001534f0       _fdiv_main_routine         201544f0 f   LIBC:adj_fdiv.obj
 0001:00153607       __adj_fdiv_r               20154607 f   LIBC:adj_fdiv.obj
 0001:00153aa6       __fdivp_sti_st             20154aa6 f   LIBC:adj_fdiv.obj
 0001:00153ab9       __fdivrp_sti_st            20154ab9 f   LIBC:adj_fdiv.obj
 0001:00153acc       __adj_fdiv_m32             20154acc f   LIBC:adj_fdiv.obj
 0001:00153b18       __adj_fdiv_m64             20154b18 f   LIBC:adj_fdiv.obj
 0001:00153b64       __adj_fdiv_m16i            20154b64 f   LIBC:adj_fdiv.obj
 0001:00153b98       __adj_fdiv_m32i            20154b98 f   LIBC:adj_fdiv.obj
 0001:00153bcc       __adj_fdivr_m32            20154bcc f   LIBC:adj_fdiv.obj
 0001:00153c18       __adj_fdivr_m64            20154c18 f   LIBC:adj_fdiv.obj
 0001:00153c64       __adj_fdivr_m16i           20154c64 f   LIBC:adj_fdiv.obj
 0001:00153c98       __adj_fdivr_m32i           20154c98 f   LIBC:adj_fdiv.obj
 0001:00153ccc       __safe_fdiv                20154ccc f   LIBC:adj_fdiv.obj
 0001:00153ce1       __safe_fdivr               20154ce1 f   LIBC:adj_fdiv.obj
 0001:00153cf6       __fprem_common             20154cf6 f   LIBC:adj_fdiv.obj
 0001:00153efc       __adj_fprem                20154efc f   LIBC:adj_fdiv.obj
 0001:00153fae       __fprem1_common            20154fae f   LIBC:adj_fdiv.obj
 0001:001541b4       __adj_fprem1               201551b4 f   LIBC:adj_fdiv.obj
 0001:00154269       __safe_fprem               20155269 f   LIBC:adj_fdiv.obj
 0001:0015426f       __safe_fprem1              2015526f f   LIBC:adj_fdiv.obj
 0001:00154275       __adj_fpatan               20155275 f   LIBC:adj_fdiv.obj
 0001:00154278       __adj_fptan                20155278 f   LIBC:adj_fdiv.obj
 0001:0015427b       ___crtExitProcess          2015527b f   LIBC:crt0dat.obj
 0001:001542ab       __cinit                    201552ab f   LIBC:crt0dat.obj
 0001:001543d6       __exit                     201553d6 f   LIBC:crt0dat.obj
 0001:001543e7       __cexit                    201553e7 f   LIBC:crt0dat.obj
 0001:001543f6       __ioinit                   201553f6 f   LIBC:ioinit.obj
 0001:001545a1       __ioterm                   201555a1 f   LIBC:ioinit.obj
 0001:001545c4       __setenvp                  201555c4 f   LIBC:stdenvp.obj
 0001:001547f7       __setargv                  201557f7 f   LIBC:stdargv.obj
 0001:00154899       ___crtGetEnvironmentStringsA 20155899 f   LIBC:a_env.obj
 0001:001549bb       __RTC_Initialize           201559bb f   LIBC:initsect.obj
 0001:001549ff       __RTC_Terminate            201559ff f   LIBC:initsect.obj
 0001:00154a43       __XcptFilter               20155a43 f   LIBC:winxfltr.obj
 0001:00154bb4       ___CppXcptFilter           20155bb4 f   LIBC:winxfltr.obj
 0001:00154bcf       _DllMain@12                20155bcf f   LIBC:dllmain.obj
 0001:00154bf0       __SEH_prolog               20155bf0 f   LIBC:sehprolg.obj
 0001:00154c2b       __SEH_epilog               20155c2b f   LIBC:sehprolg.obj
 0001:00154c44       __except_handler3          20155c44 f   LIBC:exsup3.obj
 0001:00154d2a       __seh_longjmp_unwind@4     20155d2a f   LIBC:exsup3.obj
 0001:00154d45       __NMSG_WRITE               20155d45 f   LIBC:crt0msg.obj
 0001:00154ebc       __FF_MSGBANNER             20155ebc f   LIBC:crt0msg.obj
 0001:00154ef5       __ZeroTail                 20155ef5 f   LIBC:intrncvt.obj
 0001:00154f27       __IncMan                   20155f27 f   LIBC:intrncvt.obj
 0001:00154f74       __RoundMan                 20155f74 f   LIBC:intrncvt.obj
 0001:00154fe6       __CopyMan                  20155fe6 f   LIBC:intrncvt.obj
 0001:00155001       __IsZeroMan                20156001 f   LIBC:intrncvt.obj
 0001:0015501a       __ShrMan                   2015601a f   LIBC:intrncvt.obj
 0001:00155095       __ld12cvt                  20156095 f   LIBC:intrncvt.obj
 0001:001551ed       __ld12tod                  201561ed f   LIBC:intrncvt.obj
 0001:00155203       __ld12tof                  20156203 f   LIBC:intrncvt.obj
 0001:00155219       __atodbl                   20156219 f   LIBC:intrncvt.obj
 0001:00155256       __atoflt                   20156256 f   LIBC:intrncvt.obj
 0001:00155293       __fptostr                  20156293 f   LIBC:_fptostr.obj
 0001:0015530a       ___dtold                   2015630a f   LIBC:cfout.obj
 0001:001553c4       __fltout                   201563c4 f   LIBC:cfout.obj
 0001:00155438       __fptrap                   20156438 f   LIBC:crt0fp.obj
 0001:00155561       __control87                20156561 f   LIBC:ieee87.obj
 0001:00155593       __controlfp                20156593 f   LIBC:ieee87.obj
 0001:001555a9       __87except                 201565a9 f   LIBC:87except.obj
 0001:001556a1       ___crtGetStringTypeA       201566a1 f   LIBC:a_str.obj
 0001:00155a3f       __setmbcp                  20156a3f f   LIBC:mbctype.obj
 0001:00155c25       ___initmbctable            20156c25 f   LIBC:mbctype.obj
 0001:00155c43       ___strgtold12              20156c43 f   LIBC:strgtold.obj
 0001:001560fb       @__security_check_cookie@4 201570fb f   LIBC:secchk.obj
 0001:00156109       __filbuf                   20157109 f   LIBC:_filbuf.obj
 0001:001561e7       _ungetc                    201571e7 f   LIBC:ungetc.obj
 0001:00156253       _isspace                   20157253 f   LIBC:_ctype.obj
 0001:0015627c       _free                      2015727c f   LIBC:free.obj
 0001:001562b4       _mbtowc                    201572b4 f   LIBC:mbtowc.obj
 0001:0015637c       __resetstkoflw             2015737c f   LIBC:resetstk.obj
 0001:0015645f       __matherr                  2015745f f   LIBC:matherr.obj
 0001:00156470       _strncmp                   20157470 f   LIBC:strncmp.obj
 0001:001564a9       __frnd                     201574a9 f   LIBC:frnd.obj
 0001:001564ba       ___ansicp                  201574ba f   LIBC:convrtcp.obj
 0001:001564fd       ___convertcp               201574fd f   LIBC:convrtcp.obj
 0001:001566c6       __fpclass                  201576c6 f   LIBC:ieeemisc.obj
 0001:00156762       __lseek                    20157762 f   LIBC:lseek.obj
 0001:001567ee       __write                    201577ee f   LIBC:write.obj
 0001:001569de       __getbuf                   201579de f   LIBC:_getbuf.obj
 0001:00156a22       __isatty                   20157a22 f   LIBC:isatty.obj
 0001:00156a49       ___initstdio               20157a49 f   LIBC:_file.obj
 0001:00156aef       ___endstdio                20157aef f   LIBC:_file.obj
 0001:00156b03       _wctomb                    20157b03 f   LIBC:wctomb.obj
 0001:00156b70       __aulldvrm                 20157b70 f   LIBC:ulldvrm.obj
 0001:00156c05       __onexit                   20157c05 f   LIBC:onexit.obj
 0001:00156c87       _atexit                    20157c87 f   LIBC:onexit.obj
 0001:00156c99       ___onexitinit              20157c99 f   LIBC:onexit.obj
 0001:00156cc4       __global_unwind2           20157cc4 f   LIBC:exsup.obj
 0001:00156d06       __local_unwind2            20157d06 f   LIBC:exsup.obj
 0001:00156d5e       __NLG_Return2              20157d5e     LIBC:exsup.obj
 0001:00156d6e       __abnormal_termination     20157d6e f   LIBC:exsup.obj
 0001:00156d91       __NLG_Notify1              20157d91 f   LIBC:exsup.obj
 0001:00156d9a       __NLG_Notify               20157d9a f   LIBC:exsup.obj
 0001:00156dad       __NLG_Dispatch             20157dad     LIBC:exsup.obj
 0001:00156db2       __ValidateEH3RN            20157db2 f   LIBC:eh3valid.obj
 0001:00156fdb       ___crtMessageBoxA          20157fdb f   LIBC:crtmbox.obj
 0001:001570d4       ___addl                    201580d4 f   LIBC:mantold.obj
 0001:001570f5       ___add_12                  201580f5 f   LIBC:mantold.obj
 0001:00157153       ___shl_12                  20158153 f   LIBC:mantold.obj
 0001:00157181       ___shr_12                  20158181 f   LIBC:mantold.obj
 0001:001571ae       ___mtold12                 201581ae f   LIBC:mantold.obj
 0001:0015728c       _$I10_OUTPUT               2015828c f   LIBC:x10fout.obj
 0001:0015751a       _calloc                    2015851a f   LIBC:calloc.obj
 0001:00157595       ___ld12mul                 20158595 f   LIBC:tenpow.obj
 0001:001577c7       ___multtenpow12            201587c7 f   LIBC:tenpow.obj
 0001:0015784d       ___security_init_cookie    2015884d f   LIBC:seccinit.obj
 0001:001578b3       ___security_error_handler  201588b3 f   LIBC:secfail.obj
 0001:001579fb       __read                     201589fb f   LIBC:read.obj
 0001:00157be9       __dosmaperr                20158be9 f   LIBC:dosmap.obj
 0001:00157c48       __free_osfhnd              20158c48 f   LIBC:osfinfo.obj
 0001:00157cc2       __get_osfhandle            20158cc2 f   LIBC:osfinfo.obj
 0001:00157cfe       __lseeki64                 20158cfe f   LIBC:lseeki64.obj
 0001:00157d9d       __fcloseall                20158d9d f   LIBC:closeall.obj
 0001:00157df5       __flush                    20158df5 f   LIBC:fflush.obj
 0001:00157e52       _fflush                    20158e52 f   LIBC:fflush.obj
 0001:00157efa       __flushall                 20158efa f   LIBC:fflush.obj
 0001:00157f03       _realloc                   20158f03 f   LIBC:realloc.obj
 0001:00158065       __msize                    20159065 f   LIBC:msize.obj
 0001:0015809d       _fclose                    2015909d f   LIBC:fclose.obj
 0001:001580f3       __commit                   201590f3 f   LIBC:commit.obj
 0001:0015814a       __close                    2015914a f   LIBC:close.obj
 0001:001581fd       __freebuf                  201591fd f   LIBC:_freebuf.obj
 0001:00158228       _RtlUnwind@16              20159228 f   kernel32:KERNEL32.dll
 0002:00000000       __imp__SetPriorityClass@8  2015a000     kernel32:KERNEL32.dll
 0002:00000004       __imp__FlushFileBuffers@4  2015a004     kernel32:KERNEL32.dll
 0002:00000008       __imp__HeapSize@12         2015a008     kernel32:KERNEL32.dll
 0002:0000000c       __imp__HeapAlloc@12        2015a00c     kernel32:KERNEL32.dll
 0002:00000010       __imp__GetSystemTimeAsFileTime@4 2015a010     kernel32:KERNEL32.dll
 0002:00000014       __imp__GetCommandLineA@0   2015a014     kernel32:KERNEL32.dll
 0002:00000018       __imp__GetVersionExA@4     2015a018     kernel32:KERNEL32.dll
 0002:0000001c       __imp__GetProcAddress@8    2015a01c     kernel32:KERNEL32.dll
 0002:00000020       __imp__GetModuleHandleA@4  2015a020     kernel32:KERNEL32.dll
 0002:00000024       __imp__HeapDestroy@4       2015a024     kernel32:KERNEL32.dll
 0002:00000028       __imp__HeapCreate@12       2015a028     kernel32:KERNEL32.dll
 0002:0000002c       __imp__VirtualFree@12      2015a02c     kernel32:KERNEL32.dll
 0002:00000030       __imp__HeapFree@12         2015a030     kernel32:KERNEL32.dll
 0002:00000034       __imp__VirtualAlloc@16     2015a034     kernel32:KERNEL32.dll
 0002:00000038       __imp__HeapReAlloc@16      2015a038     kernel32:KERNEL32.dll
 0002:0000003c       __imp__RaiseException@16   2015a03c     kernel32:KERNEL32.dll
 0002:00000040       __imp__LCMapStringA@24     2015a040     kernel32:KERNEL32.dll
 0002:00000044       __imp__WideCharToMultiByte@32 2015a044     kernel32:KERNEL32.dll
 0002:00000048       __imp__MultiByteToWideChar@24 2015a048     kernel32:KERNEL32.dll
 0002:0000004c       __imp__GetLastError@0      2015a04c     kernel32:KERNEL32.dll
 0002:00000050       __imp__LCMapStringW@24     2015a050     kernel32:KERNEL32.dll
 0002:00000054       __imp__ExitProcess@4       2015a054     kernel32:KERNEL32.dll
 0002:00000058       __imp__TerminateProcess@8  2015a058     kernel32:KERNEL32.dll
 0002:0000005c       __imp__GetCurrentProcess@0 2015a05c     kernel32:KERNEL32.dll
 0002:00000060       __imp__SetHandleCount@4    2015a060     kernel32:KERNEL32.dll
 0002:00000064       __imp__GetStdHandle@4      2015a064     kernel32:KERNEL32.dll
 0002:00000068       __imp__GetFileType@4       2015a068     kernel32:KERNEL32.dll
 0002:0000006c       __imp__GetStartupInfoA@4   2015a06c     kernel32:KERNEL32.dll
 0002:00000070       __imp__GetModuleFileNameA@12 2015a070     kernel32:KERNEL32.dll
 0002:00000074       __imp__FreeEnvironmentStringsA@4 2015a074     kernel32:KERNEL32.dll
 0002:00000078       __imp__GetEnvironmentStrings@0 2015a078     kernel32:KERNEL32.dll
 0002:0000007c       __imp__FreeEnvironmentStringsW@4 2015a07c     kernel32:KERNEL32.dll
 0002:00000080       __imp__GetEnvironmentStringsW@0 2015a080     kernel32:KERNEL32.dll
 0002:00000084       __imp__UnhandledExceptionFilter@4 2015a084     kernel32:KERNEL32.dll
 0002:00000088       __imp__DisableThreadLibraryCalls@4 2015a088     kernel32:KERNEL32.dll
 0002:0000008c       __imp__WriteFile@20        2015a08c     kernel32:KERNEL32.dll
 0002:00000090       __imp__GetStringTypeA@20   2015a090     kernel32:KERNEL32.dll
 0002:00000094       __imp__GetStringTypeW@16   2015a094     kernel32:KERNEL32.dll
 0002:00000098       __imp__GetACP@0            2015a098     kernel32:KERNEL32.dll
 0002:0000009c       __imp__GetOEMCP@0          2015a09c     kernel32:KERNEL32.dll
 0002:000000a0       __imp__GetCPInfo@8         2015a0a0     kernel32:KERNEL32.dll
 0002:000000a4       __imp__VirtualProtect@16   2015a0a4     kernel32:KERNEL32.dll
 0002:000000a8       __imp__GetSystemInfo@4     2015a0a8     kernel32:KERNEL32.dll
 0002:000000ac       __imp__VirtualQuery@12     2015a0ac     kernel32:KERNEL32.dll
 0002:000000b0       __imp__GetLocaleInfoA@16   2015a0b0     kernel32:KERNEL32.dll
 0002:000000b4       __imp__SetFilePointer@16   2015a0b4     kernel32:KERNEL32.dll
 0002:000000b8       __imp__RtlUnwind@16        2015a0b8     kernel32:KERNEL32.dll
 0002:000000bc       __imp__InterlockedExchange@8 2015a0bc     kernel32:KERNEL32.dll
 0002:000000c0       __imp__LoadLibraryA@4      2015a0c0     kernel32:KERNEL32.dll
 0002:000000c4       __imp__QueryPerformanceCounter@4 2015a0c4     kernel32:KERNEL32.dll
 0002:000000c8       __imp__GetTickCount@0      2015a0c8     kernel32:KERNEL32.dll
 0002:000000cc       __imp__GetCurrentThreadId@0 2015a0cc     kernel32:KERNEL32.dll
 0002:000000d0       __imp__GetCurrentProcessId@0 2015a0d0     kernel32:KERNEL32.dll
 0002:000000d4       __imp__ReadFile@20         2015a0d4     kernel32:KERNEL32.dll
 0002:000000d8       __imp__SetStdHandle@8      2015a0d8     kernel32:KERNEL32.dll
 0002:000000dc       __imp__CloseHandle@4       2015a0dc     kernel32:KERNEL32.dll
 0002:000000e0       \177KERNEL32_NULL_THUNK_DATA 2015a0e0     kernel32:KERNEL32.dll
 0002:000000e4       __imp__ShellExecuteExA@4   2015a0e4     shell32:SHELL32.dll
 0002:000000e8       \177SHELL32_NULL_THUNK_DATA 2015a0e8     shell32:SHELL32.dll
 0002:00000110       __real@c066800000000000    2015a110     ai_main.obj
 0002:00000118       __real@4076800000000000    2015a118     ai_main.obj
 0002:00000120       __real@4066800000000000    2015a120     ai_main.obj
 0002:00000128       ??_C@_13NOLLCAOD@?$AA?$AA?$AA?$AA@ 2015a128     LIBC:a_map.obj
 0002:00000128       __real@00000000            2015a128     ai_main.obj
 0002:00000130       __real@3fdccccccccccccd    2015a130     ai_main.obj
 0002:00000138       __real@c3340000            2015a138     ai_main.obj
 0002:00000140       __real@3f50624dd2f1a9fc    2015a140     ai_main.obj
 0002:00000148       __real@3f4ccccd            2015a148     ai_main.obj
 0002:0000014c       __real@40400000            2015a14c     ai_main.obj
 0002:00000150       __real@3f19999a            2015a150     ai_main.obj
 0002:00000154       __real@40000000            2015a154     ai_main.obj
 0002:00000158       __real@3ecccccd            2015a158     ai_main.obj
 0002:0000015c       __real@3f800000            2015a15c     ai_main.obj
 0002:00000160       __real@43b40000            2015a160     ai_main.obj
 0002:00000164       __real@43340000            2015a164     ai_main.obj
 0002:00000168       __real@43c80000            2015a168     ai_main.obj
 0002:0000016c       __real@42fe0000            2015a16c     ai_main.obj
 0002:00000170       __real@47800000            2015a170     ai_main.obj
 0002:00000174       __real@447a0000            2015a174     ai_main.obj
 0002:00000178       __real@3f76800000000000    2015a178     ai_main.obj
 0002:00000180       __real@3fd3333333333333    2015a180     ai_main.obj
 0002:00000188       __real@42800000            2015a188     ai_main.obj
 0002:0000018c       __real@459c4000            2015a18c     ai_main.obj
 0002:00000190       __real@bf800000            2015a190     ai_main.obj
 0002:00000194       __real@41800000            2015a194     ai_main.obj
 0002:00000198       __real@42000000            2015a198     ai_main.obj
 0002:0000019c       __real@c2700000            2015a19c     ai_main.obj
 0002:000001a0       __real@42700000            2015a1a0     ai_main.obj
 0002:000001a4       __real@42240000            2015a1a4     ai_main.obj
 0002:000001a8       __real@40800000            2015a1a8     ai_main.obj
 0002:000001ac       __real@41f80000            2015a1ac     ai_main.obj
 0002:000001b0       __real@43af0000            2015a1b0     ai_main.obj
 0002:000001b8       __real@3fe0000000000000    2015a1b8     ai_main.obj
 0002:000001c0       __real@3fe999999999999a    2015a1c0     ai_main.obj
 0002:000001c8       __real@43800000            2015a1c8     ai_main.obj
 0002:000001cc       __real@42c80000            2015a1cc     ai_main.obj
 0002:000001d0       __real@44000000            2015a1d0     ai_main.obj
 0002:000001d4       __real@43000000            2015a1d4     ai_main.obj
 0002:000001d8       __real@44800000            2015a1d8     ai_main.obj
 0002:000001dc       __real@457a0000            2015a1dc     ai_main.obj
 0002:000001e0       __real@45800000            2015a1e0     ai_main.obj
 0002:000001e4       __real@42600000            2015a1e4     ai_main.obj
 0002:000001e8       __real@42960000            2015a1e8     ai_main.obj
 0002:000001ec       __real@42a00000            2015a1ec     ai_main.obj
 0002:000001f0       __real@42b40000            2015a1f0     ai_main.obj
 0002:000001f4       __real@42580000            2015a1f4     ai_main.obj
 0002:000001f8       __real@3e19999a            2015a1f8     ai_main.obj
 0002:000001fc       __real@3f333333            2015a1fc     ai_main.obj
 0002:00000200       __real@3eb33333            2015a200     ai_main.obj
 0002:00000204       __real@3ee66666            2015a204     ai_main.obj
 0002:00000208       __real@3e800000            2015a208     ai_main.obj
 0002:0000020c       __real@3f000000            2015a20c     ai_main.obj
 0002:00000210       __real@3f53a92a30553261    2015a210     ai_main.obj
 0002:00000218       __real@3feccccccccccccd    2015a218     ai_main.obj
 0002:00000220       __real@44160000            2015a220     ai_main.obj
 0002:00000224       __real@43960000            2015a224     ai_main.obj
 0002:00000228       __real@437a0000            2015a228     ai_main.obj
 0002:0000022c       __real@463b8000            2015a22c     ai_main.obj
 0002:00000230       __real@44480000            2015a230     ai_main.obj
 0002:00000234       __real@43160000            2015a234     ai_main.obj
 0002:00000238       __real@442f0000            2015a238     ai_main.obj
 0002:0000023c       __real@45000000            2015a23c     ai_main.obj
 0002:00000240       __real@43a00000            2015a240     ai_main.obj
 0002:00000244       __real@44960000            2015a244     ai_main.obj
 0002:00000248       __real@41000000            2015a248     ai_main.obj
 0002:00000250       __real@40cf400000000000    2015a250     ai_main.obj
 0002:00000258       __real@43480000            2015a258     ai_main.obj
 0002:0000025c       __real@45dac000            2015a25c     ai_main.obj
 0002:00000260       __real@43400000            2015a260     ai_main.obj
 0002:00000264       __real@44228000            2015a264     ai_main.obj
 0002:00000268       __real@bfe00000            2015a268     ai_main.obj
 0002:0000026c       __real@c37a0000            2015a26c     ai_main.obj
 0002:00000270       __real@44bb8000            2015a270     ai_main.obj
 0002:00000274       __real@42480000            2015a274     ai_wpnav.obj
 0002:00000278       __real@41700000            2015a278     ai_wpnav.obj
 0002:0000027c       __real@43fa0000            2015a27c     ai_wpnav.obj
 0002:00000280       __real@443b8000            2015a280     ai_wpnav.obj
 0002:00000284       __real@453b8000            2015a284     ai_wpnav.obj
 0002:00000288       __real@44a00000            2015a288     ai_wpnav.obj
 0002:0000028c       __real@3e4ccccd            2015a28c     AnimalNPC.obj
 0002:00000290       __real@3e8ccccd            2015a290     AnimalNPC.obj
 0002:00000294       __real@bc23d70a            2015a294     AnimalNPC.obj
 0002:00000298       _bgToggleableSurfaceDebris 2015a298     bg_misc.obj
 0002:00000318       __real@400921fb60000000    2015a318     bg_misc.obj
 0002:00000320       __real@c2100000            2015a320     bg_misc.obj
 0002:00000324       __real@42100000            2015a324     bg_misc.obj
 0002:00000328       __real@c2480000            2015a328     bg_misc.obj
 0002:0000032c       __real@42300000            2015a32c     bg_misc.obj
 0002:00000330       __real@4079000000000000    2015a330     bg_misc.obj
 0002:00000338       __real@3a83126f            2015a338     bg_misc.obj
 0002:0000033c       __real@40490fdb            2015a33c     bg_misc.obj
 0002:00000340       __real@42340000            2015a340     bg_misc.obj
 0002:00000344       __real@3f266666            2015a344     bg_panimate.obj
 0002:00000348       __real@3f400000            2015a348     bg_panimate.obj
 0002:0000034c       __real@3fc00000            2015a34c     bg_panimate.obj
 0002:00000350       __real@3ff4cccccccccccd    2015a350     bg_panimate.obj
 0002:00000358       __real@3ffb333333333333    2015a358     bg_panimate.obj
 0002:00000368       __real@c038000000000000    2015a368     bg_pmove.obj
 0002:00000370       __real@4028000000000000    2015a370     bg_pmove.obj
 0002:00000378       __real@3ff0000000000000    2015a378     bg_pmove.obj
 0002:00000380       __real@c1700000            2015a380     bg_pmove.obj
 0002:00000384       __real@c3960000            2015a384     bg_pmove.obj
 0002:00000388       __real@bf000000            2015a388     bg_pmove.obj
 0002:00000390       __real@4059000000000000    2015a390     bg_pmove.obj
 0002:00000398       __real@3f689374bc6a7efa    2015a398     bg_pmove.obj
 0002:000003a0       __real@c2000000            2015a3a0     bg_pmove.obj
 0002:000003a4       __real@3e000000            2015a3a4     bg_pmove.obj
 0002:000003a8       __real@4048f5c3            2015a3a8     bg_pmove.obj
 0002:000003ac       __real@bf7fbe77            2015a3ac     bg_pmove.obj
 0002:000003b0       __real@c3000000            2015a3b0     bg_pmove.obj
 0002:000003b8       __real@3fc99999a0000000    2015a3b8     bg_pmove.obj
 0002:000003c0       __real@40200000            2015a3c0     bg_pmove.obj
 0002:000003c8       __real@3fb999999999999a    2015a3c8     bg_pmove.obj
 0002:000003d0       __real@41c00000            2015a3d0     bg_pmove.obj
 0002:000003d4       __real@c1c00000            2015a3d4     bg_pmove.obj
 0002:000003d8       __real@41200000            2015a3d8     bg_pmove.obj
 0002:000003dc       __real@c0000000            2015a3dc     bg_pmove.obj
 0002:000003e0       __real@c0400000            2015a3e0     bg_pmove.obj
 0002:000003e4       __real@c0800000            2015a3e4     bg_pmove.obj
 0002:000003e8       __real@c0a00000            2015a3e8     bg_pmove.obj
 0002:000003ec       __real@40a00000            2015a3ec     bg_pmove.obj
 0002:000003f0       __real@469c4000            2015a3f0     bg_pmove.obj
 0002:000003f4       __real@3d0f5c29            2015a3f4     bg_pmove.obj
 0002:000003f8       __real@4014000000000000    2015a3f8     bg_pmove.obj
 0002:00000400       __real@3ff8000000000000    2015a400     bg_pmove.obj
 0002:00000408       __real@4018000000000000    2015a408     bg_pmove.obj
 0002:00000410       __real@4004000000000000    2015a410     bg_pmove.obj
 0002:00000418       __real@3f0ccccd            2015a418     bg_pmove.obj
 0002:0000041c       __real@3e99999a            2015a41c     bg_pmove.obj
 0002:00000420       __real@3f59999a            2015a420     bg_pmove.obj
 0002:00000428       __real@3fc999999999999a    2015a428     bg_pmove.obj
 0002:00000430       __real@3fe8000000000000    2015a430     bg_pmove.obj
 0002:00000438       __real@3fd999999999999a    2015a438     bg_pmove.obj
 0002:00000440       __real@c1f00000            2015a440     bg_pmove.obj
 0002:00000444       __real@41f00000            2015a444     bg_pmove.obj
 0002:00000448       __real@3fa999999999999a    2015a448     bg_pmove.obj
 0002:00000450       __real@c3b40000            2015a450     bg_pmove.obj
 0002:00000458       __real@3fe3333333333333    2015a458     bg_pmove.obj
 0002:00000460       __real@43870000            2015a460     bg_pmove.obj
 0002:00000464       __real@c2c80000            2015a464     bg_pmove.obj
 0002:00000468       __real@41400000            2015a468     bg_pmove.obj
 0002:0000046c       __real@43c00000            2015a46c     bg_pmove.obj
 0002:00000470       __real@3df5c28f            2015a470     bg_pmove.obj
 0002:00000478       __real@3fb47ae147ae147b    2015a478     bg_pmove.obj
 0002:00000480       __real@43700000            2015a480     bg_pmove.obj
 0002:00000488       __real@405fc00000000000    2015a488     bg_pmove.obj
 0002:00000490       __real@3fe3333340000000    2015a490     bg_pmove.obj
 0002:00000498       __real@c52f0000            2015a498     bg_pmove.obj
 0002:0000049c       __real@432f0000            2015a49c     bg_pmove.obj
 0002:000004a0       __real@3fcccccd            2015a4a0     bg_pmove.obj
 0002:000004a8       __real@3fe6666666666666    2015a4a8     bg_pmove.obj
 0002:000004b0       __real@c1800000            2015a4b0     bg_pmove.obj
 0002:000004b4       __real@40100000            2015a4b4     bg_pmove.obj
 0002:000004b8       __real@43e10000            2015a4b8     bg_pmove.obj
 0002:000004bc       __real@c1000000            2015a4bc     bg_pmove.obj
 0002:000004c0       __real@43610000            2015a4c0     bg_pmove.obj
 0002:000004c4       __real@c3160000            2015a4c4     bg_pmove.obj
 0002:000004c8       __real@4008000000000000    2015a4c8     bg_pmove.obj
 0002:000004d0       __real@41a00000            2015a4d0     bg_pmove.obj
 0002:000004d4       __real@c3480000            2015a4d4     bg_pmove.obj
 0002:000004d8       __real@3fd0000000000000    2015a4d8     bg_pmove.obj
 0002:000004e0       __real@40e00000            2015a4e0     bg_pmove.obj
 0002:000004e4       __real@3f8f5c29            2015a4e4     bg_pmove.obj
 0002:000004e8       __real@3f1a36e2eb1c432d    2015a4e8     bg_pmove.obj
 0002:000004f0       __real@c2800000            2015a4f0     bg_pmove.obj
 0002:000004f4       __real@41900000            2015a4f4     bg_pmove.obj
 0002:000004f8       __real@4024000000000000    2015a4f8     bg_pmove.obj
 0002:00000500       __real@46ea6000            2015a500     bg_pmove.obj
 0002:00000504       __real@42200000            2015a504     bg_pmove.obj
 0002:00000508       __real@471c4000            2015a508     bg_pmove.obj
 0002:0000050c       __real@43240000            2015a50c     bg_saber.obj
 0002:00000510       __real@4054000000000000    2015a510     bg_saber.obj
 0002:00000518       __real@45c80000            2015a518     bg_saber.obj
 0002:0000051c       __real@c33e0000            2015a51c     bg_saber.obj
 0002:00000520       __real@41c80000            2015a520     bg_saber.obj
 0002:00000524       __real@433e0000            2015a524     bg_saber.obj
 0002:00000528       __real@428c0000            2015a528     bg_saber.obj
 0002:00000530       __real@3f847ae147ae147b    2015a530     bg_saberLoad.obj
 0002:00000538       __real@c2340000            2015a538     bg_slidemove.obj
 0002:0000053c       __real@44fa0000            2015a53c     bg_slidemove.obj
 0002:00000540       __real@3dcccccd            2015a540     bg_slidemove.obj
 0002:00000544       __real@bf333333            2015a544     bg_slidemove.obj
 0002:00000548       __real@3fb33333            2015a548     bg_slidemove.obj
 0002:0000054c       __real@bfb33333            2015a54c     bg_slidemove.obj
 0002:00000550       __real@3f8ccccd            2015a550     bg_slidemove.obj
 0002:00000554       __real@3fd9999a            2015a554     bg_slidemove.obj
 0002:00000558       __real@bf8ccccd            2015a558     bg_slidemove.obj
 0002:0000055c       __real@454e4000            2015a55c     bg_slidemove.obj
 0002:00000560       __real@449fa000            2015a560     bg_slidemove.obj
 0002:00000564       __real@41300000            2015a564     bg_slidemove.obj
 0002:00000568       __real@0000000000000000    2015a568     bg_vehicleLoad.obj
 0002:00000570       __real@c4fa0000            2015a570     FighterNPC.obj
 0002:00000574       __real@3d4ccccd            2015a574     FighterNPC.obj
 0002:00000578       __real@46192000            2015a578     FighterNPC.obj
 0002:0000057c       __real@3faaaaab            2015a57c     FighterNPC.obj
 0002:00000580       __real@461c4000            2015a580     FighterNPC.obj
 0002:00000588       __real@4029000000000000    2015a588     FighterNPC.obj
 0002:00000590       __real@4049000000000000    2015a590     FighterNPC.obj
 0002:00000598       __real@4034000000000000    2015a598     FighterNPC.obj
 0002:000005a0       __real@4070000000000000    2015a5a0     g_active.obj
 0002:000005a8       __real@437f0000            2015a5a8     g_active.obj
 0002:000005b0       __real@3fd47ae147ae147b    2015a5b0     g_active.obj
 0002:000005b8       __real@4a095440            2015a5b8     g_active.obj
 0002:000005bc       __real@4abebc20            2015a5bc     g_active.obj
 0002:000005c0       __real@3fa47ae147ae147b    2015a5c0     g_active.obj
 0002:000005c8       __real@40b8000000000000    2015a5c8     g_active.obj
 0002:000005d0       __real@3ea8f5c3            2015a5d0     g_active.obj
 0002:000005d4       __real@3fa66666            2015a5d4     g_active.obj
 0002:000005d8       __real@3f428f5c            2015a5d8     g_active.obj
 0002:000005dc       __real@3f99999a            2015a5dc     g_active.obj
 0002:000005e0       __real@42f00000            2015a5e0     g_active.obj
 0002:000005e4       __real@46fffe00            2015a5e4     g_bot.obj
 0002:000005e8       __real@41100000            2015a5e8     g_client.obj
 0002:000005ec       __real@3fa00000            2015a5ec     g_client.obj
 0002:000005f0       __real@3d23d70a            2015a5f0     g_client.obj
 0002:000005f8       __real@3ff4000000000000    2015a5f8     g_client.obj
 0002:00000600       __real@42820000            2015a600     g_cmds.obj
 0002:00000604       __real@42aa0000            2015a604     g_cmds.obj
 0002:00000608       __real@4000000000000000    2015a608     g_cmds.obj
 0002:00000610       __real@403f000000000000    2015a610     g_cmds.obj
 0002:00000618       __real@3faa3d71            2015a618     g_cmds.obj
 0002:0000061c       __real@3f28f5c3            2015a61c     g_cmds.obj
 0002:00000620       __real@c479c000            2015a620     g_cmds.obj
 0002:00000624       __real@400ccccd            2015a624     g_cmds.obj
 0002:00000628       __real@40266666            2015a628     g_cmds.obj
 0002:0000062c       __real@40666666            2015a62c     g_cmds.obj
 0002:00000630       __real@bfd3333333333333    2015a630     g_combat.obj
 0002:00000638       __real@bfd999999999999a    2015a638     g_combat.obj
 0002:00000640       __real@3fd54fdf3b645a1d    2015a640     g_combat.obj
 0002:00000648       __real@3fe54fdf3b645a1d    2015a648     g_combat.obj
 0002:00000650       __real@bfe54fdf3b645a1d    2015a650     g_combat.obj
 0002:00000658       __real@bfd54fdf3b645a1d    2015a658     g_combat.obj
 0002:00000660       __real@4010000000000000    2015a660     g_combat.obj
 0002:00000668       __real@46800000            2015a668     g_combat.obj
 0002:0000066c       __real@c1a00000            2015a66c     g_combat.obj
 0002:00000670       __real@c2200000            2015a670     g_combat.obj
 0002:00000678       __real@bfb999999999999a    2015a678     g_combat.obj
 0002:00000680       __real@c1200000            2015a680     g_combat.obj
 0002:00000688       __real@3ff999999999999a    2015a688     g_combat.obj
 0002:00000690       __real@3feb333333333333    2015a690     g_combat.obj
 0002:00000698       __real@becccccd            2015a698     g_combat.obj
 0002:000006a0       __real@402e000000000000    2015a6a0     g_combat.obj
 0002:000006a8       __real@bff0000000000000    2015a6a8     g_ICARUScb.obj
 0002:000006b0       __real@408f400000000000    2015a6b0     g_ICARUScb.obj
 0002:000006b8       __real@3fc0000000000000    2015a6b8     g_ICARUScb.obj
 0002:000006c0       __real@4020000000000000    2015a6c0     g_items.obj
 0002:000006c8       __real@406f400000000000    2015a6c8     g_items.obj
 0002:000006d0       __real@409f400000000000    2015a6d0     g_items.obj
 0002:000006d8       __real@437e0000            2015a6d8     g_items.obj
 0002:000006dc       __real@3f666666            2015a6dc     g_items.obj
 0002:000006e0       __real@38d1b717            2015a6e0     g_items.obj
 0002:000006e4       __real@42400000            2015a6e4     g_items.obj
 0002:000006e8       __real@4069000000000000    2015a6e8     g_items.obj
 0002:000006f0       __real@40c8f5c3            2015a6f0     g_main.obj
 0002:000006f4       __real@3f947ae1            2015a6f4     g_main.obj
 0002:000006f8       __real@3f733333            2015a6f8     g_main.obj
 0002:000006fc       __real@3ed70a3d            2015a6fc     g_main.obj
 0002:00000700       __real@3fa8f5c3            2015a700     g_main.obj
 0002:00000704       __real@3f9eb852            2015a704     g_main.obj
 0002:00000708       __real@3f970a3d            2015a708     g_main.obj
 0002:0000070c       __real@3f851eb8            2015a70c     g_main.obj
 0002:00000710       __real@3cf5c28f            2015a710     g_main.obj
 0002:00000718       __real@3fe4cccccccccccd    2015a718     g_missile.obj
 0002:00000720       __real@46000000            2015a720     g_missile.obj
 0002:00000724       __real@42040000            2015a724     g_mover.obj
 0002:00000728       __real@3fc45f306446f9b4    2015a728     g_mover.obj
 0002:00000730       __real@3ffc000000000000    2015a730     g_mover.obj
 0002:00000738       __real@40c00000            2015a738     g_mover.obj
 0002:0000073c       __real@43c30000            2015a73c     g_mover.obj
 0002:00000740       __real@4038000000000000    2015a740     g_nav.obj
 0002:00000748       __real@4048000000000000    2015a748     g_nav.obj
 0002:00000750       __real@beb33333            2015a750     g_nav.obj
 0002:00000754       __real@41b40000            2015a754     g_nav.obj
 0002:00000758       __real@3ff3333333333333    2015a758     g_navnew.obj
 0002:00000760       __real@bfe6666666666666    2015a760     g_object.obj
 0002:00000768       __real@45fa0000            2015a768     g_team.obj
 0002:0000076c       __real@425c0000            2015a76c     g_turret.obj
 0002:00000770       __real@460ca000            2015a770     g_turret.obj
 0002:00000774       __real@41b00000            2015a774     g_turret_G2.obj
 0002:00000778       __real@bfefae147ae147ae    2015a778     g_utils.obj
 0002:00000780       __real@3fefae147ae147ae    2015a780     g_utils.obj
 0002:00000788       __real@3f50624de0000000    2015a788     g_utils.obj
 0002:00000790       __real@c3020000            2015a790     g_vehicles.obj
 0002:00000794       __real@43020000            2015a794     g_vehicles.obj
 0002:00000798       __real@3e0f5c29            2015a798     g_vehicles.obj
 0002:0000079c       __real@3f7d70a4            2015a79c     g_vehicles.obj
 0002:000007a0       __real@4094500000000000    2015a7a0     g_weapon.obj
 0002:000007a8       __real@3fd3333340000000    2015a7a8     g_weapon.obj
 0002:000007b0       __real@44610000            2015a7b0     g_weapon.obj
 0002:000007b4       __real@41500000            2015a7b4     g_weapon.obj
 0002:000007b8       __real@41600000            2015a7b8     g_weapon.obj
 0002:000007c0       __real@c054000000000000    2015a7c0     g_weapon.obj
 0002:000007c8       __real@bfe8000000000000    2015a7c8     g_weapon.obj
 0002:000007d0       __real@c32a0000            2015a7d0     g_weapon.obj
 0002:000007d4       __real@c2a00000            2015a7d4     g_weapon.obj
 0002:000007d8       __real@47000000            2015a7d8     g_weapon.obj
 0002:000007e0       __real@3ffe666660000000    2015a7e0     g_weapon.obj
 0002:000007e8       __real@40059999a0000000    2015a7e8     g_weapon.obj
 0002:000007f0       __real@c2ee0000            2015a7f0     g_weapon.obj
 0002:000007f4       __real@3fd5c28f            2015a7f4     g_weapon.obj
 0002:000007f8       __real@42380000            2015a7f8     g_weapon.obj
 0002:000007fc       __real@be4ccccd            2015a7fc     g_weapon.obj
 0002:00000800       __real@48c80000            2015a800     NPC_AI_Atst.obj
 0002:00000808       __real@4039000000000000    2015a808     NPC_AI_Droid.obj
 0002:00000810       __real@44098000            2015a810     NPC_AI_Droid.obj
 0002:00000818       __real@4050000000000000    2015a818     NPC_AI_Droid.obj
 0002:00000820       __real@48440000            2015a820     NPC_AI_GalakMech.obj
 0002:00000824       __real@49800000            2015a824     NPC_AI_Grenadier.obj
 0002:00000828       __real@40b3880000000000    2015a828     NPC_AI_Howler.obj
 0002:00000830       __real@44d48000            2015a830     NPC_AI_Howler.obj
 0002:00000834       __real@45364000            2015a834     NPC_AI_Howler.obj
 0002:00000838       __real@4030000000000000    2015a838     NPC_AI_ImperialProbe.obj
 0002:00000840       __real@c2300000            2015a840     NPC_AI_Jedi.obj
 0002:00000844       __real@c1300000            2015a844     NPC_AI_Jedi.obj
 0002:00000848       __real@c1b00000            2015a848     NPC_AI_Jedi.obj
 0002:0000084c       __real@c1400000            2015a84c     NPC_AI_Jedi.obj
 0002:00000850       __real@48100000            2015a850     NPC_AI_Jedi.obj
 0002:00000854       __real@c3c80000            2015a854     NPC_AI_Jedi.obj
 0002:00000858       __real@491c4000            2015a858     NPC_AI_Jedi.obj
 0002:0000085c       __real@4893b480            2015a85c     NPC_AI_Jedi.obj
 0002:00000860       __real@47d4b200            2015a860     NPC_AI_Jedi.obj
 0002:00000864       __real@483d1000            2015a864     NPC_AI_Jedi.obj
 0002:00000868       __real@473d1000            2015a868     NPC_AI_Jedi.obj
 0002:0000086c       __real@47c80000            2015a86c     NPC_AI_Mark1.obj
 0002:00000870       __real@44100000            2015a870     NPC_AI_Mark2.obj
 0002:00000874       __real@44dac000            2015a874     NPC_AI_MineMonster.obj
 0002:00000878       __real@40c9999a            2015a878     NPC_AI_Seeker.obj
 0002:00000880       __real@404c000000000000    2015a880     NPC_AI_Seeker.obj
 0002:00000888       __real@3d99999a            2015a888     NPC_AI_Stormtrooper.obj
 0002:0000088c       __real@43d70000            2015a88c     NPC_AI_Wampa.obj
 0002:00000890       __real@3ff547ae147ae148    2015a890     NPC_behavior.obj
 0002:00000898       __real@3fea8f5c28f5c28f    2015a898     NPC_behavior.obj
 0002:000008a0       __real@3c23d70a            2015a8a0     NPC_behavior.obj
 0002:000008a4       __real@45100000            2015a8a4     NPC_combat.obj
 0002:000008a8       __real@4b800000            2015a8a8     NPC_combat.obj
 0002:000008b0       __real@bfe0000000000000    2015a8b0     NPC_combat.obj
 0002:000008b8       __real@c2fe0000            2015a8b8     NPC_move.obj
 0002:000008bc       __real@3eaa7efa            2015a8bc     NPC_spawn.obj
 0002:000008c0       __real@3bc154ca            2015a8c0     NPC_spawn.obj
 0002:000008c4       __real@41e00000            2015a8c4     NPC_utils.obj
 0002:000008c8       __real@404e000000000000    2015a8c8     NPC_utils.obj
 0002:000008d0       __real@3f847ae140000000    2015a8d0     NPC_utils.obj
 0002:000008d8       __real@401c000000000000    2015a8d8     NPC_utils.obj
 0002:000008e0       __real@3b83126f            2015a8e0     NPC_utils.obj
 0002:000008e8       __real@4066c16c16c16c17    2015a8e8     q_math.obj
 0002:000008f0       __real@3c8efa35            2015a8f0     q_math.obj
 0002:000008f4       __real@3f355555            2015a8f4     q_math.obj
 0002:000008f8       __real@3eb0c6f7a0b5ed8d    2015a8f8     tri_coll_test.obj
 0002:00000900       _forcePowerMinRank         2015a900     w_force.obj
 0002:00000a20       _mindTrickTime             2015aa20     w_force.obj
 0002:00000a30       __real@3f9999999999999a    2015aa30     w_force.obj
 0002:00000a38       __real@43848000            2015aa38     w_force.obj
 0002:00000a3c       __real@40c90fdb            2015aa3c     w_force.obj
 0002:00000a40       __real@bf666666            2015aa40     w_saber.obj
 0002:00000a48       __real@3fe570a3d0000000    2015aa48     w_saber.obj
 0002:00000a50       __real@be800000            2015aa50     w_saber.obj
 0002:00000a54       __real@44af0000            2015aa54     w_saber.obj
 0002:00000a58       __real@44548000            2015aa58     w_saber.obj
 0002:00000a5c       __real@44898000            2015aa5c     w_saber.obj
 0002:00000a60       __real@44834000            2015aa60     w_saber.obj
 0002:00000a64       __real@c28c0000            2015aa64     w_saber.obj
 0002:00000a68       __real@44200000            2015aa68     w_saber.obj
 0002:00000a6c       __real@bc9374bc            2015aa6c     WalkerNPC.obj
 0002:00000b1c       ??_C@_05KLBDPFGC@e?$CL000?$AA@ 2015ab1c     LIBC:cvt.obj
 0002:00000b28       __real@4150017ec0000000    2015ab28     LIBC:testfdiv.obj
 0002:00000b30       __real@4147ffff80000000    2015ab30     LIBC:testfdiv.obj
 0002:00000b38       ??_C@_0BK@NHEOCAHP@IsProcessorFeaturePresent?$AA@ 2015ab38     LIBC:testfdiv.obj
 0002:00000b54       ??_C@_08CPNIBGIE@KERNEL32?$AA@ 2015ab54     LIBC:testfdiv.obj
 0002:00000b68       __DEFAULT_CW_in_mem        2015ab68     LIBC:common.obj
 0002:00000b6a       __pi_by_2_to_61            2015ab6a     LIBC:common.obj
 0002:00000ba8       ___newctype                2015aba8     LIBC:ctype.obj
 0002:00000ea8       __wctype                   2015aea8     LIBC:ctype.obj
 0002:000010f0       ??_C@_0L@KDOEJCKC@_nextafter?$AA@ 2015b0f0     LIBC:fpexcept.obj
 0002:000010fc       ??_C@_05JGDBENOH@_logb?$AA@ 2015b0fc     LIBC:fpexcept.obj
 0002:00001104       ??_C@_03ONILCKOB@_yn?$AA@  2015b104     LIBC:fpexcept.obj
 0002:00001108       ??_C@_03NAKIGLHK@_y1?$AA@  2015b108     LIBC:fpexcept.obj
 0002:0000110c       ??_C@_03MJLDFKDL@_y0?$AA@  2015b10c     LIBC:fpexcept.obj
 0002:00001110       ??_C@_05GKKHEGJL@frexp?$AA@ 2015b110     LIBC:fpexcept.obj
 0002:00001118       ??_C@_04KEPJIHGP@fmod?$AA@ 2015b118     LIBC:fpexcept.obj
 0002:00001120       ??_C@_06MEIMCGCF@_hypot?$AA@ 2015b120     LIBC:fpexcept.obj
 0002:00001128       ??_C@_05KBKMEMPO@_cabs?$AA@ 2015b128     LIBC:fpexcept.obj
 0002:00001130       ??_C@_05CEJMAHNP@ldexp?$AA@ 2015b130     LIBC:fpexcept.obj
 0002:00001138       ??_C@_04EHEDPDJG@modf?$AA@ 2015b138     LIBC:fpexcept.obj
 0002:00001140       ??_C@_04ODHECPBC@fabs?$AA@ 2015b140     LIBC:fpexcept.obj
 0002:00001148       ??_C@_05PBJFFIGL@floor?$AA@ 2015b148     LIBC:fpexcept.obj
 0002:00001150       ??_C@_04GFPJNGEK@ceil?$AA@ 2015b150     LIBC:fpexcept.obj
 0002:00001158       ??_C@_03IIINPABG@tan?$AA@  2015b158     LIBC:fpexcept.obj
 0002:0000115c       ??_C@_03LALBNOCG@cos?$AA@  2015b15c     LIBC:fpexcept.obj
 0002:00001160       ??_C@_03BLEJJJBH@sin?$AA@  2015b160     LIBC:fpexcept.obj
 0002:00001164       ??_C@_04EIAKFFMI@sqrt?$AA@ 2015b164     LIBC:fpexcept.obj
 0002:0000116c       ??_C@_05KNGEOGJB@atan2?$AA@ 2015b16c     LIBC:fpexcept.obj
 0002:00001174       ??_C@_04MLLJIGOK@atan?$AA@ 2015b174     LIBC:fpexcept.obj
 0002:0000117c       ??_C@_04PDIFKINK@acos?$AA@ 2015b17c     LIBC:fpexcept.obj
 0002:00001184       ??_C@_04FIHNOPOL@asin?$AA@ 2015b184     LIBC:fpexcept.obj
 0002:0000118c       ??_C@_04FJHINJAO@tanh?$AA@ 2015b18c     LIBC:fpexcept.obj
 0002:00001194       ??_C@_04HPJJNFIM@cosh?$AA@ 2015b194     LIBC:fpexcept.obj
 0002:0000119c       ??_C@_04COOMCNPB@sinh?$AA@ 2015b19c     LIBC:fpexcept.obj
 0002:000011a4       ??_C@_05HGHHAHAP@log10?$AA@ 2015b1a4     LIBC:fpexcept.obj
 0002:000011ac       ??_C@_03MGHMBJCF@log?$AA@  2015b1ac     LIBC:fpexcept.obj
 0002:000011b0       ??_C@_03JGHBODFD@pow?$AA@  2015b1b0     LIBC:fpexcept.obj
 0002:000011b4       ??_C@_03KHJOGHMM@exp?$AA@  2015b1b4     LIBC:fpexcept.obj
 0002:00001220       ??_C@_04HPAFEEIN@exp2?$AA@ 2015b220     LIBC:libm_error.obj
 0002:00001228       ??_C@_05EOHGHCHD@exp10?$AA@ 2015b228     LIBC:libm_error.obj
 0002:00001230       ??_C@_04KGLCPMCP@log2?$AA@ 2015b230     LIBC:libm_error.obj
 0002:00001244       ??_C@_0N@FFJGBINN@AuthenticAMD?$AA@ 2015b244     LIBC:cpu_disp.obj
 0002:00004bb0       ___lookuptable             2015ebb0     LIBC:output.obj
 0002:00004c0c       ??_C@_1O@CEDCILHN@?$AA?$CI?$AAn?$AAu?$AAl?$AAl?$AA?$CJ?$AA?$AA@ 2015ec0c     LIBC:output.obj
 0002:00004c1c       ??_C@_06OJHGLDPL@?$CInull?$CJ?$AA@ 2015ec1c     LIBC:output.obj
 0002:00004c24       ??_C@_0P@MIGLKIOC@CorExitProcess?$AA@ 2015ec24     LIBC:crt0dat.obj
 0002:00004c34       ??_C@_0M@MBOPBNBK@mscoree?4dll?$AA@ 2015ec34     LIBC:crt0dat.obj
 0002:00004c5c       ??_C@_0P@GGKDKEEG@runtime?5error?5?$AA@ 2015ec5c     LIBC:crt0msg.obj
 0002:00004c6c       ??_C@_02PCIJFNDE@?$AN?6?$AA@ 2015ec6c     LIBC:crt0msg.obj
 0002:00004c70       ??_C@_0O@MJNIPGOH@TLOSS?5error?$AN?6?$AA@ 2015ec70     LIBC:crt0msg.obj
 0002:00004c80       ??_C@_0N@BONNPDHF@SING?5error?$AN?6?$AA@ 2015ec80     LIBC:crt0msg.obj
 0002:00004c90       ??_C@_0P@MBDAJNE@DOMAIN?5error?$AN?6?$AA@ 2015ec90     LIBC:crt0msg.obj
 0002:00004ca0       ??_C@_0KC@BDDGGBEJ@R6029?$AN?6?9?5This?5application?5cannot@ 2015eca0     LIBC:crt0msg.obj
 0002:00004d44       ??_C@_0CF@KJDAIALP@R6028?$AN?6?9?5unable?5to?5initialize?5he@ 2015ed44     LIBC:crt0msg.obj
 0002:00004d6c       ??_C@_0DF@GAKBPDFP@R6027?$AN?6?9?5not?5enough?5space?5for?5lo@ 2015ed6c     LIBC:crt0msg.obj
 0002:00004da4       ??_C@_0DF@IBLNNAIG@R6026?$AN?6?9?5not?5enough?5space?5for?5st@ 2015eda4     LIBC:crt0msg.obj
 0002:00004ddc       ??_C@_0CG@IOHKGFNJ@R6025?$AN?6?9?5pure?5virtual?5function?5c@ 2015eddc     LIBC:crt0msg.obj
 0002:00004e04       ??_C@_0DF@JIJJFJDC@R6024?$AN?6?9?5not?5enough?5space?5for?5_o@ 2015ee04     LIBC:crt0msg.obj
 0002:00004e3c       ??_C@_0CJ@EGEJHFME@R6019?$AN?6?9?5unable?5to?5open?5console?5@ 2015ee3c     LIBC:crt0msg.obj
 0002:00004e68       ??_C@_0CB@GNHNIELH@R6018?$AN?6?9?5unexpected?5heap?5error?$AN?6@ 2015ee68     LIBC:crt0msg.obj
 0002:00004e8c       ??_C@_0CN@FOLDKNG@R6017?$AN?6?9?5unexpected?5multithread?5@ 2015ee8c     LIBC:crt0msg.obj
 0002:00004ebc       ??_C@_0CM@FAHFJNHO@R6016?$AN?6?9?5not?5enough?5space?5for?5th@ 2015eebc     LIBC:crt0msg.obj
 0002:00004ee8       ??_C@_0JG@LBKMGKLD@?$AN?6This?5application?5has?5requested@ 2015eee8     LIBC:crt0msg.obj
 0002:00004f80       ??_C@_0CM@FLCNIPKK@R6009?$AN?6?9?5not?5enough?5space?5for?5en@ 2015ef80     LIBC:crt0msg.obj
 0002:00004fac       ??_C@_0CK@KMMJOAPP@R6008?$AN?6?9?5not?5enough?5space?5for?5ar@ 2015efac     LIBC:crt0msg.obj
 0002:00004fd8       ??_C@_0CF@HOHMHDEK@R6002?$AN?6?9?5floating?5point?5not?5load@ 2015efd8     LIBC:crt0msg.obj
 0002:00005000       ??_C@_0CF@GOGNBNAK@Microsoft?5Visual?5C?$CL?$CL?5Runtime?5Lib@ 2015f000     LIBC:crt0msg.obj
 0002:00005028       ??_C@_02PHMGELLB@?6?6?$AA@ 2015f028     LIBC:crt0msg.obj
 0002:0000502c       ??_C@_0BK@OFGJDLJJ@Runtime?5Error?$CB?6?6Program?3?5?$AA@ 2015f02c     LIBC:crt0msg.obj
 0002:00005048       ??_C@_03KHICJKCI@?4?4?4?$AA@ 2015f048     LIBC:crt0msg.obj
 0002:0000504c       ??_C@_0BH@DNAGHKFM@?$DMprogram?5name?5unknown?$DO?$AA@ 2015f04c     LIBC:crt0msg.obj
 0002:00005094       ??_C@_0BI@DFKBFLJE@GetProcessWindowStation?$AA@ 2015f094     LIBC:crtmbox.obj
 0002:000050ac       ??_C@_0BK@CIDNPOGP@GetUserObjectInformationA?$AA@ 2015f0ac     LIBC:crtmbox.obj
 0002:000050c8       ??_C@_0BD@HHGDFDBJ@GetLastActivePopup?$AA@ 2015f0c8     LIBC:crtmbox.obj
 0002:000050dc       ??_C@_0BA@HNOPNCHB@GetActiveWindow?$AA@ 2015f0dc     LIBC:crtmbox.obj
 0002:000050ec       ??_C@_0M@CHKKJDAI@MessageBoxA?$AA@ 2015f0ec     LIBC:crtmbox.obj
 0002:000050f8       ??_C@_0L@GMPLCCII@user32?4dll?$AA@ 2015f0f8     LIBC:crtmbox.obj
 0002:00005104       ??_C@_06IMKFLFPG@1?$CDQNAN?$AA@ 2015f104     LIBC:x10fout.obj
 0002:0000510c       ??_C@_05DNEBIAHO@1?$CDINF?$AA@ 2015f10c     LIBC:x10fout.obj
 0002:00005114       ??_C@_05PHHOCPM@1?$CDIND?$AA@ 2015f114     LIBC:x10fout.obj
 0002:0000511c       ??_C@_06PGGFOGJG@1?$CDSNAN?$AA@ 2015f11c     LIBC:x10fout.obj
 0002:00005124       ??_C@_09KLGCKDOD@Program?3?5?$AA@ 2015f124     LIBC:secfail.obj
 0002:00005130       ??_C@_0KA@JEHFIFGP@A?5buffer?5overrun?5has?5been?5detect@ 2015f130     LIBC:secfail.obj
 0002:000051d0       ??_C@_0BJ@MDEKIEOJ@Buffer?5overrun?5detected?$CB?$AA@ 2015f1d0     LIBC:secfail.obj
 0002:000051f0       ??_C@_0LB@BPLHHLFD@A?5security?5error?5of?5unknown?5caus@ 2015f1f0     LIBC:secfail.obj
 0002:000052a4       ??_C@_0CD@GMKACBEK@Unknown?5security?5failure?5detecte@ 2015f2a4     LIBC:secfail.obj
 0002:000052d8       __load_config_used         2015f2d8     LIBC:loadcfg.obj
 0002:00005380       ___safe_se_handler_table   2015f380     <linker-defined>
 0002:00005388       ___rtc_iaa                 2015f388     LIBC:initsect.obj
 0002:0000538c       ___rtc_izz                 2015f38c     LIBC:initsect.obj
 0002:00005390       ___rtc_taa                 2015f390     LIBC:initsect.obj
 0002:00005394       ___rtc_tzz                 2015f394     LIBC:initsect.obj
 0002:00005398       __IMPORT_DESCRIPTOR_KERNEL32 2015f398     kernel32:KERNEL32.dll
 0002:000053ac       __IMPORT_DESCRIPTOR_SHELL32 2015f3ac     shell32:SHELL32.dll
 0002:000053c0       __NULL_IMPORT_DESCRIPTOR   2015f3c0     kernel32:KERNEL32.dll
 0003:00000000       ___xc_a                    20160000     LIBC:crt0init.obj
 0003:00000008       ___xc_z                    20160008     LIBC:crt0init.obj
 0003:0000000c       ___xi_a                    2016000c     LIBC:crt0init.obj
 0003:00000020       ___xi_z                    20160020     LIBC:crt0init.obj
 0003:00000024       ___xp_a                    20160024     LIBC:crt0init.obj
 0003:0000002c       ___xp_z                    2016002c     LIBC:crt0init.obj
 0003:00000030       ___xt_a                    20160030     LIBC:crt0init.obj
 0003:00000034       ___xt_z                    20160034     LIBC:crt0init.obj
 0003:000000d4       _ctfStateNames             201600d4     ai_main.obj
 0003:00000194       _ctfStateDescriptions      20160194     ai_main.obj
 0003:00000230       _siegeStateDescriptions    20160230     ai_main.obj
 0003:000002c0       _teamplayStateDescriptions 201602c0     ai_main.obj
 0003:000007d8       _gLastPrintedIndex         201607d8     ai_wpnav.obj
 0003:00000c40       _botGlobalNavWeaponWeights 20160c40     ai_wpnav.obj
 0003:00001768       _bgToggleableSurfaces      20161768     bg_misc.obj
 0003:00001968       _bg_customSiegeSoundNames  20161968     bg_misc.obj
 0003:00001a40       _forceMasteryLevels        20161a40     bg_misc.obj
 0003:00001a60       _forceMasteryPoints        20161a60     bg_misc.obj
 0003:00001a80       _bgForcePowerCost          20161a80     bg_misc.obj
 0003:00001ba0       _forcePowerSorted          20161ba0     bg_misc.obj
 0003:00001be8       _forcePowerDarkLight       20161be8     bg_misc.obj
 0003:00001c30       _WeaponReadyAnim           20161c30     bg_misc.obj
 0003:00001c80       _WeaponReadyLegsAnim       20161c80     bg_misc.obj
 0003:00001cd0       _WeaponAttackAnim          20161cd0     bg_misc.obj
 0003:00003af0       _bg_itemlist               20163af0     bg_misc.obj
 0003:00004650       _bg_numItems               20164650     bg_misc.obj
 0003:00004e08       _eventnames                20164e08     bg_misc.obj
 0003:0000b918       _animTable                 2016b918     bg_panimate.obj
 0003:0000e984       _bgNumAllAnims             2016e984     bg_panimate.obj
 0003:0000e9e8       _pm_stopspeed              2016e9e8     bg_pmove.obj
 0003:0000e9ec       _pm_duckScale              2016e9ec     bg_pmove.obj
 0003:0000e9f0       _pm_swimScale              2016e9f0     bg_pmove.obj
 0003:0000e9f4       _pm_wadeScale              2016e9f4     bg_pmove.obj
 0003:0000e9f8       _pm_vehicleaccelerate      2016e9f8     bg_pmove.obj
 0003:0000e9fc       _pm_accelerate             2016e9fc     bg_pmove.obj
 0003:0000ea00       _pm_airaccelerate          2016ea00     bg_pmove.obj
 0003:0000ea04       _pm_wateraccelerate        2016ea04     bg_pmove.obj
 0003:0000ea08       _pm_flyaccelerate          2016ea08     bg_pmove.obj
 0003:0000ea0c       _pm_friction               2016ea0c     bg_pmove.obj
 0003:0000ea10       _pm_waterfriction          2016ea10     bg_pmove.obj
 0003:0000ea14       _pm_flightfriction         2016ea14     bg_pmove.obj
 0003:0000ea18       _pm_spectatorfriction      2016ea18     bg_pmove.obj
 0003:0000ea1c       _forceSpeedLevels          2016ea1c     bg_pmove.obj
 0003:0000ea30       _forcePowerNeeded          2016ea30     bg_pmove.obj
 0003:0000eb50       _forceJumpHeight           2016eb50     bg_pmove.obj
 0003:0000eb60       _forceJumpStrength         2016eb60     bg_pmove.obj
 0003:0000eb70       _forceJumpHeightMax        2016eb70     bg_pmove.obj
 0003:0000f548       _saberMoveData             2016f548     bg_saber.obj
 0003:00010e98       _transitionMove            20170e98     bg_saber.obj
 0003:00010f98       _saberMoveTransitionAngle  20170f98     bg_saber.obj
 0003:00011098       _bg_parryDebounce          20171098     bg_saber.obj
 0003:00011148       _SaberTable                20171148     bg_saberLoad.obj
 0003:000115b8       _SaberMoveTable            201715b8     bg_saberLoad.obj
 0003:00012338       _bgSiegeClassFlagNames     20172338     bg_saga.obj
 0003:000123d8       _StanceTable               201723d8     bg_saga.obj
 0003:00012548       _WPTable                   20172548     bg_saga.obj
 0003:000126e0       _FPTable                   201726e0     bg_saga.obj
 0003:00012810       _HoldableTable             20172810     bg_saga.obj
 0003:00012968       _PowerupTable              20172968     bg_saga.obj
 0003:00012d8c       _classTitles               20172d8c     bg_saga.obj
 0003:00013200       _numVehicleWeapons         20173200     bg_vehicleLoad.obj
 0003:00013320       _vehWeaponFields           20173320     bg_vehicleLoad.obj
 0003:00013fc0       _vehicleFields             20173fc0     bg_vehicleLoad.obj
 0003:00014838       _VehicleTable              20174838     bg_vehicleLoad.obj
 0003:00015048       _WP_MuzzlePoint            20175048     bg_weapons.obj
 0003:00015130       _weaponData                20175130     bg_weapons.obj
 0003:00015558       _ammoData                  20175558     bg_weapons.obj
 0003:000200a8       _modNames                  201800a8     g_combat.obj
 0003:000207d0       _hitLocName                201807d0     g_combat.obj
 0003:00020be8       _gPainHitLoc               20180be8     g_combat.obj
 0003:00021ed8       _setTable                  20181ed8     g_ICARUScb.obj
 0003:000298fc       _BMS_MID                   201898fc     g_mover.obj
 0003:00029900       _BMS_END                   20189900     g_mover.obj
 0003:0002a100       _gSiegeBeginTime           2018a100     g_saga.obj
 0003:0002ab48       _fields                    2018ab48     g_spawn.obj
 0003:0002bde8       _spawns                    2018bde8     g_spawn.obj
 0003:0002e930       _NPCDEBUG_RED              2018e930     NPC.obj
 0003:0002e93c       _NPCDEBUG_GREEN            2018e93c     NPC.obj
 0003:0002e948       _NPCDEBUG_BLUE             2018e948     NPC.obj
 0003:0002e954       _NPCDEBUG_LIGHT_BLUE       2018e954     NPC.obj
 0003:000350b0       _TeamTable                 201950b0     NPC_stats.obj
 0003:00035418       _ClassTable                20195418     NPC_stats.obj
 0003:00035668       _BSTable                   20195668     NPC_stats.obj
 0003:000357a8       _BSETTable                 201957a8     NPC_stats.obj
 0003:00035858       _TeamNames                 20195858     NPC_stats.obj
 0003:00035a70       _ClassNames                20195a70     NPC_stats.obj
 0003:00036a08       _axisDefault               20196a08     q_math.obj
 0003:00036a2c       _colorBlack                20196a2c     q_math.obj
 0003:00036a3c       _colorRed                  20196a3c     q_math.obj
 0003:00036a4c       _colorGreen                20196a4c     q_math.obj
 0003:00036a5c       _colorBlue                 20196a5c     q_math.obj
 0003:00036a6c       _colorYellow               20196a6c     q_math.obj
 0003:00036a7c       _colorMagenta              20196a7c     q_math.obj
 0003:00036a8c       _colorCyan                 20196a8c     q_math.obj
 0003:00036a9c       _colorWhite                20196a9c     q_math.obj
 0003:00036aac       _colorLtGrey               20196aac     q_math.obj
 0003:00036abc       _colorMdGrey               20196abc     q_math.obj
 0003:00036acc       _colorDkGrey               20196acc     q_math.obj
 0003:00036adc       _colorLtBlue               20196adc     q_math.obj
 0003:00036aec       _colorDkBlue               20196aec     q_math.obj
 0003:00036b00       _g_color_table             20196b00     q_math.obj
 0003:00036b80       _bytedirs                  20196b80     q_math.obj
 0003:000377e0       _forcePushPullRadius       201977e0     w_force.obj
 0003:00037eb0       __fltused                  20197eb0     LIBC:fpinit.obj
 0003:00037eb4       __ldused                   20197eb4     LIBC:fpinit.obj
 0003:00037eb8       __FPinit                   20197eb8     LIBC:fpinit.obj
 0003:00037ebc       __FPmtinit                 20197ebc     LIBC:fpinit.obj
 0003:00037ec0       __FPmtterm                 20197ec0     LIBC:fpinit.obj
 0003:00037f00       __half                     20197f00     LIBC:pow.obj
 0003:00037f20       __OP_FMODjmptab            20197f20     LIBC:87fmod.obj
 0003:00037f80       __aexit_rtn                20197f80     LIBC:dllcrt0.obj
 0003:00037f84       __cfltcvt_tab              20197f84     LIBC:cmiscdat.obj
 0003:00037fa0       __indefinite               20197fa0     LIBC:87disp.obj
 0003:00037faa       __piby2                    20197faa     LIBC:87disp.obj
 0003:00037fbc       __cpower                   20197fbc     LIBC:87disp.obj
 0003:00037fd0       __amblksiz                 20197fd0     LIBC:heapinit.obj
 0003:00037fe4       __pctype                   20197fe4     LIBC:ctype.obj
 0003:00037fe8       __pwctype                  20197fe8     LIBC:ctype.obj
 0003:00037fec       ___mb_cur_max              20197fec     LIBC:nlsdata1.obj
 0003:00037ff0       ___decimal_point           20197ff0     LIBC:nlsdata1.obj
 0003:00037ff4       ___decimal_point_length    20197ff4     LIBC:nlsdata1.obj
 0003:00038000       __OP_ATAN2jmptab           20198000     LIBC:87triga.obj
 0003:00038138       __d_inf                    20198138     LIBC:util.obj
 0003:00038140       __d_ind                    20198140     LIBC:util.obj
 0003:00038148       __d_max                    20198148     LIBC:util.obj
 0003:00038150       __d_min                    20198150     LIBC:util.obj
 0003:00038158       __d_mzero                  20198158     LIBC:util.obj
 0003:00038178       __pmatherr                 20198178     LIBC:libm_error.obj
 0003:00038184       ___lc_clike                20198184     LIBC:nlsdata2.obj
 0003:00038190       __infinity                 20198190     LIBC:87tran.obj
 0003:0003819a       __minfinity                2019819a     LIBC:87tran.obj
 0003:000381a4       __logemax                  201981a4     LIBC:87tran.obj
 0003:000381d4       __OP_EXPjmptab             201981d4     LIBC:87tran.obj
 0003:00038200       ___nullstring              20198200     LIBC:output.obj
 0003:00038204       ___wnullstring             20198204     LIBC:output.obj
 0003:00038370       ___badioinfo               20198370     LIBC:ioinit.obj
 0003:00038378       __XcptActTab               20198378     LIBC:winxfltr.obj
 0003:000383f0       __First_FPE_Indx           201983f0     LIBC:winxfltr.obj
 0003:000383f4       __Num_FPE                  201983f4     LIBC:winxfltr.obj
 0003:000383f8       __XcptActTabCount          201983f8     LIBC:winxfltr.obj
 0003:000383fc       __fpecode                  201983fc     LIBC:winxfltr.obj
 0003:000385c0       ___security_cookie         201985c0     LIBC:seccook.obj
 0003:000385c4       __matherr_flag             201985c4     LIBC:matherr.obj
 0003:000385d0       __iob                      201985d0     LIBC:_file.obj
 0003:00038850       __NLG_Destination          20198850     LIBC:exsup.obj
 0003:000389c8       __pow10pos                 201989c8     LIBC:constpow.obj
 0003:00038b28       __pow10neg                 20198b28     LIBC:constpow.obj
 0003:00038cb4       _gUpdateVars               20198cb4     ai_main.obj
 0003:00038cc0       _gWPRenderTime             20198cc0     ai_wpnav.obj
 0003:00038cc4       _gDeactivated              20198cc4     ai_wpnav.obj
 0003:00038cc8       _gBotEdit                  20198cc8     ai_wpnav.obj
 0003:00038ccc       _gWPRenderedFrame          20198ccc     ai_wpnav.obj
 0003:00038cd0       _gWPNum                    20198cd0     ai_wpnav.obj
 0003:00038cd4       _gLevelFlags               20198cd4     ai_wpnav.obj
 0003:00038cd8       _gSpawnPointNum            20198cd8     ai_wpnav.obj
 0003:00315430       _BGPAFtextLoaded           20475430     bg_panimate.obj
 0003:003154f0       _pm_entSelf                204754f0     bg_pmove.obj
 0003:003154f4       _pm_entVeh                 204754f4     bg_pmove.obj
 0003:003154f8       _gPMDoSlowFall             204754f8     bg_pmove.obj
 0003:003154fc       _pm_cancelOutZoom          204754fc     bg_pmove.obj
 0003:00315500       _c_pmove                   20475500     bg_pmove.obj
 0003:0041552c       _siege_valid               2057552c     bg_saga.obj
 0003:00415530       _team1Theme                20575530     bg_saga.obj
 0003:00415534       _team2Theme                20575534     bg_saga.obj
 0003:00415538       _bgNumSiegeClasses         20575538     bg_saga.obj
 0003:0041553c       _bgNumSiegeTeams           2057553c     bg_saga.obj
 0003:00415550       _numVehicles               20575550     bg_vehicleLoad.obj
 0003:00417a28       _gJMSaberEnt               20577a28     g_client.obj
 0003:00417a2c       _g2SaberInstance           20577a2c     g_client.obj
 0003:00417e48       _g_dontPenalizeTeam        20577e48     g_cmds.obj
 0003:00417e4c       _g_preventTeamBegin        20577e4c     g_cmds.obj
 0003:00417e64       _gGAvoidDismember          20577e64     g_combat.obj
 0003:00417e68       _gPainMOD                  20577e68     g_combat.obj
 0003:00417e78       _player_locked             20577e78     g_ICARUScb.obj
 0003:00417ea8       _eventClearTime            20577ea8     g_main.obj
 0003:00417eb0       _killPlayerTimer           20577eb0     g_main.obj
 0003:00417eb4       _gDuelExit                 20577eb4     g_main.obj
 0003:00417ec0       _g_duelAssigning           20577ec0     g_main.obj
 0003:00417ec4       _g_dontFrickinCheck        20577ec4     g_main.obj
 0003:00417ec8       _gQueueScoreMessage        20577ec8     g_main.obj
 0003:00417ecc       _gQueueScoreMessageTime    20577ecc     g_main.obj
 0003:00417ed0       _g_noPDuelCheck            20577ed0     g_main.obj
 0003:00417ed4       _gDidDuelStuff             20577ed4     g_main.obj
 0003:00417ed8       _g_endPDuel                20577ed8     g_main.obj
 0003:00417ee0       _g_duelPrintTimer          20577ee0     g_main.obj
 0003:00417ee8       _g_LastFrameTime           20577ee8     g_main.obj
 0003:00417eec       _g_TimeSinceLastFrame      20577eec     g_main.obj
 0003:00417ef0       _gDoSlowMoDuel             20577ef0     g_main.obj
 0003:00417ef4       _gSlowMoDuelTime           20577ef4     g_main.obj
 0003:00417efc       _g_siegeRespawnCheck       20577efc     g_main.obj
 0003:00474c60       _gEscaping                 205d4c60     g_misc.obj
 0003:00474c64       _gEscapeTime               205d4c64     g_misc.obj
 0003:00474c80       _BMS_START                 205d4c80     g_mover.obj
 0003:0049d490       _navCalculatePaths         205fd490     g_nav.obj
 0003:0049d494       _NAVDEBUG_showNodes        205fd494     g_nav.obj
 0003:0049d498       _NAVDEBUG_showRadius       205fd498     g_nav.obj
 0003:0049d49c       _NAVDEBUG_showEdges        205fd49c     g_nav.obj
 0003:0049d4a0       _NAVDEBUG_showTestPath     205fd4a0     g_nav.obj
 0003:0049d4a4       _NAVDEBUG_showEnemyPath    205fd4a4     g_nav.obj
 0003:0049d4a8       _NAVDEBUG_showCombatPoints 205fd4a8     g_nav.obj
 0003:0049d4ac       _NAVDEBUG_showNavGoals     205fd4ac     g_nav.obj
 0003:0049d4b0       _NAVDEBUG_showCollision    205fd4b0     g_nav.obj
 0003:0049d4b4       _NAVDEBUG_curGoal          205fd4b4     g_nav.obj
 0003:0049d4b8       _fatalErrors               205fd4b8     g_nav.obj
 0003:0049d4bc       _fatalErrorPointer         205fd4bc     g_nav.obj
 0003:004a1cd0       _g_siegePersistant         20601cd0     g_saga.obj
 0003:004a1cdc       _imperial_goals_required   20601cdc     g_saga.obj
 0003:004a1ce0       _imperial_goals_completed  20601ce0     g_saga.obj
 0003:004a1ce4       _rebel_goals_required      20601ce4     g_saga.obj
 0003:004a1ce8       _rebel_goals_completed     20601ce8     g_saga.obj
 0003:004a1cec       _imperial_time_limit       20601cec     g_saga.obj
 0003:004a1cf0       _rebel_time_limit          20601cf0     g_saga.obj
 0003:004a1cf4       _gImperialCountdown        20601cf4     g_saga.obj
 0003:004a1cf8       _gRebelCountdown           20601cf8     g_saga.obj
 0003:004a1cfc       _rebel_attackers           20601cfc     g_saga.obj
 0003:004a1d00       _imperial_attackers        20601d00     g_saga.obj
 0003:004a1d04       _gSiegeRoundBegun          20601d04     g_saga.obj
 0003:004a1d08       _gSiegeRoundEnded          20601d08     g_saga.obj
 0003:004a1d0c       _gSiegeRoundWinningTeam    20601d0c     g_saga.obj
 0003:004a1d10       _g_preroundState           20601d10     g_saga.obj
 0003:004a1d5c       _precachedKyle             20601d5c     g_spawn.obj
 0003:004a3d84       _numNewICARUSEnts          20603d84     g_target.obj
 0003:004c0d54       _remapCount                20620d54     g_utils.obj
 0003:004c0d5c       _gG2KillNum                20620d5c     g_utils.obj
 0003:004c1f94       _enemyDist                 20621f94     NPC_AI_Wampa.obj
 0003:004c1fa4       _showBBoxes                20621fa4     NPC_spawn.obj
 0003:004c1ffc       _vec3_origin               20621ffc     q_math.obj
 0003:004d822c       _speedLoopSound            2063822c     w_force.obj
 0003:004d8230       _rageLoopSound             20638230     w_force.obj
 0003:004d8234       _protectLoopSound          20638234     w_force.obj
 0003:004d8238       _absorbLoopSound           20638238     w_force.obj
 0003:004d823c       _seeLoopSound              2063823c     w_force.obj
 0003:004d8240       _ysalamiriLoopSound        20638240     w_force.obj
 0003:004d87ac       _saberSpinSound            206387ac     w_saber.obj
 0003:004d87d8       ___fastflag                206387d8     LIBC:fpinit.obj
 0003:004d87dc       __adjust_fdiv              206387dc     LIBC:fpinit.obj
 0003:004d87e4       __aenvptr                  206387e4     LIBC:dllcrt0.obj
 0003:004d87e8       __wenvptr                  206387e8     LIBC:dllcrt0.obj
 0003:004d87ec       ___error_mode              206387ec     LIBC:dllcrt0.obj
 0003:004d87f0       ___app_type                206387f0     LIBC:dllcrt0.obj
 0003:004d8804       ?_pnhHeap@@3P6AHI@ZA       20638804     LIBC:handler.obj
 0003:004d8808       __newmode                  20638808     LIBC:_newmode.obj
 0003:004d8840       ___lc_handle               20638840     LIBC:nlsdata2.obj
 0003:004d8858       ___lc_codepage             20638858     LIBC:nlsdata2.obj
 0003:004d885c       ___lc_collate_cp           2063885c     LIBC:nlsdata2.obj
 0003:004d8860       _errno                     20638860     LIBC:crt0dat.obj
 0003:004d8864       __doserrno                 20638864     LIBC:crt0dat.obj
 0003:004d8868       __umaskval                 20638868     LIBC:crt0dat.obj
 0003:004d886c       __osplatform               2063886c     LIBC:crt0dat.obj
 0003:004d8870       __osver                    20638870     LIBC:crt0dat.obj
 0003:004d8874       __winver                   20638874     LIBC:crt0dat.obj
 0003:004d8878       __winmajor                 20638878     LIBC:crt0dat.obj
 0003:004d887c       __winminor                 2063887c     LIBC:crt0dat.obj
 0003:004d8880       ___argc                    20638880     LIBC:crt0dat.obj
 0003:004d8884       ___argv                    20638884     LIBC:crt0dat.obj
 0003:004d8888       ___wargv                   20638888     LIBC:crt0dat.obj
 0003:004d888c       __environ                  2063888c     LIBC:crt0dat.obj
 0003:004d8890       ___initenv                 20638890     LIBC:crt0dat.obj
 0003:004d8894       __wenviron                 20638894     LIBC:crt0dat.obj
 0003:004d8898       ___winitenv                20638898     LIBC:crt0dat.obj
 0003:004d889c       __pgmptr                   2063889c     LIBC:crt0dat.obj
 0003:004d88a0       __wpgmptr                  206388a0     LIBC:crt0dat.obj
 0003:004d88a4       __exitflag                 206388a4     LIBC:crt0dat.obj
 0003:004d88a8       __C_Termination_Done       206388a8     LIBC:crt0dat.obj
 0003:004d88ac       __C_Exit_Done              206388ac     LIBC:crt0dat.obj
 0003:004d89bc       __pxcptinfoptrs            206389bc     LIBC:winxfltr.obj
 0003:004d89c0       __adbgmsg                  206389c0     LIBC:crt0msg.obj
 0003:004d89f8       __cflush                   206389f8     LIBC:_file.obj
 0003:004d8a70       _teamStrength              20638a70     <common>
 0003:004d8a80       _teamNumbers               20638a80     <common>
 0003:004d8aa0       _npcParseBuffer            20638aa0     <common>
 0003:004f8aa0       _NPCFile                   20658aa0     <common>
 0003:004f8ae0       _NPCParms                  20658ae0     <common>
 0003:00518ae0       _gNPCPtrs                  20678ae0     <common>
 0003:00519ae0       _frameNavInfo              20679ae0     <common>
 0003:00519b40       _groupSpeechDebounceTime   20679b40     <common>
 0003:00519b50       __saved_client             20679b50     <common>
 0003:00519b54       _enemyVisibility           20679b54     <common>
 0003:00519b60       _ucmd                      20679b60     <common>
 0003:00519b7c       __saved_NPC                20679b7c     <common>
 0003:00519b80       _NPCInfo                   20679b80     <common>
 0003:00519ba0       __saved_ucmd               20679ba0     <common>
 0003:00519bbc       __saved_NPCInfo            20679bbc     <common>
 0003:00519bc0       _client                    20679bc0     <common>
 0003:00519bc4       _NPC                       20679bc4     <common>
 0003:00519be0       _gClPtrs                   20679be0     <common>
 0003:0051abe0       _remappedShaders           2067abe0     <common>
 0003:0051ede0       _gG2KillIndex              2067ede0     <common>
 0003:0051f1e0       _gTrigFallSound            2067f1e0     <common>
 0003:0051f200       _g_timers                  2067f200     <common>
 0003:00520200       _g_timerPool               20680200     <common>
 0003:00550200       _g_timerFreeList           206b0200     <common>
 0003:00550220       _teamgame                  206b0220     <common>
 0003:0055023c       _g_cullDistance            206b023c     <common>
 0003:00550240       _fatalErrorString          206b0240     <common>
 0003:00551240       _pushed                    206b1240     <common>
 0003:00559240       _pushed_p                  206b9240     <common>
 0003:00559260       _refTagOwnerMap            206b9260     <common>
 0003:0059d4a0       _g_walljumpZvelocity       206fd4a0     <common>
 0003:0059d5c0       _g_password                206fd5c0     <common>
 0003:0059d6e0       _g_jetpacks                206fd6e0     <common>
 0003:0059d800       _g_debugSaberLocks         206fd800     <common>
 0003:0059d920       _g_canjk2roll              206fd920     <common>
 0003:0059da40       _g_smoothClients           206fda40     <common>
 0003:0059db60       _d_saberAlwaysBoxTrace     206fdb60     <common>
 0003:0059dc80       _d_saberBoxTraceSize       206fdc80     <common>
 0003:0059dda0       _g_friendlyFire            206fdda0     <common>
 0003:0059dec0       _g_goldadminpw             206fdec0     <common>
 0003:0059dfe0       _g_saberLockRandomNess     206fdfe0     <common>
 0003:0059e100       _g_forceDodge              206fe100     <common>
 0003:0059e220       _g_podiumDist              206fe220     <common>
 0003:0059e340       _g_forceBasedTeams         206fe340     <common>
 0003:0059e460       _g_gravity                 206fe460     <common>
 0003:0059e580       _g_filterBan               206fe580     <common>
 0003:0059e6a0       _g_restarted               206fe6a0     <common>
 0003:0059e7c0       _g_crane                   206fe7c0     <common>
 0003:0059e8e0       _g_g2TraceLod              206fe8e0     <common>
 0003:0059ea00       _d_saberStanceDebug        206fea00     <common>
 0003:0059eb20       _g_powerDuelEndHealth      206feb20     <common>
 0003:0059ec40       _g_intermissiontime        206fec40     <common>
 0003:0059ed60       _g_saberLocking            206fed60     <common>
 0003:0059ee80       _g_saberRestrictForce      206fee80     <common>
 0003:0059efa0       _g_quadfactor              206fefa0     <common>
 0003:0059f0c0       _g_powerDuelStartHealth    206ff0c0     <common>
 0003:0059f1e0       _g_debugMove               206ff1e0     <common>
 0003:0059f300       _d_saberKickTweak          206ff300     <common>
 0003:0059f420       _g_flipkickvelocity        206ff420     <common>
 0003:0059f540       _g_saberBladeFaces         206ff540     <common>
 0003:0059f660       _g_walljumpYvelocity       206ff660     <common>
 0003:0059f780       _g_weaponTeamRespawn       206ff780     <common>
 0003:0059f8a0       _g_flipkickdamage          206ff8a0     <common>
 0003:0059f9c0       _g_fraglimit               206ff9c0     <common>
 0003:0059fae0       _g_dismember               206ffae0     <common>
 0003:0059fc00       _g_singlePlayer            206ffc00     <common>
 0003:0059fd20       _g_saberRealisticCombat    206ffd20     <common>
 0003:0059fe40       _g_canmeleedeflect         206ffe40     <common>
 0003:0059ff60       _g_dmflags                 206fff60     <common>
 0003:005a0080       _g_maxclients              20700080     <common>
 0003:005a01a0       _g_armBreakage             207001a0     <common>
 0003:005a02c0       _gSharedBuffer             207002c0     <common>
 0003:005a22c0       _d_saberInterpolate        207022c0     <common>
 0003:005a23e0       _g_fraglimitVoteCorrection 207023e0     <common>
 0003:005a2500       _pmove_msec                20702500     <common>
 0003:005a2620       _g_trueJedi                20702620     <common>
 0003:005a2740       _g_RMG                     20702740     <common>
 0003:005a2860       _g_saberDamageScale        20702860     <common>
 0003:005a2980       _g_spskill                 20702980     <common>
 0003:005a2aa0       _bg_fighterAltControl      20702aa0     <common>
 0003:005a2bc0       _g_meleedamage             20702bc0     <common>
 0003:005a2ce0       _g_karmapluspw             20702ce0     <common>
 0003:005a2e00       _g_locationBasedDamage     20702e00     <common>
 0003:005a2f20       _g_synchronousClients      20702f20     <common>
 0003:005a3040       _g_allowHighPingDuelist    20703040     <common>
 0003:005a3160       _g_dropsaberforce          20703160     <common>
 0003:005a3280       _g_throwforce              20703280     <common>
 0003:005a33a0       _g_walljumpXvelocity       207033a0     <common>
 0003:005a34c0       _g_siegeTeam2              207034c0     <common>
 0003:005a35e0       _g_knockback               207035e0     <common>
 0003:005a3700       _g_autoMapCycle            20703700     <common>
 0003:005a3820       _g_noSpecMove              20703820     <common>
 0003:005a3940       _g_warmup                  20703940     <common>
 0003:005a3a60       _debugNPCAI                20703a60     <common>
 0003:005a3b80       _g_leveling                20703b80     <common>
 0003:005a3ca0       _g_saberWallDamageScale    20703ca0     <common>
 0003:005a3dc0       _g_uberthrow               20703dc0     <common>
 0003:005a3ee0       _g_weaponDisable           20703ee0     <common>
 0003:005a4000       _g_weaponRespawn           20704000     <common>
 0003:005a4120       _g_walljumpforce           20704120     <common>
 0003:005a4240       _g_allowVote               20704240     <common>
 0003:005a4360       _g_tkbot                   20704360     <common>
 0003:005a4480       _g_debugAlloc              20704480     <common>
 0003:005a45a0       _g_logClientInfo           207045a0     <common>
 0003:005a46c0       _g_timeouttospec           207046c0     <common>
 0003:005a47e0       _g_debugMelee              207047e0     <common>
 0003:005a4900       _d_perPlayerGhoul2         20704900     <common>
 0003:005a4a20       _g_subadminpw              20704a20     <common>
 0003:005a4b40       _g_dedicated               20704b40     <common>
 0003:005a4c60       _g_fallfadetime            20704c60     <common>
 0003:005a4d80       _g_autorecover             20704d80     <common>
 0003:005a4ea0       _d_projectileGhoul2Collision 20704ea0     <common>
 0003:005a4fc0       _g_suddendeathtime         20704fc0     <common>
 0003:005a50e0       _g_candropsaber            207050e0     <common>
 0003:005a5200       _g_saberDmgDelay_Wound     20705200     <common>
 0003:005a5320       _debugBreak                20705320     <common>
 0003:005a5440       _g_serverculldist          20705440     <common>
 0003:005a5560       _g_siegeTeamSwitch         20705560     <common>
 0003:005a5680       _g_duel_fraglimit          20705680     <common>
 0003:005a57a0       _g_stepSlideFix            207057a0     <common>
 0003:005a58c0       _d_asynchronousGroupAI     207058c0     <common>
 0003:005a59e0       _g_flipkickforce           207059e0     <common>
 0003:005a5b00       _g_saberLockFactor         20705b00     <common>
 0003:005a5c20       _g_secretballot            20705c20     <common>
 0003:005a5d40       _g_maxForceRank            20705d40     <common>
 0003:005a5e60       _g_karmaminuspw            20705e60     <common>
 0003:005a5f80       _g_cancloak                20705f80     <common>
 0003:005a60a0       _d_saberSPStyleDamage      207060a0     <common>
 0003:005a61c0       _g_meleekataforce          207061c0     <common>
 0003:005a62e0       _g_timelimit               207062e0     <common>
 0003:005a6400       _g_enableBreath            20706400     <common>
 0003:005a6520       _g_spawnInvulnerability    20706520     <common>
 0003:005a6640       _g_MaxHolocronCarry        20706640     <common>
 0003:005a6760       _d_altRoutes               20706760     <common>
 0003:005a6880       _debugNoRoam               20706880     <common>
 0003:005a69a0       _g_needpass                207069a0     <common>
 0003:005a6ac0       _g_candivecrane            20706ac0     <common>
 0003:005a6be0       _g_kataforce               20706be0     <common>
 0003:005a6d00       _g_canbuy                  20706d00     <common>
 0003:005a6e20       _g_spawnalt                20706e20     <common>
 0003:005a6f40       _g_forcePowerDisable       20706f40     <common>
 0003:005a7060       _g_blood                   20707060     <common>
 0003:005a7180       _g_siegeRespawn            20707180     <common>
 0003:005a72a0       _g_canhadokenfire          207072a0     <common>
 0003:005a73c0       _g_ff_objectives           207073c0     <common>
 0003:005a74e0       _g_debugthrow              207074e0     <common>
 0003:005a7600       _g_listEntity              20707600     <common>
 0003:005a7720       _g_inactivity              20707720     <common>
 0003:005a7840       _g_siegeTeam1              20707840     <common>
 0003:005a7960       _debugNPCFreeze            20707960     <common>
 0003:005a7a80       _g_useWhileThrowing        20707a80     <common>
 0003:005a7ba0       _d_JediAI                  20707ba0     <common>
 0003:005a7cc0       _g_slowmoDuelEnd           20707cc0     <common>
 0003:005a7de0       _d_saberCombat             20707de0     <common>
 0003:005a7f00       _g_cheats                  20707f00     <common>
 0003:005a8020       _g_hadokenforce            20708020     <common>
 0003:005a8140       _g_100goldpw               20708140     <common>
 0003:005a8260       _g_statLog                 20708260     <common>
 0003:005a8380       _g_maxGameClients          20708380     <common>
 0003:005a84a0       _g_divecraneforce          207084a0     <common>
 0003:005a85c0       _g_developer               207085c0     <common>
 0003:005a86e0       _g_saberDmgDelay_Idle      207086e0     <common>
 0003:005a8800       _debugNPCAimingBeam        20708800     <common>
 0003:005a8920       _g_fakedeathforce          20708920     <common>
 0003:005a8a40       _d_saberGhoul2Collision    20708a40     <common>
 0003:005a8b60       _g_emoteforce              20708b60     <common>
 0003:005a8c80       _g_adaptRespawn            20708c80     <common>
 0003:005a8da0       _g_butterflyforce          20708da0     <common>
 0003:005a8ec0       _g_saberDebugBox           20708ec0     <common>
 0003:005a8fe0       _g_cartwheelforce          20708fe0     <common>
 0003:005a9100       _g_speed                   20709100     <common>
 0003:005a9220       _g_log                     20709220     <common>
 0003:005a9340       _g_optvehtrace             20709340     <common>
 0003:005a9460       _g_debugemotes             20709460     <common>
 0003:005a9580       _d_siegeSeekerNPC          20709580     <common>
 0003:005a96a0       _g_duelWeaponDisable       207096a0     <common>
 0003:005a97c0       _d_patched                 207097c0     <common>
 0003:005a98e0       _g_debugmw                 207098e0     <common>
 0003:005a9a00       _g_teamForceBalance        20709a00     <common>
 0003:005a9b20       _g_debugServerSkel         20709b20     <common>
 0003:005a9c40       _g_saberDmgVelocityScale   20709c40     <common>
 0003:005a9d60       _d_noIntermissionWait      20709d60     <common>
 0003:005a9e80       _g_friendlySaber           20709e80     <common>
 0003:005a9fa0       _g_austrian                20709fa0     <common>
 0003:005aa0c0       _g_canmeleekata            2070a0c0     <common>
 0003:005aa1e0       _g_saberTraceSaberFirst    2070a1e0     <common>
 0003:005aa300       _d_noGroupAI               2070a300     <common>
 0003:005aa420       _d_slowmodeath             2070a420     <common>
 0003:005aa540       _g_banIPs                  2070a540     <common>
 0003:005aa660       _g_privateDuel             2070a660     <common>
 0003:005aa780       _g_statLogFile             2070a780     <common>
 0003:005aa8a0       _g_allowNPC                2070a8a0     <common>
 0003:005aa9c0       _g_gametype                2070a9c0     <common>
 0003:005aaae0       _g_autothrow               2070aae0     <common>
 0003:005aac00       _g_craneforce              2070ac00     <common>
 0003:005aad20       _g_meleeshield             2070ad20     <common>
 0003:005aae40       _g_capturelimit            2070ae40     <common>
 0003:005aaf60       _g_falldownforce           2070af60     <common>
 0003:005ab080       _pmove_fixed               2070b080     <common>
 0003:005ab1a0       _g_doWarmup                2070b1a0     <common>
 0003:005ab2c0       _g_logSync                 2070b2c0     <common>
 0003:005ab3e0       _g_saberDebugPrint         2070b3e0     <common>
 0003:005ab500       _g_teamAutoJoin            2070b500     <common>
 0003:005ab620       _g_svfps                   2070b620     <common>
 0003:005ab740       _g_canhadoken              2070b740     <common>
 0003:005ab860       _g_logstats                2070b860     <common>
 0003:005ab980       _g_podiumDrop              2070b980     <common>
 0003:005abaa0       _g_forceRegenTime          2070baa0     <common>
 0003:005abbc0       _g_allowDuelSuicide        2070bbc0     <common>
 0003:005abce0       _g_motd                    2070bce0     <common>
 0003:005abe00       _g_canfalldown             2070be00     <common>
 0003:005abf20       _d_powerDuelPrint          2070bf20     <common>
 0003:005ac040       _g_showDuelHealths         2070c040     <common>
 0003:005ac160       _g_debugDamage             2070c160     <common>
 0003:005ac280       _g_clients                 2070c280     <common>
 0003:005e3f80       _g_forcerespawn            20743f80     <common>
 0003:005e40a0       _g_killpath                207440a0     <common>
 0003:005e41c0       _itemRegistered            207441c0     <common>
 0003:005e45c0       _textcolor_caption         207445c0     <common>
 0003:005e45d0       _textcolor_scroll          207445d0     <common>
 0003:005e45e0       _textcolor_center          207445e0     <common>
 0003:005e45f0       _gPainPoint                207445f0     <common>
 0003:005e45fc       _xpgain                    207445fc     <common>
 0003:005e4600       _bot_minplayers            20744600     <common>
 0003:005e4710       _g_numArenas               20744710     <common>
 0003:005e4720       _VehicleParms              20744720     <common>
 0003:005f4720       _VehWeaponParms            20754720     <common>
 0003:005f8720       _g_vehicleInfo             20758720     <common>
 0003:005fb9a0       _g_vehWeaponInfo           2075b9a0     <common>
 0003:005fbfe0       _bgSiegeClasses            2075bfe0     <common>
 0003:0062c5e0       _bgSiegeTeams              2078c5e0     <common>
 0003:0062ea60       _siege_info                2078ea60     <common>
 0003:00632a60       _pml                       20792a60     <common>
 0003:00632ae4       _pm                        20792ae4     <common>
 0003:00632b00       _bgAllAnims                20792b00     <common>
 0003:00632f40       _bgHumanoidAnimations      20792f40     <common>
 0003:00635978       _nodenum                   20795978     <common>
 0003:00635980       _gWPArray                  20795980     <common>
 0003:00639980       _nodetable                 20799980     <common>
 0003:00719980       _gSpawnPoints              20879980     <common>
 0003:00719a80       _gBotChatBuffer            20879a80     <common>
 0003:00759a80       _g_entities                208b9a80     <common>
 0003:008d4a80       _bot_camp                  20a34a80     <common>
 0003:008d4ba0       _bot_getinthecarrr         20a34ba0     <common>
 0003:008d4cb0       _droppedRedFlag            20a34cb0     <common>
 0003:008d4cb4       _eFlagRed                  20a34cb4     <common>
 0003:008d4cc0       _bot_wp_clearweight        20a34cc0     <common>
 0003:008d4de0       _bot_normgpath             20a34de0     <common>
 0003:008d4ef0       _flagBlue                  20a34ef0     <common>
 0003:008d4ef4       _oFlagBlue                 20a34ef4     <common>
 0003:008d4ef8       _floattime                 20a34ef8     <common>
 0003:008d4f00       _gBotEventTracker          20a34f00     <common>
 0003:008d5100       _botstates                 20a35100     <common>
 0003:008d5180       _bot_wp_distconnect        20a35180     <common>
 0003:008d5290       _eFlagBlue                 20a35290     <common>
 0003:008d5294       _regularupdate_time        20a35294     <common>
 0003:008d5298       _numbots                   20a35298     <common>
 0003:008d52a0       _bot_wp_info               20a352a0     <common>
 0003:008d53c0       _bot_forcepowers           20a353c0     <common>
 0003:008d54e0       _bot_honorableduelacceptance 20a354e0     <common>
 0003:008d5600       _bot_wp_edit               20a35600     <common>
 0003:008d5720       _bot_wp_visconnect         20a35720     <common>
 0003:008d5830       _droppedBlueFlag           20a35830     <common>
 0003:008d5834       _oFlagRed                  20a35834     <common>
 0003:008d5840       _bot_forgimmick            20a35840     <common>
 0003:008d5950       _flagRed                   20a35950     <common>
 0003:008d5960       _bot_pvstype               20a35960     <common>
 0003:008d5a80       _bot_attachments           20a35a80     <common>
 0003:008d5ba0       _level                     20a35ba0     <common>
 0003:008e0d20       ___piob                    20a40d20     <common>
 0003:008e0d40       __bufin                    20a40d40     <common>
 0003:008e1d40       __nstream                  20a41d40     <common>
 0003:008e1d44       ___mblcid                  20a41d44     <common>
 0003:008e1d48       ___ismbcodepage            20a41d48     <common>
 0003:008e1d60       __mbctype                  20a41d60     <common>
 0003:008e1e64       ___mbcodepage              20a41e64     <common>
 0003:008e1e70       ___mbulinfo                20a41e70     <common>
 0003:008e1e80       __mbcasemap                20a41e80     <common>
 0003:008e1f80       __nhandle                  20a41f80     <common>
 0003:008e1fa0       ___pioinfo                 20a41fa0     <common>
 0003:008e20a0       ___env_initialized         20a420a0     <common>
 0003:008e20a4       ___onexitend               20a420a4     <common>
 0003:008e20a8       ___onexitbegin             20a420a8     <common>
 0003:008e20ac       ___mbctype_initialized     20a420ac     <common>
 0003:008e20b0       ___use_sse2_mathfcns       20a420b0     <common>
 0003:008e20b4       ___sse2_available          20a420b4     <common>
 0003:008e20b8       ___sbh_pHeaderDefer        20a420b8     <common>
 0003:008e20bc       ___sbh_cntHeaderList       20a420bc     <common>
 0003:008e20c0       ___sbh_pHeaderList         20a420c0     <common>
 0003:008e20c4       ___sbh_threshold           20a420c4     <common>
 0003:008e20c8       ___sbh_pHeaderScan         20a420c8     <common>
 0003:008e20cc       ___sbh_sizeHeaderList      20a420cc     <common>
 0003:008e20d0       ___sbh_indGroupDefer       20a420d0     <common>
 0003:008e20d4       __crtheap                  20a420d4     <common>
 0003:008e20d8       ___active_heap             20a420d8     <common>
 0003:008e20dc       __acmdln                   20a420dc     <common>
 0003:008e20e0       __pRawDllMain              20a420e0     <common>

 entry point at        0001:0014e10f

 Static symbols

 0001:00001d40       _VectorLength              20002d40 f   ai_main.obj
 0001:00011800       _VectorLength              20012800 f   ai_wpnav.obj
 0001:000146b0       _NotWithinRange            200156b0 f   ai_wpnav.obj
 0001:00017b90       _ProcessOrientCommands     20018b90 f   AnimalNPC.obj
 0001:00017d50       _DeathUpdate               20018d50 f   AnimalNPC.obj
 0001:00017da0       _Update                    20018da0 f   AnimalNPC.obj
 0001:00017dc0       _ProcessMoveCommands       20018dc0 f   AnimalNPC.obj
 0001:00018140       _AnimateVehicle            20019140 f   AnimalNPC.obj
 0001:00018470       _AnimateRiders             20019470 f   AnimalNPC.obj
 0001:00018b70       _BG_GiveMeVectorFromMatrix 20019b70 f   bg_g2_utils.obj
 0001:0001b2a0       _SnapVector                2001c2a0 f   bg_misc.obj
 0001:0001ebd0       _VectorCompare             2001fbd0 f   bg_pmove.obj
 0001:0001f4e0       _PM_SetVehicleAngles       200204e0 f   bg_pmove.obj
 0001:00020ca0       _BG_ForceWallJumpStrength  20021ca0 f   bg_pmove.obj
 0001:00020d60       _PM_GroundTraceMissed      20021d60 f   bg_pmove.obj
 0001:000226d0       _Distance                  200236d0 f   bg_pmove.obj
 0001:00022720       _VectorLength              20023720 f   bg_pmove.obj
 0001:00024bf0       _VectorLengthSquared       20025bf0 f   bg_pmove.obj
 0001:00025a80       _BG_G2ClientNeckAngles     20026a80 f   bg_pmove.obj
 0001:00025cd0       _BG_G2ClientSpineAngles    20026cd0 f   bg_pmove.obj
 0001:000260e0       _BG_SwingAngles            200270e0 f   bg_pmove.obj
 0001:00029300       _PM_WaterJumpMove          2002a300 f   bg_pmove.obj
 0001:00029380       _PM_WaterMove              2002a380 f   bg_pmove.obj
 0001:000295c0       _PM_Friction               2002a5c0 f   bg_pmove.obj
 0001:00029910       _PM_Accelerate             2002a910 f   bg_pmove.obj
 0001:00029b30       _PM_CmdScale               2002ab30 f   bg_pmove.obj
 0001:00029c10       _PM_CheckWaterJump         2002ac10 f   bg_pmove.obj
 0001:00029db0       _PM_FlyVehicleMove         2002adb0 f   bg_pmove.obj
 0001:0002a0c0       _PM_FlyMove                2002b0c0 f   bg_pmove.obj
 0001:0002a230       _PM_AirMove                2002b230 f   bg_pmove.obj
 0001:0002a5f0       _PM_SetMovementDir         2002b5f0 f   bg_pmove.obj
 0001:0002a7f0       _PM_CheckJump              2002b7f0 f   bg_pmove.obj
 0001:0002d740       _PM_JumpForDir             2002e740 f   bg_pmove.obj
 0001:0002d860       _PM_WalkMove               2002e860 f   bg_pmove.obj
 0001:0002de50       _PM_DeadMove               2002ee50 f   bg_pmove.obj
 0001:0002df20       _PM_NoclipMove             2002ef20 f   bg_pmove.obj
 0001:0002e1d0       _PM_GroundTrace            2002f1d0 f   bg_pmove.obj
 0001:0002e770       _PM_CrashLand              2002f770 f   bg_pmove.obj
 0001:0002efe0       _PM_FootstepForSurface     2002ffe0 f   bg_pmove.obj
 0001:0002f000       _PM_TryRoll                20030000 f   bg_pmove.obj
 0001:0002f3c0       _PM_CrashLandEffect        200303c0 f   bg_pmove.obj
 0001:0002f4f0       _PM_CorrectAllSolid        200304f0 f   bg_pmove.obj
 0001:0002f6e0       _PM_SetWaterLevel          200306e0 f   bg_pmove.obj
 0001:0002f860       _PM_CheckDuck              20030860 f   bg_pmove.obj
 0001:0002fee0       _PM_Footsteps              20030ee0 f   bg_pmove.obj
 0001:00030b70       _PM_WaterEvents            20031b70 f   bg_pmove.obj
 0001:00030d60       _PM_Weapon                 20031d60 f   bg_pmove.obj
 0001:00032bd0       _PM_DoChargedWeapons       20033bd0 f   bg_pmove.obj
 0001:00033480       _PM_Animate                20034480 f   bg_pmove.obj
 0001:00033570       _PM_DropTimers             20034570 f   bg_pmove.obj
 0001:00033670       _PM_CmdForSaberMoves       20034670 f   bg_pmove.obj
 0001:00033b90       _PM_AdjustAnglesForDualJumpAttack 20034b90 f   bg_pmove.obj
 0001:00035700       _DistanceSquared           20036700 f   bg_saber.obj
 0001:00036390       _VectorLength              20037390 f   bg_saber.obj
 0001:000371e0       _PM_CanDoDualDoubleAttacks 200381e0 f   bg_saber.obj
 0001:000372a0       _PM_CheckEnemyPresence     200382a0 f   bg_saber.obj
 0001:00041b40       _VectorCompare             20042b40 f   bg_slidemove.obj
 0001:00041b90       _VectorLength              20042b90 f   bg_slidemove.obj
 0001:00043f20       _CrossProduct              20044f20 f   bg_slidemove.obj
 0001:00044950       _BG_ParseVehWeaponParm     20045950 f   bg_vehicleLoad.obj
 0001:00045a30       _BG_ParseVehicleParm       20046a30 f   bg_vehicleLoad.obj
 0001:00046570       _BG_GiveMeVectorFromMatrix 20047570 f   bg_vehicleLoad.obj
 0001:00046d80       _Update                    20047d80 f   FighterNPC.obj
 0001:00046de0       _Board                     20047de0 f   FighterNPC.obj
 0001:00046e20       _Eject                     20047e20 f   FighterNPC.obj
 0001:00046e50       _ProcessMoveCommands       20047e50 f   FighterNPC.obj
 0001:00047d10       _PredictedAngularDecrement 20048d10 f   FighterNPC.obj
 0001:00047de0       _VectorLength              20048de0 f   FighterNPC.obj
 0001:00047e20       _ProcessOrientCommands     20048e20 f   FighterNPC.obj
 0001:00048990       _FighterWingMalfunctionCheck 20049990 f   FighterNPC.obj
 0001:00048b30       _FighterNoseMalfunctionCheck 20049b30 f   FighterNPC.obj
 0001:00048c10       _FighterDamageRoutine      20049c10 f   FighterNPC.obj
 0001:000491e0       _AnimateVehicle            2004a1e0 f   FighterNPC.obj
 0001:00049430       _AnimateRiders             2004a430 f   FighterNPC.obj
 0001:00049ef0       _VectorCompare             2004aef0 f   g_active.obj
 0001:00049f40       _VectorLength              2004af40 f   g_active.obj
 0001:0004a880       _VectorLengthSquared       2004b880 f   g_active.obj
 0001:0004ae90       _BG_GiveMeVectorFromMatrix 2004be90 f   g_active.obj
 0001:0004b6d0       _G_UpdateForceSightBroadcasts 2004c6d0 f   g_active.obj
 0001:0004b840       _G_UpdateJediMasterBroadcasts 2004c840 f   g_active.obj
 0001:00051b00       _NPC_GetWalkSpeed          20052b00 f   g_active.obj
 0001:00051b60       _NPC_GetRunSpeed           20052b60 f   g_active.obj
 0001:000556e0       _G_AddBot                  200566e0 f   g_bot.obj
 0001:00055f00       _AddBotToSpawnQueue        20056f00 f   g_bot.obj
 0001:00056200       _G_LoadArenas              20057200 f   g_bot.obj
 0001:00056320       _G_LoadArenasFromFile      20057320 f   g_bot.obj
 0001:00056410       _G_LoadBots                20057410 f   g_bot.obj
 0001:00056540       _G_LoadBotsFromFile        20057540 f   g_bot.obj
 0001:00057700       _VectorLength              20058700 f   g_client.obj
 0001:00058600       _CopyToBodyQue             20059600 f   g_client.obj
 0001:0005abe0       _ClientCleanName           2005bbe0 f   g_client.obj
 0001:0005f040       _AllForceDisabled          20060040 f   g_client.obj
 0001:00074b80       _Cmd_Say_f                 20075b80 f   g_cmds.obj
 0001:00074cb0       _Cmd_Tell_f                20075cb0 f   g_cmds.obj
 0001:00074de0       _Cmd_VoiceCommand_f        20075de0 f   g_cmds.obj
 0001:000754f0       _VectorCompare             200764f0 f   g_combat.obj
 0001:000766e0       _VectorLengthSquared       200776e0 f   g_combat.obj
 0001:00076710       _G_CheckSpecialDeathAnim   20077710 f   g_combat.obj
 0001:00077640       _DistanceSquared           20078640 f   g_combat.obj
 0001:0007d3a0       _BG_GiveMeVectorFromMatrix 2007e3a0 f   g_combat.obj
 0001:000821c0       _VectorLength              200831c0 f   g_combat.obj
 0001:00082a80       _BG_GiveMeVectorFromMatrix 20083a80 f   g_exphysics.obj
 0001:00084c10       _Q3_GetAnimBoth            20085c10 f   g_ICARUScb.obj
 0001:00084ca0       _Q3_GetAnimLower           20085ca0 f   g_ICARUScb.obj
 0001:00084cf0       _Q3_GetAnimUpper           20085cf0 f   g_ICARUScb.obj
 0001:000852d0       _Q3_GameSideCheckStringCounterIncrement 200862d0 f   g_ICARUScb.obj
 0001:00087230       _Q3_SetTeleportDest        20088230 f   g_ICARUScb.obj
 0001:000872c0       _Q3_SetCopyOrigin          200882c0 f   g_ICARUScb.obj
 0001:00087330       _Q3_SetOrigin              20088330 f   g_ICARUScb.obj
 0001:000874a0       _Q3_SetVelocity            200884a0 f   g_ICARUScb.obj
 0001:00087540       _Q3_SetAngles              20088540 f   g_ICARUScb.obj
 0001:000875c0       _Q3_SetOriginOffset        200885c0 f   g_ICARUScb.obj
 0001:000876d0       _Q3_SetEnemy               200886d0 f   g_ICARUScb.obj
 0001:000877d0       _Q3_SetLeader              200887d0 f   g_ICARUScb.obj
 0001:000878b0       _Q3_SetNavGoal             200888b0 f   g_ICARUScb.obj
 0001:00087b40       _Q3_SetAnimUpper           20088b40 f   g_ICARUScb.obj
 0001:00087ba0       _SetUpperAnim              20088ba0 f   g_ICARUScb.obj
 0001:00087c10       _Q3_SetAnimLower           20088c10 f   g_ICARUScb.obj
 0001:00087c70       _SetLowerAnim              20088c70 f   g_ICARUScb.obj
 0001:00087ce0       _Q3_SetAnimHoldTime        20088ce0 f   g_ICARUScb.obj
 0001:00087d00       _Q3_SetHealth              20088d00 f   g_ICARUScb.obj
 0001:00087e40       _Q3_SetArmor               20088e40 f   g_ICARUScb.obj
 0001:00087ed0       _Q3_SetBState              20088ed0 f   g_ICARUScb.obj
 0001:000880e0       _Q3_SetTempBState          200890e0 f   g_ICARUScb.obj
 0001:00088180       _Q3_SetDefaultBState       20089180 f   g_ICARUScb.obj
 0001:00088210       _Q3_SetDPitch              20089210 f   g_ICARUScb.obj
 0001:00088230       _Q3_SetDYaw                20089230 f   g_ICARUScb.obj
 0001:00088250       _Q3_SetShootDist           20089250 f   g_ICARUScb.obj
 0001:00088270       _Q3_SetVisrange            20089270 f   g_ICARUScb.obj
 0001:00088290       _Q3_SetEarshot             20089290 f   g_ICARUScb.obj
 0001:000882b0       _Q3_SetVigilance           200892b0 f   g_ICARUScb.obj
 0001:000882d0       _Q3_SetVFOV                200892d0 f   g_ICARUScb.obj
 0001:000882f0       _Q3_SetHFOV                200892f0 f   g_ICARUScb.obj
 0001:00088310       _Q3_SetWidth               20089310 f   g_ICARUScb.obj
 0001:00088330       _Q3_SetTimeScale           20089330 f   g_ICARUScb.obj
 0001:00088350       _Q3_SetInvisible           20089350 f   g_ICARUScb.obj
 0001:00088420       _Q3_SetVampire             20089420 f   g_ICARUScb.obj
 0001:00088440       _Q3_SetGreetAllies         20089440 f   g_ICARUScb.obj
 0001:00088460       _Q3_SetViewTarget          20089460 f   g_ICARUScb.obj
 0001:00088480       _Q3_SetWatchTarget         20089480 f   g_ICARUScb.obj
 0001:000884a0       _Q3_SetWeapon              200894a0 f   g_ICARUScb.obj
 0001:00088500       _Q3_SetItem                20089500 f   g_ICARUScb.obj
 0001:00088520       _Q3_SetWalkSpeed           20089520 f   g_ICARUScb.obj
 0001:000885e0       _Q3_SetRunSpeed            200895e0 f   g_ICARUScb.obj
 0001:000886a0       _Q3_SetYawSpeed            200896a0 f   g_ICARUScb.obj
 0001:000886c0       _Q3_SetAggression          200896c0 f   g_ICARUScb.obj
 0001:000886e0       _Q3_SetAim                 200896e0 f   g_ICARUScb.obj
 0001:00088700       _Q3_SetFriction            20089700 f   g_ICARUScb.obj
 0001:00088770       _Q3_SetGravity             20089770 f   g_ICARUScb.obj
 0001:00088810       _Q3_SetWait                20089810 f   g_ICARUScb.obj
 0001:00088850       _Q3_SetShotSpacing         20089850 f   g_ICARUScb.obj
 0001:00088870       _Q3_SetFollowDist          20089870 f   g_ICARUScb.obj
 0001:00088890       _Q3_SetScale               20089890 f   g_ICARUScb.obj
 0001:00088910       _Q3_SetCount               20089910 f   g_ICARUScb.obj
 0001:000889a0       _Q3_SetTargetName          200899a0 f   g_ICARUScb.obj
 0001:00088a10       _Q3_SetTarget              20089a10 f   g_ICARUScb.obj
 0001:00088a80       _Q3_SetTarget2             20089a80 f   g_ICARUScb.obj
 0001:00088aa0       _Q3_SetRemoveTarget        20089aa0 f   g_ICARUScb.obj
 0001:00088ac0       _Q3_SetPainTarget          20089ac0 f   g_ICARUScb.obj
 0001:00088ae0       _Q3_SetFullName            20089ae0 f   g_ICARUScb.obj
 0001:00088b50       _Q3_SetMusicState          20089b50 f   g_ICARUScb.obj
 0001:00088b70       _Q3_SetForcePowerLevel     20089b70 f   g_ICARUScb.obj
 0001:00088b90       _Q3_SetCaptureGoal         20089b90 f   g_ICARUScb.obj
 0001:00088bb0       _Q3_SetEvent               20089bb0 f   g_ICARUScb.obj
 0001:00088bd0       _Q3_SetIgnorePain          20089bd0 f   g_ICARUScb.obj
 0001:00088bf0       _Q3_SetIgnoreEnemies       20089bf0 f   g_ICARUScb.obj
 0001:00088c10       _Q3_SetIgnoreAlerts        20089c10 f   g_ICARUScb.obj
 0001:00088c30       _Q3_SetNoTarget            20089c30 f   g_ICARUScb.obj
 0001:00088ca0       _Q3_SetDontShoot           20089ca0 f   g_ICARUScb.obj
 0001:00088cc0       _Q3_SetDontFire            20089cc0 f   g_ICARUScb.obj
 0001:00088ce0       _Q3_SetFireWeapon          20089ce0 f   g_ICARUScb.obj
 0001:00088d00       _Q3_SetInactive            20089d00 f   g_ICARUScb.obj
 0001:00088d70       _Q3_SetFuncUsableVisible   20089d70 f   g_ICARUScb.obj
 0001:00088e00       _Q3_SetLockedEnemy         20089e00 f   g_ICARUScb.obj
 0001:00088e20       _Q3_SetCinematicSkipScript 20089e20 f   g_ICARUScb.obj
 0001:00088e40       _Q3_SetNoMindTrick         20089e40 f   g_ICARUScb.obj
 0001:00088e60       _Q3_SetCrouched            20089e60 f   g_ICARUScb.obj
 0001:00088e80       _Q3_SetWalking             20089e80 f   g_ICARUScb.obj
 0001:00088f30       _Q3_SetRunning             20089f30 f   g_ICARUScb.obj
 0001:00088f50       _Q3_SetForcedMarch         20089f50 f   g_ICARUScb.obj
 0001:00088f70       _Q3_SetChaseEnemies        20089f70 f   g_ICARUScb.obj
 0001:00088f90       _Q3_SetLookForEnemies      20089f90 f   g_ICARUScb.obj
 0001:00088fb0       _Q3_SetFaceMoveDir         20089fb0 f   g_ICARUScb.obj
 0001:00088fd0       _Q3_SetAltFire             20089fd0 f   g_ICARUScb.obj
 0001:00088ff0       _Q3_SetDontFlee            20089ff0 f   g_ICARUScb.obj
 0001:00089010       _Q3_SetNoResponse          2008a010 f   g_ICARUScb.obj
 0001:00089030       _Q3_SetCombatTalk          2008a030 f   g_ICARUScb.obj
 0001:00089050       _Q3_SetAlertTalk           2008a050 f   g_ICARUScb.obj
 0001:00089070       _Q3_SetUseCpNearest        2008a070 f   g_ICARUScb.obj
 0001:00089090       _Q3_SetNoForce             2008a090 f   g_ICARUScb.obj
 0001:000890b0       _Q3_SetNoAcrobatics        2008a0b0 f   g_ICARUScb.obj
 0001:000890d0       _Q3_SetUseSubtitles        2008a0d0 f   g_ICARUScb.obj
 0001:000890f0       _Q3_SetNoFallToDeath       2008a0f0 f   g_ICARUScb.obj
 0001:00089110       _Q3_SetDismemberable       2008a110 f   g_ICARUScb.obj
 0001:00089130       _Q3_SetMoreLight           2008a130 f   g_ICARUScb.obj
 0001:00089150       _Q3_SetUndying             2008a150 f   g_ICARUScb.obj
 0001:00089170       _Q3_SetInvincible          2008a170 f   g_ICARUScb.obj
 0001:00089190       _Q3_SetForceInvincible     2008a190 f   g_ICARUScb.obj
 0001:000891b0       _Q3_SetNoAvoid             2008a1b0 f   g_ICARUScb.obj
 0001:00089250       _Q3_SetSolid               2008a250 f   g_ICARUScb.obj
 0001:00089360       _Q3_SetForwardMove         2008a360 f   g_ICARUScb.obj
 0001:000893d0       _Q3_SetRightMove           2008a3d0 f   g_ICARUScb.obj
 0001:00089440       _Q3_SetLockAngle           2008a440 f   g_ICARUScb.obj
 0001:000894b0       _Q3_CameraGroup            2008a4b0 f   g_ICARUScb.obj
 0001:000894d0       _Q3_CameraGroupZOfs        2008a4d0 f   g_ICARUScb.obj
 0001:000894f0       _Q3_CameraGroupTag         2008a4f0 f   g_ICARUScb.obj
 0001:00089510       _Q3_RemoveRHandModel       2008a510 f   g_ICARUScb.obj
 0001:00089530       _Q3_AddRHandModel          2008a530 f   g_ICARUScb.obj
 0001:00089550       _Q3_AddLHandModel          2008a550 f   g_ICARUScb.obj
 0001:00089570       _Q3_RemoveLHandModel       2008a570 f   g_ICARUScb.obj
 0001:00089590       _Q3_LookTarget             2008a590 f   g_ICARUScb.obj
 0001:000895b0       _Q3_Face                   2008a5b0 f   g_ICARUScb.obj
 0001:000895d0       _Q3_SetLocation            2008a5d0 f   g_ICARUScb.obj
 0001:000895f0       _Q3_SetPlayerLocked        2008a5f0 f   g_ICARUScb.obj
 0001:00089610       _Q3_SetLockPlayerWeapons   2008a610 f   g_ICARUScb.obj
 0001:00089630       _Q3_SetNoImpactDamage      2008a630 f   g_ICARUScb.obj
 0001:00089650       _Q3_SetBehaviorSet         2008a650 f   g_ICARUScb.obj
 0001:000897d0       _Q3_SetDelayScriptTime     2008a7d0 f   g_ICARUScb.obj
 0001:000897f0       _Q3_SetPlayerUsable        2008a7f0 f   g_ICARUScb.obj
 0001:00089860       _Q3_SetDisableShaderAnims  2008a860 f   g_ICARUScb.obj
 0001:00089880       _Q3_SetShaderAnim          2008a880 f   g_ICARUScb.obj
 0001:000898a0       _Q3_SetStartFrame          2008a8a0 f   g_ICARUScb.obj
 0001:000898c0       _Q3_SetEndFrame            2008a8c0 f   g_ICARUScb.obj
 0001:000898e0       _Q3_SetAnimFrame           2008a8e0 f   g_ICARUScb.obj
 0001:00089900       _Q3_SetLoopAnim            2008a900 f   g_ICARUScb.obj
 0001:00089910       _Q3_SetShields             2008a910 f   g_ICARUScb.obj
 0001:00089930       _Q3_SetSaberActive         2008a930 f   g_ICARUScb.obj
 0001:000899d0       _Q3_SetNoKnockback         2008a9d0 f   g_ICARUScb.obj
 0001:00089a40       _Q3_SetCleanDamagingEnts   2008aa40 f   g_ICARUScb.obj
 0001:00089a60       _Q3_SetCaptionTextColor    2008aa60 f   g_ICARUScb.obj
 0001:00089a80       _SetTextColor              2008aa80 f   g_ICARUScb.obj
 0001:00089aa0       _Q3_SetCenterTextColor     2008aaa0 f   g_ICARUScb.obj
 0001:00089ac0       _Q3_SetScrollTextColor     2008aac0 f   g_ICARUScb.obj
 0001:00089ae0       _Q3_ScrollText             2008aae0 f   g_ICARUScb.obj
 0001:00089b00       _Q3_LCARSText              2008ab00 f   g_ICARUScb.obj
 0001:0008b420       _pas_find_enemies          2008c420 f   g_items.obj
 0001:0008b7d0       _VectorLengthSquared       2008c7d0 f   g_items.obj
 0001:0008bf20       _MedPackGive               2008cf20 f   g_items.obj
 0001:0008cd30       _BG_GiveMeVectorFromMatrix 2008dd30 f   g_items.obj
 0001:0008d1e0       _VectorLength              2008e1e0 f   g_items.obj
 0001:0008fdf0       _SnapVector                20090df0 f   g_items.obj
 0001:00097ff0       _misc_lightstyle_set       20098ff0 f   g_misc.obj
 0001:0009a180       _CrossProduct              2009b180 f   g_misc.obj
 0001:0009a2c0       _InitShooter_Finish        2009b2c0 f   g_misc.obj
 0001:0009e380       _VectorLength              2009f380 f   g_missile.obj
 0001:0009e560       _SnapVector                2009f560 f   g_missile.obj
 0001:0009e6a0       _VectorCompare             2009f6a0 f   g_missile.obj
 0001:000a0aa0       _VectorInverse             200a1aa0 f   g_mover.obj
 0001:000a1380       _VectorCompare             200a2380 f   g_mover.obj
 0001:000a1ee0       _VectorLength              200a2ee0 f   g_mover.obj
 0001:000a2650       _Touch_DoorTriggerSpectator 200a3650 f   g_mover.obj
 0001:000a42a0       _Distance                  200a52a0 f   g_mover.obj
 0001:000a52f0       _CacheChunkEffects         200a62f0 f   g_mover.obj
 0001:000a53d0       _InitBBrush                200a63d0 f   g_mover.obj
 0001:000a6a70       _VectorLengthSquared       200a7a70 f   g_nav.obj
 0001:000a6aa0       _DistanceSquared           200a7aa0 f   g_nav.obj
 0001:000a7710       _Distance                  200a8710 f   g_nav.obj
 0001:000a7760       _VectorLength              200a8760 f   g_nav.obj
 0001:000a7af0       _VectorCompare             200a8af0 f   g_nav.obj
 0001:000a7b40       _NAV_TestBypass            200a8b40 f   g_nav.obj
 0001:000a82a0       _CrossProduct              200a92a0 f   g_nav.obj
 0001:000aa6f0       _VectorCompare             200ab6f0 f   g_navnew.obj
 0001:000ab020       _DistanceSquared           200ac020 f   g_navnew.obj
 0001:000ac3a0       _VectorCompare             200ad3a0 f   g_object.obj
 0001:000ae940       _SiegeItemRespawnEffect    200af940 f   g_saga.obj
 0001:000ae9e0       _SiegeItemRespawnOnOriginalSpot 200af9e0 f   g_saga.obj
 0001:000b05f0       _HandleEntityAdjustment    200b15f0 f   g_spawn.obj
 0001:000b15f0       _AddIP                     200b25f0 f   g_svcmds.obj
 0001:000b1690       _StringToFilter            200b2690 f   g_svcmds.obj
 0001:000b17e0       _UpdateIPBans              200b27e0 f   g_svcmds.obj
 0001:000b5b80       _target_location_linkup    200b6b80 f   g_target.obj
 0001:000b74d0       _VectorLength              200b84d0 f   g_team.obj
 0001:000b8730       _SortClients               200b9730 f   g_team.obj
 0001:000b9090       _VectorCompare             200ba090 f   g_trigger.obj
 0001:000ba870       _VectorLengthSquared       200bb870 f   g_trigger.obj
 0001:000bbee0       _Distance                  200bcee0 f   g_trigger.obj
 0001:000bbf30       _VectorLength              200bcf30 f   g_trigger.obj
 0001:000bcce0       _turret_fire               200bdce0 f   g_turret.obj
 0001:000bcf80       _SnapVector                200bdf80 f   g_turret.obj
 0001:000bd350       _VectorLengthSquared       200be350 f   g_turret.obj
 0001:000bd380       _turret_aim                200be380 f   g_turret.obj
 0001:000bd870       _turret_turnoff            200be870 f   g_turret.obj
 0001:000bd910       _turret_sleep              200be910 f   g_turret.obj
 0001:000bd950       _turret_find_enemies       200be950 f   g_turret.obj
 0001:000bee00       _BG_GiveMeVectorFromMatrix 200bfe00 f   g_turret_G2.obj
 0001:000bef60       _turretG2_fire             200bff60 f   g_turret_G2.obj
 0001:000bf300       _SnapVector                200c0300 f   g_turret_G2.obj
 0001:000bf790       _VectorLengthSquared       200c0790 f   g_turret_G2.obj
 0001:000bf7c0       _turretG2_aim              200c07c0 f   g_turret_G2.obj
 0001:000bfe00       _turretG2_turnoff          200c0e00 f   g_turret_G2.obj
 0001:000bfe80       _turretG2_find_enemies     200c0e80 f   g_turret_G2.obj
 0001:000c0e10       _G_FindConfigstringIndex   200c1e10 f   g_utils.obj
 0001:000c12c0       _VectorLength              200c22c0 f   g_utils.obj
 0001:000c1b10       _VectorCompare             200c2b10 f   g_utils.obj
 0001:000c2180       _SnapVector                200c3180 f   g_utils.obj
 0001:000c3f70       _CrossProduct              200c4f70 f   g_utils.obj
 0001:000c4950       _Distance                  200c5950 f   g_utils.obj
 0001:000c5400       _BG_GiveMeVectorFromMatrix 200c6400 f   g_vehicles.obj
 0001:000c7860       _StartDeathDelay           200c8860 f   g_vehicles.obj
 0001:000c78f0       _DeathUpdate               200c88f0 f   g_vehicles.obj
 0001:000c7ca0       _Update                    200c8ca0 f   g_vehicles.obj
 0001:000c8c20       _VectorLength              200c9c20 f   g_vehicles.obj
 0001:000c8c60       _UpdateRider               200c9c60 f   g_vehicles.obj
 0001:000c9330       _AttachRiders              200ca330 f   g_vehicles.obj
 0001:000c96e0       _Ghost                     200ca6e0 f   g_vehicles.obj
 0001:000c9760       _UnGhost                   200ca760 f   g_vehicles.obj
 0001:000ca410       _VectorLengthSquared       200cb410 f   g_vehicleTurret.obj
 0001:000ca440       _VEH_TurretFindEnemies     200cb440 f   g_vehicleTurret.obj
 0001:000cc560       _VectorLength              200cd560 f   g_weapon.obj
 0001:000cce90       _SnapVector                200cde90 f   g_weapon.obj
 0001:000ccf10       _Distance                  200cdf10 f   g_weapon.obj
 0001:000ccf60       _CrossProduct              200cdf60 f   g_weapon.obj
 0001:000cdab0       _DistanceSquared           200ceab0 f   g_weapon.obj
 0001:000d0740       _BG_GiveMeVectorFromMatrix 200d1740 f   g_weapon.obj
 0001:000d0f80       _WP_TraceSetStart          200d1f80 f   g_weapon.obj
 0001:000d2ad0       _WP_FireBryarPistol        200d3ad0 f   g_weapon.obj
 0001:000d2c70       _WP_FireBlaster            200d3c70 f   g_weapon.obj
 0001:000d2d20       _WP_FireDisruptor          200d3d20 f   g_weapon.obj
 0001:000d2da0       _WP_DisruptorMainFire      200d3da0 f   g_weapon.obj
 0001:000d32e0       _WP_FireBowcaster          200d42e0 f   g_weapon.obj
 0001:000d3310       _WP_BowcasterAltFire       200d4310 f   g_weapon.obj
 0001:000d3430       _WP_FireRepeater           200d4430 f   g_weapon.obj
 0001:000d34e0       _WP_RepeaterMainFire       200d44e0 f   g_weapon.obj
 0001:000d3570       _WP_FireDEMP2              200d4570 f   g_weapon.obj
 0001:000d35a0       _WP_DEMP2_MainFire         200d45a0 f   g_weapon.obj
 0001:000d36a0       _WP_DEMP2_AltFire          200d46a0 f   g_weapon.obj
 0001:000d38a0       _WP_FireFlechette          200d48a0 f   g_weapon.obj
 0001:000d38d0       _WP_FlechetteMainFire      200d48d0 f   g_weapon.obj
 0001:000d3a90       _WP_FlechetteAltFire       200d4a90 f   g_weapon.obj
 0001:000d3b90       _WP_CreateFlechetteBouncyThing 200d4b90 f   g_weapon.obj
 0001:000d3d80       _WP_FireRocket             200d4d80 f   g_weapon.obj
 0001:000d40b0       _WP_FireConcussionAlt      200d50b0 f   g_weapon.obj
 0001:000d4840       _WP_FireConcussion         200d5840 f   g_weapon.obj
 0001:000d4fe0       _WP_FireEmplaced           200d5fe0 f   g_weapon.obj
 0001:000d6610       _VectorCompare             200d7610 f   NPC.obj
 0001:000d6c50       _VectorLengthSquared       200d7c50 f   NPC.obj
 0001:000d8480       _DeadThink                 200d9480 f   NPC.obj
 0001:000d89a0       _NPC_RemoveBodyEffect      200d99a0 f   NPC.obj
 0001:000d9540       _VectorLength              200da540 f   NPC_AI_Default.obj
 0001:000dbb50       _GM_CreateExplosion        200dcb50 f   NPC_AI_GalakMech.obj
 0001:000dbc10       _BG_GiveMeVectorFromMatrix 200dcc10 f   NPC_AI_GalakMech.obj
 0001:000ddd90       _VectorCompare             200ded90 f   NPC_AI_GalakMech.obj
 0001:000ddde0       _DistanceSquared           200dede0 f   NPC_AI_GalakMech.obj
 0001:000dde30       _GM_Move                   200dee30 f   NPC_AI_GalakMech.obj
 0001:000ddeb0       _GM_HoldPosition           200deeb0 f   NPC_AI_GalakMech.obj
 0001:000ddef0       _GM_CheckMoveState         200deef0 f   NPC_AI_GalakMech.obj
 0001:000ddff0       _GM_CheckFireState         200deff0 f   NPC_AI_GalakMech.obj
 0001:000df2e0       _Grenadier_Move            200e02e0 f   NPC_AI_Grenadier.obj
 0001:000df4b0       _Grenadier_HoldPosition    200e04b0 f   NPC_AI_Grenadier.obj
 0001:000df4e0       _DistanceSquared           200e04e0 f   NPC_AI_Grenadier.obj
 0001:000df530       _Grenadier_CheckMoveState  200e0530 f   NPC_AI_Grenadier.obj
 0001:000df820       _Grenadier_CheckFireState  200e0820 f   NPC_AI_Grenadier.obj
 0001:000df880       _VectorCompare             200e0880 f   NPC_AI_Grenadier.obj
 0001:000dfba0       _VectorLengthSquared       200e0ba0 f   NPC_AI_Howler.obj
 0001:000e0870       _BG_GiveMeVectorFromMatrix 200e1870 f   NPC_AI_ImperialProbe.obj
 0001:000e2770       _VectorLengthSquared       200e3770 f   NPC_AI_Jedi.obj
 0001:000e2d90       _BG_GiveMeVectorFromMatrix 200e3d90 f   NPC_AI_Jedi.obj
 0001:000e3b30       _VectorCompare             200e4b30 f   NPC_AI_Jedi.obj
 0001:000e3b80       _DistanceSquared           200e4b80 f   NPC_AI_Jedi.obj
 0001:000e3ec0       _Jedi_Aggression           200e4ec0 f   NPC_AI_Jedi.obj
 0001:000e72c0       _Jedi_AdjustSaberAnimLevel 200e82c0 f   NPC_AI_Jedi.obj
 0001:000e7c30       _Jedi_AggressionErosion    200e8c30 f   NPC_AI_Jedi.obj
 0001:000e7cd0       _Jedi_TryJump              200e8cd0 f   NPC_AI_Jedi.obj
 0001:000e8240       _Jedi_Jump                 200e9240 f   NPC_AI_Jedi.obj
 0001:000e8c40       _Jedi_Jumping              200e9c40 f   NPC_AI_Jedi.obj
 0001:000e8ef0       _Jedi_Patrol               200e9ef0 f   NPC_AI_Jedi.obj
 0001:000e94c0       _Jedi_Attack               200ea4c0 f   NPC_AI_Jedi.obj
 0001:000ea220       _Jedi_Move                 200eb220 f   NPC_AI_Jedi.obj
 0001:000ea320       _Jedi_HoldPosition         200eb320 f   NPC_AI_Jedi.obj
 0001:000ea340       _Jedi_CheckDecreaseSaberAnimLevel 200eb340 f   NPC_AI_Jedi.obj
 0001:000ea400       _Jedi_EvasionSaber         200eb400 f   NPC_AI_Jedi.obj
 0001:000eaf40       _Jedi_Strafe               200ebf40 f   NPC_AI_Jedi.obj
 0001:000eb130       _Jedi_SaberBlock           200ec130 f   NPC_AI_Jedi.obj
 0001:000ebc70       _VectorLength              200ecc70 f   NPC_AI_Jedi.obj
 0001:000ebcb0       _Jedi_SetEnemyInfo         200eccb0 f   NPC_AI_Jedi.obj
 0001:000ebf50       _Jedi_FaceEnemy            200ecf50 f   NPC_AI_Jedi.obj
 0001:000ec2d0       _Distance                  200ed2d0 f   NPC_AI_Jedi.obj
 0001:000ec320       _Jedi_Combat               200ed320 f   NPC_AI_Jedi.obj
 0001:000ec890       _Jedi_ClearPathToSpot      200ed890 f   NPC_AI_Jedi.obj
 0001:000ecad0       _Jedi_Hunt                 200edad0 f   NPC_AI_Jedi.obj
 0001:000ecb70       _Jedi_CombatDistance       200edb70 f   NPC_AI_Jedi.obj
 0001:000edfd0       _Jedi_Rage                 200eefd0 f   NPC_AI_Jedi.obj
 0001:000ee0d0       _Jedi_Retreat              200ef0d0 f   NPC_AI_Jedi.obj
 0001:000ee110       _Jedi_Advance              200ef110 f   NPC_AI_Jedi.obj
 0001:000ee150       _Jedi_TimersApply          200ef150 f   NPC_AI_Jedi.obj
 0001:000ee340       _Jedi_DebounceDirectionChanges 200ef340 f   NPC_AI_Jedi.obj
 0001:000ee9d0       _Jedi_CombatTimersUpdate   200ef9d0 f   NPC_AI_Jedi.obj
 0001:000ef150       _Jedi_CombatIdle           200f0150 f   NPC_AI_Jedi.obj
 0001:000ef390       _Jedi_BattleTaunt          200f0390 f   NPC_AI_Jedi.obj
 0001:000ef530       _Jedi_AttackDecide         200f0530 f   NPC_AI_Jedi.obj
 0001:000efa20       _Jedi_CheckEnemyMovement   200f0a20 f   NPC_AI_Jedi.obj
 0001:000f0230       _Jedi_CheckJumps           200f1230 f   NPC_AI_Jedi.obj
 0001:000f0d90       _BG_GiveMeVectorFromMatrix 200f1d90 f   NPC_AI_Mark1.obj
 0001:000f2480       _BG_GiveMeVectorFromMatrix 200f3480 f   NPC_AI_Mark2.obj
 0001:000f2d20       _VectorLengthSquared       200f3d20 f   NPC_AI_MineMonster.obj
 0001:000f3b20       _DistanceSquared           200f4b20 f   NPC_AI_Rancor.obj
 0001:000f4ce0       _Distance                  200f5ce0 f   NPC_AI_Rancor.obj
 0001:000f4d30       _VectorLength              200f5d30 f   NPC_AI_Rancor.obj
 0001:000f8350       _BG_GiveMeVectorFromMatrix 200f9350 f   NPC_AI_Sentry.obj
 0001:000fa140       _Sniper_Move               200fb140 f   NPC_AI_Sniper.obj
 0001:000fa2f0       _Sniper_HoldPosition       200fb2f0 f   NPC_AI_Sniper.obj
 0001:000fa320       _DistanceSquared           200fb320 f   NPC_AI_Sniper.obj
 0001:000fa370       _Sniper_CheckMoveState     200fb370 f   NPC_AI_Sniper.obj
 0001:000fa670       _Sniper_ResolveBlockedShot 200fb670 f   NPC_AI_Sniper.obj
 0001:000fa830       _Sniper_CheckFireState     200fb830 f   NPC_AI_Sniper.obj
 0001:000fa9b0       _VectorCompare             200fb9b0 f   NPC_AI_Sniper.obj
 0001:000fac80       _ST_Speech                 200fbc80 f   NPC_AI_Stormtrooper.obj
 0001:000fb320       _NPC_ST_SleepShuffle       200fc320 f   NPC_AI_Stormtrooper.obj
 0001:000fbb70       _VectorLength              200fcb70 f   NPC_AI_Stormtrooper.obj
 0001:000fbbb0       _Distance                  200fcbb0 f   NPC_AI_Stormtrooper.obj
 0001:000fbc00       _DistanceSquared           200fcc00 f   NPC_AI_Stormtrooper.obj
 0001:000fbf80       _NPC_ST_InvestigateEvent   200fcf80 f   NPC_AI_Stormtrooper.obj
 0001:000fc640       _ST_LookAround             200fd640 f   NPC_AI_Stormtrooper.obj
 0001:000fc710       _ST_OffsetLook             200fd710 f   NPC_AI_Stormtrooper.obj
 0001:000ff160       _ST_Move                   20100160 f   NPC_AI_Stormtrooper.obj
 0001:000ff2b0       _ST_HoldPosition           201002b0 f   NPC_AI_Stormtrooper.obj
 0001:000ff360       _ST_CheckMoveState         20100360 f   NPC_AI_Stormtrooper.obj
 0001:000ff7a0       _ST_CheckFireState         201007a0 f   NPC_AI_Stormtrooper.obj
 0001:000ffb80       _VectorCompare             20100b80 f   NPC_AI_Stormtrooper.obj
 0001:000fff40       _DistanceSquared           20100f40 f   NPC_AI_Utils.obj
 0001:00102580       _DistanceSquared           20103580 f   NPC_AI_Wampa.obj
 0001:00102c80       _Distance                  20103c80 f   NPC_AI_Wampa.obj
 0001:00102cd0       _VectorLength              20103cd0 f   NPC_AI_Wampa.obj
 0001:00103bb0       _VectorLength              20104bb0 f   NPC_behavior.obj
 0001:00104ab0       _VectorCompare             20105ab0 f   NPC_behavior.obj
 0001:00105890       _VectorLengthSquared       20106890 f   NPC_behavior.obj
 0001:00106200       _DistanceSquared           20107200 f   NPC_behavior.obj
 0001:00108580       _VectorLength              20109580 f   NPC_combat.obj
 0001:00108ae0       _VectorLengthSquared       20109ae0 f   NPC_combat.obj
 0001:001096c0       _DistanceSquared           2010a6c0 f   NPC_combat.obj
 0001:0010adf0       _NPC_CollectCombatPoints   2010bdf0 f   NPC_combat.obj
 0001:0010bc00       _Distance                  2010cc00 f   NPC_move.obj
 0001:0010bc50       _VectorLength              2010cc50 f   NPC_move.obj
 0001:0010bec0       _NPC_LadderMove            2010cec0 f   NPC_move.obj
 0001:0010d180       _NPC_CheckAttacker         2010e180 f   NPC_reactions.obj
 0001:0010e550       _VectorCompare             2010f550 f   NPC_senses.obj
 0001:0010e630       _VectorLengthSquared       2010f630 f   NPC_senses.obj
 0001:0010e940       _G_CheckSoundEvents        2010f940 f   NPC_senses.obj
 0001:0010ead0       _DistanceSquared           2010fad0 f   NPC_senses.obj
 0001:0010eb20       _G_CheckSightEvents        2010fb20 f   NPC_senses.obj
 0001:00112b30       _DistanceSquared           20113b30 f   NPC_spawn.obj
 0001:0011cba0       _TranslateRankName         2011dba0 f   NPC_stats.obj
 0001:0011d410       _VectorCompare             2011e410 f   NPC_utils.obj
 0001:0011d460       _VectorLengthSquared       2011e460 f   NPC_utils.obj
 0001:0011e600       _DistanceSquared           2011f600 f   NPC_utils.obj
 0001:0011e9f0       _NPC_CheckPlayerDistance   2011f9f0 f   NPC_utils.obj
 0001:0011f130       _BG_GiveMeVectorFromMatrix 20120130 f   NPC_utils.obj
 0001:0011f2e0       _Distance                  201202e0 f   NPC_utils.obj
 0001:0011f330       _VectorLength              20120330 f   NPC_utils.obj
 0001:0011f810       _CrossProduct              20120810 f   q_math.obj
 0001:00120570       _VectorLength              20121570 f   q_math.obj
 0001:00121430       _VectorLengthSquared       20122430 f   q_math.obj
 0001:00121670       _Distance                  20122670 f   q_math.obj
 0001:00123a80       _ProcessMoveCommands       20124a80 f   SpeederNPC.obj
 0001:00124060       _BG_GiveMeVectorFromMatrix 20125060 f   SpeederNPC.obj
 0001:001282f0       _VectorLength              201292f0 f   w_force.obj
 0001:0012dcf0       _VectorCompare             2012ecf0 f   w_force.obj
 0001:0012dd40       _Distance                  2012ed40 f   w_force.obj
 0001:00131640       _WP_ForcePowerRun          20132640 f   w_force.obj
 0001:00131e00       _WP_UpdateMindtrickEnts    20132e00 f   w_force.obj
 0001:00132010       _RemoveTrickedEnt          20133010 f   w_force.obj
 0001:00132d10       _SetSaberBoxSize           20133d10 f   w_saber.obj
 0001:00134b20       _DistanceSquared           20135b20 f   w_saber.obj
 0001:00134b70       _WP_SabersCheckLock2       20135b70 f   w_saber.obj
 0001:00136a10       _VectorCompare             20137a10 f   w_saber.obj
 0001:00138020       _CheckSaberDamage          20139020 f   w_saber.obj
 0001:0013bbb0       _G_SaberAttackPower        2013cbb0 f   w_saber.obj
 0001:0013bdd0       _VectorLength              2013cdd0 f   w_saber.obj
 0001:0013be10       _Distance                  2013ce10 f   w_saber.obj
 0001:0013be60       _SaberAttacking            2013ce60 f   w_saber.obj
 0001:0013bf80       _G_GetParryForBlock        2013cf80 f   w_saber.obj
 0001:0013c020       _WP_GetSaberDeflectionAngle 2013d020 f   w_saber.obj
 0001:0013c8b0       _G_GetAttackDamage         2013d8b0 f   w_saber.obj
 0001:0013ca60       _G_GetAnimPoint            2013da60 f   w_saber.obj
 0001:0013cb80       _G_ClientIdleInWorld       2013db80 f   w_saber.obj
 0001:0013cc80       _G_G2TraceCollide          2013dc80 f   w_saber.obj
 0001:0013d000       _G_SaberInBackAttack       2013e000 f   w_saber.obj
 0001:0013d030       _G_SaberCollide            2013e030 f   w_saber.obj
 0001:0013d290       _G_BuildSaberFaces         2013e290 f   w_saber.obj
 0001:0013e300       _VectorInverse             2013f300 f   w_saber.obj
 0001:0013e330       _G_SaberFaceCollisionCheck 2013f330 f   w_saber.obj
 0001:0013e820       _G_SabCol_CalcPlaneEq      2013f820 f   w_saber.obj
 0001:0013e950       _G_SabCol_PointRelativeToPlane 2013f950 f   w_saber.obj
 0001:0013e9c0       _G_PowerLevelForSaberAnim  2013f9c0 f   w_saber.obj
 0001:00140aa0       _saberMoveBack             20141aa0 f   w_saber.obj
 0001:00140d10       _CheckThrownSaberDamaged   20141d10 f   w_saber.obj
 0001:00143210       _saberCheckRadiusDamage    20144210 f   w_saber.obj
 0001:001455e0       _G_KickTrace               201465e0 f   w_saber.obj
 0001:001459e0       _G_TossTheMofo             201469e0 f   w_saber.obj
 0001:00145b20       _G_KickDownable            20146b20 f   w_saber.obj
 0001:001461d0       _BG_GiveMeVectorFromMatrix 201471d0 f   w_saber.obj
 0001:00146330       _G_PrettyCloseIGuess       20147330 f   w_saber.obj
 0001:0014a0d0       _G_G2PlayerAngles          2014b0d0 f   w_saber.obj
 0001:0014a8a0       _G_G2NPCAngles             2014b8a0 f   w_saber.obj
 0001:0014ac60       _G_CheckLookTarget         2014bc60 f   w_saber.obj
 0001:0014bc30       _RegisterAssets            2014cc30 f   WalkerNPC.obj
 0001:0014bc60       _Board                     2014cc60 f   WalkerNPC.obj
 0001:0014bca0       _ProcessMoveCommands       2014cca0 f   WalkerNPC.obj
 0001:0014bfa0       _ProcessOrientCommands     2014cfa0 f   WalkerNPC.obj
 0001:0014c130       _VectorLength              2014d130 f   WalkerNPC.obj
 0001:0014c170       _AnimateVehicle            2014d170 f   WalkerNPC.obj
 0001:0014c770       _$$$00001                  2014d770 f   LIBC:strchr.obj
 0001:0014d43f       _$$$00002                  2014e43f f   LIBC:pow.obj
 0001:0014d720       _shortsort                 2014e720 f   LIBC:qsort.obj
 0001:0014db04       _$$$00003                  2014eb04 f   LIBC:87fmod.obj
 0001:0014e321       __shift                    2014f321 f   LIBC:cvt.obj
 0001:0014e783       _$$$00003                  2014f783 f   LIBC:87disp.obj
 0001:0014f859       __hextodec                 20150859 f   LIBC:input.obj
 0001:0014f88b       __inc                      2015088b f   LIBC:input.obj
 0001:00150710       _$$$00001                  20151710 f   LIBC:87triga.obj
 0001:00151546       _has_osfxsr_set            20152546 f   LIBC:cpu_disp.obj
 0001:00152700       _$$$00001                  20153700 f   LIBC:87tran.obj
 0001:00152c5e       _write_char                20153c5e f   LIBC:output.obj
 0001:00152c91       _write_multi_char          20153c91 f   LIBC:output.obj
 0001:00152cb5       _write_string              20153cb5 f   LIBC:output.obj
 0001:00154315       _doexit                    20155315 f   LIBC:crt0dat.obj
 0001:0015468b       _parse_cmdline             2015568b f   LIBC:stdargv.obj
 0001:00154d45       $$$00003                   20155d45 f   LIBC:exsup3.obj
 0001:00155441       __abstract_cw              20156441 f   LIBC:ieee87.obj
 0001:001554d3       __hw_cw                    201564d3 f   LIBC:ieee87.obj
 0001:0015585b       _CPtoLCID                  2015685b f   LIBC:mbctype.obj
 0001:0015588a       _setSBCS                   2015688a f   LIBC:mbctype.obj
 0001:001558b3       _setSBUpLow                201568b3 f   LIBC:mbctype.obj
 0001:001560ca       _report_failure            201570ca f   LIBC:secchk.obj
 0001:00156cc4       $$$00001                   20157cc4 f   LIBC:exsup.obj
 0001:00156ce4       $$$00003                   20157ce4 f   LIBC:exsup.obj
 0001:00156ce4       __unwind_handler           20157ce4 f   LIBC:exsup.obj
 0001:00156d06       $$$00005                   20157d06 f   LIBC:exsup.obj
 0001:00156d6e       $$$00007                   20157d6e f   LIBC:exsup.obj
 0001:00156db2       $$$00011                   20157db2 f   LIBC:exsup.obj
 0001:00157e8d       _flsall                    20158e8d f   LIBC:fflush.obj
